Certificate:
    Data:
        Version: 3 (0x2)
        Serial Number:
            01:79:3c:8b:cf:0e:95:e2:ec:b9
    Signature Algorithm: ecdsa-with-SHA256
        Issuer: CN = AT DGC CSCA 1, C = AT, O = BMSGPK
        Validity
            Not Before: May  5 12:41:06 2021 GMT
            Not After : May  5 12:41:06 2023 GMT
        Subject: CN = AT DSC 1, C = AT, O = BMSGPK, serialNumber = 1
        Subject Public Key Info:
            Public Key Algorithm: id-ecPublicKey
                Public-Key: (256 bit)
                pub:
                    04:ad:d5:5c:f5:ad:1b:96:d4:7a:8e:6d:41:3d:30:
                    37:bb:47:32:24:d6:0a:b8:5d:6e:46:4f:21:ee:1d:
                    38:f9:70:51:27:d9:18:1e:df:bf:a1:20:d7:c2:65:
                    97:28:ce:9c:10:29:dc:9a:a6:8a:cf:50:fd:53:13:
                    b5:16:97:41:77
                ASN1 OID: prime256v1
                NIST CURVE: P-256
        X509v3 extensions:
            X509v3 Key Usage: critical
                Digital Signature
            X509v3 Subject Key Identifier: 
                EE:3D:CB:52:12:6F:A7:2F:5E:C8:4B:72:9F:14:52:9F:55:A0:62:D0
            X509v3 Authority Key Identifier: 
                keyid:FE:C9:28:43:9F:94:61:2F:79:FD:A2:31:DB:68:A6:C7:AD:C0:61:9E

    Signature Algorithm: ecdsa-with-SHA256
         30:45:02:21:00:c6:da:8a:68:b5:61:bc:b4:95:cd:f3:86:59:
         a9:3e:b0:50:1c:fd:28:5f:03:fb:3f:4d:ba:46:2f:9d:41:10:
         dd:02:20:74:12:c5:49:34:a2:0e:dd:14:25:a0:c5:e9:2b:76:
         6e:45:10:b9:51:d6:e9:f4:1b:38:d7:7b:df:5f:cc:e2:77
-----BEGIN CERTIFICATE-----
MIIBvTCCAWOgAwIBAgIKAXk8i88OleLsuTAKBggqhkjOPQQDAjA2MRYwFAYDVQQD
DA1BVCBER0MgQ1NDQSAxMQswCQYDVQQGEwJBVDEPMA0GA1UECgwGQk1TR1BLMB4X
DTIxMDUwNTEyNDEwNloXDTIzMDUwNTEyNDEwNlowPTERMA8GA1UEAwwIQVQgRFND
IDExCzAJBgNVBAYTAkFUMQ8wDQYDVQQKDAZCTVNHUEsxCjAIBgNVBAUTATEwWTAT
BgcqhkjOPQIBBggqhkjOPQMBBwNCAASt1Vz1rRuW1HqObUE9MDe7RzIk1gq4XW5G
TyHuHTj5cFEn2Rge37+hINfCZZcozpwQKdyaporPUP1TE7UWl0F3o1IwUDAOBgNV
HQ8BAf8EBAMCB4AwHQYDVR0OBBYEFO49y1ISb6cvXshLcp8UUp9VoGLQMB8GA1Ud
IwQYMBaAFP7JKEOflGEvef2iMdtopsetwGGeMAoGCCqGSM49BAMCA0gAMEUCIQDG
2opotWG8tJXN84ZZqT6wUBz9KF8D+z9NukYvnUEQ3QIgdBLFSTSiDt0UJaDF6St2
bkUQuVHW6fQbONd731/M4nc=
-----END CERTIFICATE-----
