Certificate:
    Data:
        Version: 3 (0x2)
        Serial Number: 3270579603 (0xc2f11593)
    Signature Algorithm: ecdsa-with-SHA256
        Issuer: CN = EC-Me
        Validity
            Not Before: Apr 23 11:27:48 2021 GMT
            Not After : May 23 11:27:48 2021 GMT
        Subject: CN = EC-Me
        Subject Public Key Info:
            Public Key Algorithm: id-ecPublicKey
                Public-Key: (256 bit)
                pub:
                    04:fc:e5:79:51:f6:2b:b4:4d:78:d3:3b:45:f6:33:
                    a0:9e:ec:75:a3:23:4e:f0:1b:2c:e3:7e:fb:13:f9:
                    03:86:9f:44:cc:56:5d:b2:06:b3:b5:f4:fe:c2:f0:
                    36:f5:be:eb:49:bd:84:b0:72:6b:af:c6:90:76:7d:
                    ff:d7:29:ed:7b
                ASN1 OID: prime256v1
                NIST CURVE: P-256
        X509v3 extensions:
            X509v3 Key Usage: critical
                Digital Signature, Key Encipherment
    Signature Algorithm: ecdsa-with-SHA256
         30:46:02:21:00:b9:d5:7c:2c:b6:32:01:1f:5d:12:37:bd:35:
         12:7c:56:18:ad:e0:22:03:da:52:00:4d:fa:58:d9:02:ce:fa:
         cd:02:21:00:e0:ea:e1:32:76:a8:03:e9:15:cd:45:21:43:af:
         be:5c:9c:18:9e:90:57:13:57:12:48:51:72:07:65:55:f5:1b
-----BEGIN CERTIFICATE-----
MIIBJTCBy6ADAgECAgUAwvEVkzAKBggqhkjOPQQDAjAQMQ4wDAYDVQQDDAVFQy1N
ZTAeFw0yMTA0MjMxMTI3NDhaFw0yMTA1MjMxMTI3NDhaMBAxDjAMBgNVBAMMBUVD
LU1lMFkwEwYHKoZIzj0CAQYIKoZIzj0DAQcDQgAE/OV5UfYrtE140ztF9jOgnux1
oyNO8Bss4377E/kDhp9EzFZdsgaztfT+wvA29b7rSb2EsHJrr8aQdn3/1ynte6MS
MBAwDgYDVR0PAQH/BAQDAgWgMAoGCCqGSM49BAMCA0kAMEYCIQC51XwstjIBH10S
N701EnxWGK3gIgPaUgBN+ljZAs76zQIhAODq4TJ2qAPpFc1FIUOvvlycGJ6QVxNX
EkhRcgdlVfUb
-----END CERTIFICATE-----
