Certificate:
    Data:
        Version: 3 (0x2)
        Serial Number:
            70:99:7f:d6:36:59:45:b5:6c:08:c9:03:c6:2c:58:7a
    Signature Algorithm: rsassaPss
         Hash Algorithm: sha512
         Mask Algorithm: mgf1 with sha512
         Salt Length: 0x40
         Trailer Field: 0xBC (default)
        Issuer: C = DE, O = D-Trust GmbH, CN = D-TRUST CA 2-2 2019, 2.5.4.97 = NTRDE-HRB74346
        Validity
            Not Before: Jun  7 10:00:17 2021 GMT
            Not After : Jun 11 10:00:17 2023 GMT
        Subject: C = DE, O = Robert Koch-Institut, OU = Elektronischer Impfnachweis, CN = Robert Koch-Institut, L = Berlin, postalCode = 13353, street = Nordufer 20, 2.5.4.97 = DT:DE-3023531445, serialNumber = CSM026413639, ST = Berlin
        Subject Public Key Info:
            Public Key Algorithm: id-ecPublicKey
                Public-Key: (256 bit)
                pub:
                    04:ce:66:b9:8b:3e:59:04:88:75:28:36:61:8f:d7:
                    d2:9e:a2:68:28:af:70:78:e1:81:ff:dd:70:e8:5a:
                    5d:01:48:c5:10:a1:83:a6:18:ff:31:d1:91:7d:5a:
                    e8:fe:04:b2:1d:18:69:69:08:21:64:95:d1:0c:40:
                    8e:b9:20:33:a9
                ASN1 OID: prime256v1
                NIST CURVE: P-256
        X509v3 extensions:
            X509v3 Authority Key Identifier: 
                keyid:71:10:32:AE:74:71:7B:54:8E:F1:D6:AB:62:54:AE:FC:3E:C0:BB:16

            qcStatements: 
                0.0......F..0......F..0......F...
            Authority Information Access: 
                OCSP - URI:http://d-trust-ca-2-2-2019.ocsp.d-trust.net
                CA Issuers - URI:http://www.d-trust.net/cgi-bin/D-TRUST_CA_2-2_2019.crt
                CA Issuers - URI:ldap://directory.d-trust.net/CN=D-TRUST%20CA%202-2%202019,O=D-Trust%20GmbH,C=DE?cACertificate?base?

            X509v3 Certificate Policies: 
                Policy: 0.4.0.194112.1.1
                Policy: 1.3.6.1.4.1.4788.2.150.5
                  CPS: http://www.d-trust.net/internet/files/D-TRUST_CSM_PKI_CPS.pdf

            X509v3 CRL Distribution Points: 

                Full Name:
                  URI:ldap://directory.d-trust.net/CN=D-TRUST%20CA%202-2%202019,O=D-Trust%20GmbH,C=DE?certificaterevocationlist
                  URI:http://crl.d-trust.net/crl/d-trust_ca_2-2_2019.crl
                  URI:http://cdn.d-trust-cloudcrl.net/crl/d-trust_ca_2-2_2019.crl

            X509v3 Subject Key Identifier: 
                2F:0E:B0:3D:66:26:42:F1:C9:74:80:8C:8F:11:19:F4:E8:E6:E2:13
            X509v3 Key Usage: critical
                Digital Signature, Non Repudiation
    Signature Algorithm: rsassaPss
         Hash Algorithm: sha512
         Mask Algorithm: mgf1 with sha512
         Salt Length: 0x40
         Trailer Field: 0xBC (default)

         33:29:55:32:6d:e4:27:44:95:29:01:0e:a6:b3:05:b5:55:f8:
         0a:7c:3a:2c:0e:c9:8f:13:75:f1:42:6c:8a:f7:84:69:f2:d8:
         74:be:8c:17:58:dd:5e:3d:71:38:bc:a0:cc:57:5f:ad:98:6b:
         da:be:84:f9:06:27:12:65:3a:38:50:24:2e:e2:74:80:53:98:
         35:88:28:be:7f:23:f9:05:ba:1a:ff:70:e5:97:b1:fc:38:d6:
         d7:eb:52:83:66:05:b6:40:de:61:fb:96:dc:80:12:b3:56:57:
         e3:e9:37:f6:f4:5f:15:52:67:96:28:93:23:d3:93:fe:a8:99:
         83:d1:36:50:88:fc:4c:8e:cf:dd:d0:f5:b1:38:fa:92:98:b2:
         28:05:3f:e8:b5:95:5f:7e:44:e2:5f:40:a7:16:6f:2b:4a:ba:
         29:b1:f9:c6:2b:4b:2d:5a:80:63:3d:17:cc:05:c3:26:c5:b1:
         9d:64:1f:27:bf:2d:61:ac:c5:89:03:7a:91:48:15:15:a7:93:
         4c:25:74:92:27:d9:94:cb:0c:05:d8:c2:13:55:98:bb:f2:45:
         78:b6:ae:65:50:61:8d:e6:0b:b6:87:ae:2b:0e:67:83:ad:ee:
         06:36:49:14:ec:2c:54:ec:4b:ae:6c:6b:e1:50:3f:c6:fd:47:
         f2:81:a7:df:8e:26:13:fe:e1:f7:28:a9:89:2e:79:b2:3b:cc:
         8d:41:a3:db:63:2a:1f:20:68:9c:f1:ae:10:a5:d8:5a:3a:0f:
         19:2c:88:90:13:41:fb:78:d7:b8:59:da:f4:ed:7c:0d:16:36:
         cb:e5:9f:b5:cf:23:6d:f6:28:23:e5:29:94:d7:94:e2:21:65:
         1d:b8:e6:d9:ff:3b:72:38:78:c1:2e:ce:ff:24:d1:50:83:15:
         f6:7b:0f:e9:ab:ab:d4:f1:a0:cb:a6:9a:c0:1d:a3:1e:58:ce:
         d9:d9:cd:50:83:37:13:6c:64:fd:19:97:75:d2:2f:98:7c:3b:
         c2:89:e3:69:ff:7f:32:e0:44:9c:3a:0c:c3:cf:05:f9:f8:f6:
         20:c0:5d:dd:59:41:95:dc:13:98:ce:30:45:07:2b:4c:86:40:
         56:88:ab:4e:b6:31:20:5b:7d:aa:88:88:ce:0a:b6:7e:7a:68:
         6d:31:94:a4:44:5e:13:bb:07:9e:15:e3:1d:fb:5c:83:34:60:
         c4:38:08:e8:8d:6a:25:65:11:f1:50:27:fd:40:52:97:34:5f:
         f2:68:e8:9a:f5:35:e5:e5:a3:e4:46:a0:9a:c8:75:d4:4e:45:
         42:df:c8:c7:6f:89:49:4a:84:ff:25:ce:1d:51:84:14:0d:ca:
         2a:2b:81:24:4b:f0:3e:e8
-----BEGIN CERTIFICATE-----
MIIHUTCCBQmgAwIBAgIQcJl/1jZZRbVsCMkDxixYejA9BgkqhkiG9w0BAQowMKAN
MAsGCWCGSAFlAwQCA6EaMBgGCSqGSIb3DQEBCDALBglghkgBZQMEAgOiAwIBQDBb
MQswCQYDVQQGEwJERTEVMBMGA1UEChMMRC1UcnVzdCBHbWJIMRwwGgYDVQQDExNE
LVRSVVNUIENBIDItMiAyMDE5MRcwFQYDVQRhEw5OVFJERS1IUkI3NDM0NjAeFw0y
MTA2MDcxMDAwMTdaFw0yMzA2MTExMDAwMTdaMIHrMQswCQYDVQQGEwJERTEdMBsG
A1UEChMUUm9iZXJ0IEtvY2gtSW5zdGl0dXQxJDAiBgNVBAsTG0VsZWt0cm9uaXNj
aGVyIEltcGZuYWNod2VpczEdMBsGA1UEAxMUUm9iZXJ0IEtvY2gtSW5zdGl0dXQx
DzANBgNVBAcTBkJlcmxpbjEOMAwGA1UEEQwFMTMzNTMxFDASBgNVBAkTC05vcmR1
ZmVyIDIwMRkwFwYDVQRhExBEVDpERS0zMDIzNTMxNDQ1MRUwEwYDVQQFEwxDU00w
MjY0MTM2MzkxDzANBgNVBAgTBkJlcmxpbjBZMBMGByqGSM49AgEGCCqGSM49AwEH
A0IABM5muYs+WQSIdSg2YY/X0p6iaCivcHjhgf/dcOhaXQFIxRChg6YY/zHRkX1a
6P4Esh0YaWkIIWSV0QxAjrkgM6mjggLpMIIC5TAfBgNVHSMEGDAWgBRxEDKudHF7
VI7x1qtiVK78PsC7FjAtBggrBgEFBQcBAwQhMB8wCAYGBACORgEBMBMGBgQAjkYB
BjAJBgcEAI5GAQYCMIH+BggrBgEFBQcBAQSB8TCB7jA3BggrBgEFBQcwAYYraHR0
cDovL2QtdHJ1c3QtY2EtMi0yLTIwMTkub2NzcC5kLXRydXN0Lm5ldDBCBggrBgEF
BQcwAoY2aHR0cDovL3d3dy5kLXRydXN0Lm5ldC9jZ2ktYmluL0QtVFJVU1RfQ0Ff
Mi0yXzIwMTkuY3J0MG8GCCsGAQUFBzAChmNsZGFwOi8vZGlyZWN0b3J5LmQtdHJ1
c3QubmV0L0NOPUQtVFJVU1QlMjBDQSUyMDItMiUyMDIwMTksTz1ELVRydXN0JTIw
R21iSCxDPURFP2NBQ2VydGlmaWNhdGU/YmFzZT8wcAYDVR0gBGkwZzAJBgcEAIvs
QAEBMFoGCysGAQQBpTQCgRYFMEswSQYIKwYBBQUHAgEWPWh0dHA6Ly93d3cuZC10
cnVzdC5uZXQvaW50ZXJuZXQvZmlsZXMvRC1UUlVTVF9DU01fUEtJX0NQUy5wZGYw
gfAGA1UdHwSB6DCB5TCB4qCB36CB3IZpbGRhcDovL2RpcmVjdG9yeS5kLXRydXN0
Lm5ldC9DTj1ELVRSVVNUJTIwQ0ElMjAyLTIlMjAyMDE5LE89RC1UcnVzdCUyMEdt
YkgsQz1ERT9jZXJ0aWZpY2F0ZXJldm9jYXRpb25saXN0hjJodHRwOi8vY3JsLmQt
dHJ1c3QubmV0L2NybC9kLXRydXN0X2NhXzItMl8yMDE5LmNybIY7aHR0cDovL2Nk
bi5kLXRydXN0LWNsb3VkY3JsLm5ldC9jcmwvZC10cnVzdF9jYV8yLTJfMjAxOS5j
cmwwHQYDVR0OBBYEFC8OsD1mJkLxyXSAjI8RGfTo5uITMA4GA1UdDwEB/wQEAwIG
wDA9BgkqhkiG9w0BAQowMKANMAsGCWCGSAFlAwQCA6EaMBgGCSqGSIb3DQEBCDAL
BglghkgBZQMEAgOiAwIBQAOCAgEAMylVMm3kJ0SVKQEOprMFtVX4Cnw6LA7JjxN1
8UJsiveEafLYdL6MF1jdXj1xOLygzFdfrZhr2r6E+QYnEmU6OFAkLuJ0gFOYNYgo
vn8j+QW6Gv9w5Zex/DjW1+tSg2YFtkDeYfuW3IASs1ZX4+k39vRfFVJnliiTI9OT
/qiZg9E2UIj8TI7P3dD1sTj6kpiyKAU/6LWVX35E4l9ApxZvK0q6KbH5xitLLVqA
Yz0XzAXDJsWxnWQfJ78tYazFiQN6kUgVFaeTTCV0kifZlMsMBdjCE1WYu/JFeLau
ZVBhjeYLtoeuKw5ng63uBjZJFOwsVOxLrmxr4VA/xv1H8oGn344mE/7h9yipiS55
sjvMjUGj22MqHyBonPGuEKXYWjoPGSyIkBNB+3jXuFna9O18DRY2y+Wftc8jbfYo
I+UplNeU4iFlHbjm2f87cjh4wS7O/yTRUIMV9nsP6aur1PGgy6aawB2jHljO2dnN
UIM3E2xk/RmXddIvmHw7wonjaf9/MuBEnDoMw88F+fj2IMBd3VlBldwTmM4wRQcr
TIZAVoirTrYxIFt9qoiIzgq2fnpobTGUpEReE7sHnhXjHftcgzRgxDgI6I1qJWUR
8VAn/UBSlzRf8mjomvU15eWj5Eagmsh11E5FQt/Ix2+JSUqE/yXOHVGEFA3KKiuB
JEvwPug=
-----END CERTIFICATE-----
