Certificate:
    Data:
        Version: 3 (0x2)
        Serial Number:
            24:3c:6b:31:6b:13:1e:67:3e
    Signature Algorithm: ecdsa-with-SHA256
        Issuer: CN = EADTrust ECC 256 SubCA For Qualified Certificates 2019, O = "European Agency of Digital Trust, S.L.", C = ES, 2.5.4.97 = VATES-B85626240, OU = Legal Person
        Validity
            Not Before: May 27 11:39:00 2021 GMT
            Not After : May 27 11:39:00 2023 GMT
        Subject: CN = Inspecci\C3\B3n General de Sanidad de la Defensa, serialNumber = S2830001J, OU = SELLO ELECTRONICO, OU = Inspecci\C3\B3n General de Sanidad de la Defensa, 2.5.4.97 = VATES-S2830001J, O = Ministerio de Defensa, C = ES
        Subject Public Key Info:
            Public Key Algorithm: id-ecPublicKey
                Public-Key: (256 bit)
                pub:
                    04:eb:6a:2b:af:b1:cb:d0:f3:b2:40:2a:a6:81:b6:
                    c4:a9:f7:1b:71:d7:13:e2:fc:9f:41:91:0f:61:fc:
                    64:eb:d6:51:bf:d4:fc:23:2e:a7:58:0c:84:8c:5d:
                    15:c6:f9:27:7c:28:3f:c7:db:a2:83:91:c5:5a:ba:
                    5e:75:6d:84:a7
                ASN1 OID: prime256v1
                NIST CURVE: P-256
        X509v3 extensions:
            X509v3 Basic Constraints: critical
                CA:FALSE
            X509v3 Authority Key Identifier: 
                keyid:D3:4C:6C:3A:BD:36:FE:70:87:23:87:3A:EE:3D:90:CF:CB:9B:F7:21

            Authority Information Access: 
                CA Issuers - URI:http://ca.eadtrust.eu/eadtrust-subca-ecc256eadlp2019.crt
                OCSP - URI:http://ocsp.eadtrust.eu

            X509v3 Issuer Alternative Name: 
                email:ca@eadtrust.eu, URI:http://www.eadtrust.eu, URI:http://ca.eadtrust.eu, URI:http://policy.eadtrust.eu
            X509v3 Subject Alternative Name: 
                DirName:/2.16.724.1.3.5.6.2.1=SELLO ELECTRONICO DE NIVEL MEDIO/2.16.724.1.3.5.6.2.2=Ministerio de Defensa/2.16.724.1.3.5.6.2.3=S2830001J
            X509v3 Certificate Policies: 
                Policy: 2.16.724.1.3.5.6.2
                Policy: 0.4.0.194112.1.1
                  User Notice:
                    Explicit Text: European Telecommunications Standards Institute. eIDAS European Regulation Compliant
                Policy: 1.3.6.1.4.1.501.2.1.1.0.41233
                  CPS: http://policy.eadtrust.eu
                  User Notice:
                    Explicit Text: Certificado cualificado de sello electrónico de Administración, órgano o entidad de derecho público, nivel Medio/Sustancial. Consulte las condiciones de uso en http://policy.eadtrust.eu

            X509v3 Extended Key Usage: 
                TLS Web Client Authentication, E-mail Protection
            qcStatements: 
                0..0...+.......0.......I..0......F..0......F.....0......F..0......F...0l.....F..0b00.*https://eadtrust.eu/en/documents-in-force/..en0..(https://eadtrust.eu/documentos-vigentes/..es
            X509v3 CRL Distribution Points: 

                Full Name:
                  URI:http://crl.eadtrust.eu/eadtrust-subca-ecc256eadlp2019.crl

            X509v3 Subject Key Identifier: 
                D8:63:C7:A7:E8:A4:EA:FF:2D:18:8F:B9:70:F3:7E:3E:65:CB:42:DA
            X509v3 Key Usage: critical
                Digital Signature, Non Repudiation, Key Encipherment
    Signature Algorithm: ecdsa-with-SHA256
         30:45:02:21:00:b8:4a:e7:ee:64:90:b1:14:06:55:b2:35:5c:
         8c:1b:bf:9a:5d:4e:7c:2a:25:ff:cc:df:2f:65:81:e8:a9:cb:
         a1:02:20:50:b0:ab:b4:26:ab:0a:b5:2f:14:1b:83:7d:7b:d3:
         94:b2:38:5d:df:f6:09:3c:0e:22:f5:0f:ed:0a:3d:15:c6
-----BEGIN CERTIFICATE-----
MIIHHTCCBsOgAwIBAgIJJDxrMWsTHmc+MAoGCCqGSM49BAMCMIGwMT8wPQYDVQQD
DDZFQURUcnVzdCBFQ0MgMjU2IFN1YkNBIEZvciBRdWFsaWZpZWQgQ2VydGlmaWNh
dGVzIDIwMTkxLzAtBgNVBAoMJkV1cm9wZWFuIEFnZW5jeSBvZiBEaWdpdGFsIFRy
dXN0LCBTLkwuMQswCQYDVQQGEwJFUzEYMBYGA1UEYQwPVkFURVMtQjg1NjI2MjQw
MRUwEwYDVQQLDAxMZWdhbCBQZXJzb24wHhcNMjEwNTI3MTEzOTAwWhcNMjMwNTI3
MTEzOTAwWjCB5TE1MDMGA1UEAwwsSW5zcGVjY2nDs24gR2VuZXJhbCBkZSBTYW5p
ZGFkIGRlIGxhIERlZmVuc2ExEjAQBgNVBAUTCVMyODMwMDAxSjEaMBgGA1UECwwR
U0VMTE8gRUxFQ1RST05JQ08xNTAzBgNVBAsMLEluc3BlY2Npw7NuIEdlbmVyYWwg
ZGUgU2FuaWRhZCBkZSBsYSBEZWZlbnNhMRgwFgYDVQRhDA9WQVRFUy1TMjgzMDAw
MUoxHjAcBgNVBAoMFU1pbmlzdGVyaW8gZGUgRGVmZW5zYTELMAkGA1UEBhMCRVMw
WTATBgcqhkjOPQIBBggqhkjOPQMBBwNCAATraiuvscvQ87JAKqaBtsSp9xtx1xPi
/J9BkQ9h/GTr1lG/1PwjLqdYDISMXRXG+Sd8KD/H26KDkcVaul51bYSno4IEjTCC
BIkwDAYDVR0TAQH/BAIwADAfBgNVHSMEGDAWgBTTTGw6vTb+cIcjhzruPZDPy5v3
ITB5BggrBgEFBQcBAQRtMGswRAYIKwYBBQUHMAKGOGh0dHA6Ly9jYS5lYWR0cnVz
dC5ldS9lYWR0cnVzdC1zdWJjYS1lY2MyNTZlYWRscDIwMTkuY3J0MCMGCCsGAQUF
BzABhhdodHRwOi8vb2NzcC5lYWR0cnVzdC5ldTBjBgNVHRIEXDBagQ5jYUBlYWR0
cnVzdC5ldYYWaHR0cDovL3d3dy5lYWR0cnVzdC5ldYYVaHR0cDovL2NhLmVhZHRy
dXN0LmV1hhlodHRwOi8vcG9saWN5LmVhZHRydXN0LmV1MH4GA1UdEQR3MHWkczBx
MS8wLQYJYIVUAQMFBgIBDCBTRUxMTyBFTEVDVFJPTklDTyBERSBOSVZFTCBNRURJ
TzEkMCIGCWCFVAEDBQYCAgwVTWluaXN0ZXJpbyBkZSBEZWZlbnNhMRgwFgYJYIVU
AQMFBgIDDAlTMjgzMDAwMUowggGYBgNVHSAEggGPMIIBizAKBghghVQBAwUGAjBv
BgcEAIvsQAEBMGQwYgYIKwYBBQUHAgIwVgxURXVyb3BlYW4gVGVsZWNvbW11bmlj
YXRpb25zIFN0YW5kYXJkcyBJbnN0aXR1dGUuIGVJREFTIEV1cm9wZWFuIFJlZ3Vs
YXRpb24gQ29tcGxpYW50MIIBCgYOKwYBBAGDdQIBAQCCwhEwgfcwJQYIKwYBBQUH
AgEWGWh0dHA6Ly9wb2xpY3kuZWFkdHJ1c3QuZXUwgc0GCCsGAQUFBwICMIHADIG9
Q2VydGlmaWNhZG8gY3VhbGlmaWNhZG8gZGUgc2VsbG8gZWxlY3Ryw7NuaWNvIGRl
IEFkbWluaXN0cmFjacOzbiwgw7NyZ2FubyBvIGVudGlkYWQgZGUgZGVyZWNobyBw
w7pibGljbywgbml2ZWwgTWVkaW8vU3VzdGFuY2lhbC4gQ29uc3VsdGUgbGFzIGNv
bmRpY2lvbmVzIGRlIHVzbyBlbiBodHRwOi8vcG9saWN5LmVhZHRydXN0LmV1MB0G
A1UdJQQWMBQGCCsGAQUFBwMCBggrBgEFBQcDBDCBwQYIKwYBBQUHAQMEgbQwgbEw
FQYIKwYBBQUHCwIwCQYHBACL7EkBAjAIBgYEAI5GAQEwCwYGBACORgEDAgEPMBMG
BgQAjkYBBjAJBgcEAI5GAQYCMGwGBgQAjkYBBTBiMDAWKmh0dHBzOi8vZWFkdHJ1
c3QuZXUvZW4vZG9jdW1lbnRzLWluLWZvcmNlLxMCZW4wLhYoaHR0cHM6Ly9lYWR0
cnVzdC5ldS9kb2N1bWVudG9zLXZpZ2VudGVzLxMCZXMwSgYDVR0fBEMwQTA/oD2g
O4Y5aHR0cDovL2NybC5lYWR0cnVzdC5ldS9lYWR0cnVzdC1zdWJjYS1lY2MyNTZl
YWRscDIwMTkuY3JsMB0GA1UdDgQWBBTYY8en6KTq/y0Yj7lw834+ZctC2jAOBgNV
HQ8BAf8EBAMCBeAwCgYIKoZIzj0EAwIDSAAwRQIhALhK5+5kkLEUBlWyNVyMG7+a
XU58KiX/zN8vZYHoqcuhAiBQsKu0JqsKtS8UG4N9e9OUsjhd3/YJPA4i9Q/tCj0V
xg==
-----END CERTIFICATE-----
