Certificate:
    Data:
        Version: 3 (0x2)
        Serial Number:
            7e:04:ad:73:15:f4:6d:94:7c:1b:e5:3d:bb:d8:87:86
    Signature Algorithm: rsassaPss
         Hash Algorithm: sha512
         Mask Algorithm: mgf1 with sha512
         Salt Length: 0x40
         Trailer Field: 0xBC (default)
        Issuer: C = DE, O = D-Trust GmbH, CN = D-TRUST CA 2-2 2019, 2.5.4.97 = NTRDE-HRB74346
        Validity
            Not Before: Jun  7 10:30:18 2021 GMT
            Not After : Jun 11 10:30:18 2023 GMT
        Subject: C = DE, O = Robert Koch-Institut, OU = Elektronischer Impfnachweis, CN = Robert Koch-Institut, L = Berlin, postalCode = 13353, street = Nordufer 20, 2.5.4.97 = DT:DE-3023531445, serialNumber = CSM026414212, ST = Berlin
        Subject Public Key Info:
            Public Key Algorithm: id-ecPublicKey
                Public-Key: (256 bit)
                pub:
                    04:cb:15:bb:e9:14:2b:6c:35:12:38:41:f1:62:4b:
                    16:93:90:9a:18:6c:a0:c4:32:49:ec:0f:63:46:2a:
                    29:f8:59:69:c2:63:d1:78:54:e6:24:d5:51:30:28:
                    c4:e7:ac:ca:cb:5a:31:76:2e:0a:5c:21:c8:ff:22:
                    48:bb:0e:33:5b
                ASN1 OID: prime256v1
                NIST CURVE: P-256
        X509v3 extensions:
            X509v3 Authority Key Identifier: 
                keyid:71:10:32:AE:74:71:7B:54:8E:F1:D6:AB:62:54:AE:FC:3E:C0:BB:16

            qcStatements: 
                0.0......F..0......F..0......F...
            Authority Information Access: 
                OCSP - URI:http://d-trust-ca-2-2-2019.ocsp.d-trust.net
                CA Issuers - URI:http://www.d-trust.net/cgi-bin/D-TRUST_CA_2-2_2019.crt
                CA Issuers - URI:ldap://directory.d-trust.net/CN=D-TRUST%20CA%202-2%202019,O=D-Trust%20GmbH,C=DE?cACertificate?base?

            X509v3 Certificate Policies: 
                Policy: 0.4.0.194112.1.1
                Policy: 1.3.6.1.4.1.4788.2.150.5
                  CPS: http://www.d-trust.net/internet/files/D-TRUST_CSM_PKI_CPS.pdf

            X509v3 CRL Distribution Points: 

                Full Name:
                  URI:ldap://directory.d-trust.net/CN=D-TRUST%20CA%202-2%202019,O=D-Trust%20GmbH,C=DE?certificaterevocationlist
                  URI:http://crl.d-trust.net/crl/d-trust_ca_2-2_2019.crl
                  URI:http://cdn.d-trust-cloudcrl.net/crl/d-trust_ca_2-2_2019.crl

            X509v3 Subject Key Identifier: 
                2F:3D:58:A1:9A:83:8E:53:70:66:17:16:94:B2:21:B3:89:E2:3C:C8
            X509v3 Key Usage: critical
                Digital Signature, Non Repudiation
    Signature Algorithm: rsassaPss
         Hash Algorithm: sha512
         Mask Algorithm: mgf1 with sha512
         Salt Length: 0x40
         Trailer Field: 0xBC (default)

         ca:be:e5:db:38:02:6d:8f:cd:49:85:60:47:42:82:b3:9f:64:
         37:7d:a1:71:d5:20:fe:f8:0d:6f:a0:73:27:d1:ae:65:aa:08:
         39:55:38:c9:28:73:16:a0:5d:fb:87:c5:da:83:df:8e:a5:ce:
         9e:07:62:bc:ee:56:cd:5e:8e:c9:58:a0:a0:1f:de:32:05:33:
         21:12:91:56:96:15:ef:e3:25:73:77:4c:9d:76:f9:03:4d:f6:
         a1:08:93:66:2b:4d:18:9c:c0:f2:a5:15:c7:c6:68:7c:18:b7:
         23:f0:8e:0f:8f:ef:49:a3:43:bf:4a:6d:9f:42:8e:19:30:c0:
         13:a3:57:78:13:02:ce:66:ea:b9:00:ec:f9:21:3f:7a:80:e9:
         e3:12:0a:50:7c:f0:44:8a:cc:d0:e1:b7:2f:0c:4e:b4:61:2d:
         05:99:97:e6:22:59:5c:02:77:1a:ad:4b:0b:32:6c:d9:0a:01:
         05:af:b5:5b:90:0d:90:48:0a:b4:9f:1a:db:63:16:c9:d1:3b:
         17:bf:3f:be:1f:73:d8:88:13:21:eb:d4:a6:fc:fa:d9:62:05:
         52:41:24:fe:aa:30:e8:2f:71:47:dc:71:22:ef:43:b6:59:1e:
         bb:33:51:0f:60:f2:5a:3f:a9:ec:09:38:8e:94:11:65:d1:cb:
         41:c2:e5:69:f9:fb:04:2b:bf:58:c2:75:95:6b:b0:f7:47:b8:
         91:d4:fc:8a:69:58:d8:c4:de:3d:f4:ab:da:64:10:b0:fe:b2:
         1d:ed:24:0e:bd:44:c9:f5:b5:66:88:0d:00:9c:6e:4a:b7:f9:
         9e:46:0f:28:e9:cf:8d:bc:a9:ad:85:69:e5:f4:a3:6f:c1:d7:
         f9:14:7b:8c:17:de:43:80:dc:b9:bd:45:cc:a6:18:d8:e1:64:
         47:2b:f8:2a:e4:79:45:99:16:cd:8f:47:34:4f:b1:a1:cc:1f:
         85:9a:09:48:68:59:e1:d3:7d:a8:02:80:d3:a1:1e:04:3c:a8:
         47:36:b8:86:00:13:ca:6d:6b:d6:47:0e:2a:53:b4:c7:b3:da:
         68:81:56:1b:82:e8:ce:68:3c:a6:47:ae:df:ca:e8:f0:38:7f:
         ae:e5:e2:9d:db:49:cf:10:e5:8c:6c:d3:b8:25:99:27:2a:01:
         42:25:cb:09:bb:96:76:ff:8b:a8:96:0c:c1:27:c7:00:ed:75:
         fe:26:04:c3:18:51:1c:a0:3e:4c:d9:07:a1:e6:47:87:76:f5:
         1f:53:fa:32:b5:9e:52:49:b9:75:7d:aa:de:37:a0:46:3b:f5:
         f6:c7:e4:19:93:9e:1e:48:97:b1:f7:08:29:91:2e:46:3e:9e:
         52:15:fe:a1:63:60:be:81
-----BEGIN CERTIFICATE-----
MIIHUTCCBQmgAwIBAgIQfgStcxX0bZR8G+U9u9iHhjA9BgkqhkiG9w0BAQowMKAN
MAsGCWCGSAFlAwQCA6EaMBgGCSqGSIb3DQEBCDALBglghkgBZQMEAgOiAwIBQDBb
MQswCQYDVQQGEwJERTEVMBMGA1UEChMMRC1UcnVzdCBHbWJIMRwwGgYDVQQDExNE
LVRSVVNUIENBIDItMiAyMDE5MRcwFQYDVQRhEw5OVFJERS1IUkI3NDM0NjAeFw0y
MTA2MDcxMDMwMThaFw0yMzA2MTExMDMwMThaMIHrMQswCQYDVQQGEwJERTEdMBsG
A1UEChMUUm9iZXJ0IEtvY2gtSW5zdGl0dXQxJDAiBgNVBAsTG0VsZWt0cm9uaXNj
aGVyIEltcGZuYWNod2VpczEdMBsGA1UEAxMUUm9iZXJ0IEtvY2gtSW5zdGl0dXQx
DzANBgNVBAcTBkJlcmxpbjEOMAwGA1UEEQwFMTMzNTMxFDASBgNVBAkTC05vcmR1
ZmVyIDIwMRkwFwYDVQRhExBEVDpERS0zMDIzNTMxNDQ1MRUwEwYDVQQFEwxDU00w
MjY0MTQyMTIxDzANBgNVBAgTBkJlcmxpbjBZMBMGByqGSM49AgEGCCqGSM49AwEH
A0IABMsVu+kUK2w1EjhB8WJLFpOQmhhsoMQySewPY0YqKfhZacJj0XhU5iTVUTAo
xOesystaMXYuClwhyP8iSLsOM1ujggLpMIIC5TAfBgNVHSMEGDAWgBRxEDKudHF7
VI7x1qtiVK78PsC7FjAtBggrBgEFBQcBAwQhMB8wCAYGBACORgEBMBMGBgQAjkYB
BjAJBgcEAI5GAQYCMIH+BggrBgEFBQcBAQSB8TCB7jA3BggrBgEFBQcwAYYraHR0
cDovL2QtdHJ1c3QtY2EtMi0yLTIwMTkub2NzcC5kLXRydXN0Lm5ldDBCBggrBgEF
BQcwAoY2aHR0cDovL3d3dy5kLXRydXN0Lm5ldC9jZ2ktYmluL0QtVFJVU1RfQ0Ff
Mi0yXzIwMTkuY3J0MG8GCCsGAQUFBzAChmNsZGFwOi8vZGlyZWN0b3J5LmQtdHJ1
c3QubmV0L0NOPUQtVFJVU1QlMjBDQSUyMDItMiUyMDIwMTksTz1ELVRydXN0JTIw
R21iSCxDPURFP2NBQ2VydGlmaWNhdGU/YmFzZT8wcAYDVR0gBGkwZzAJBgcEAIvs
QAEBMFoGCysGAQQBpTQCgRYFMEswSQYIKwYBBQUHAgEWPWh0dHA6Ly93d3cuZC10
cnVzdC5uZXQvaW50ZXJuZXQvZmlsZXMvRC1UUlVTVF9DU01fUEtJX0NQUy5wZGYw
gfAGA1UdHwSB6DCB5TCB4qCB36CB3IZpbGRhcDovL2RpcmVjdG9yeS5kLXRydXN0
Lm5ldC9DTj1ELVRSVVNUJTIwQ0ElMjAyLTIlMjAyMDE5LE89RC1UcnVzdCUyMEdt
YkgsQz1ERT9jZXJ0aWZpY2F0ZXJldm9jYXRpb25saXN0hjJodHRwOi8vY3JsLmQt
dHJ1c3QubmV0L2NybC9kLXRydXN0X2NhXzItMl8yMDE5LmNybIY7aHR0cDovL2Nk
bi5kLXRydXN0LWNsb3VkY3JsLm5ldC9jcmwvZC10cnVzdF9jYV8yLTJfMjAxOS5j
cmwwHQYDVR0OBBYEFC89WKGag45TcGYXFpSyIbOJ4jzIMA4GA1UdDwEB/wQEAwIG
wDA9BgkqhkiG9w0BAQowMKANMAsGCWCGSAFlAwQCA6EaMBgGCSqGSIb3DQEBCDAL
BglghkgBZQMEAgOiAwIBQAOCAgEAyr7l2zgCbY/NSYVgR0KCs59kN32hcdUg/vgN
b6BzJ9GuZaoIOVU4yShzFqBd+4fF2oPfjqXOngdivO5WzV6OyVigoB/eMgUzIRKR
VpYV7+Mlc3dMnXb5A032oQiTZitNGJzA8qUVx8ZofBi3I/COD4/vSaNDv0ptn0KO
GTDAE6NXeBMCzmbquQDs+SE/eoDp4xIKUHzwRIrM0OG3LwxOtGEtBZmX5iJZXAJ3
Gq1LCzJs2QoBBa+1W5ANkEgKtJ8a22MWydE7F78/vh9z2IgTIevUpvz62WIFUkEk
/qow6C9xR9xxIu9DtlkeuzNRD2DyWj+p7Ak4jpQRZdHLQcLlafn7BCu/WMJ1lWuw
90e4kdT8imlY2MTePfSr2mQQsP6yHe0kDr1EyfW1ZogNAJxuSrf5nkYPKOnPjbyp
rYVp5fSjb8HX+RR7jBfeQ4Dcub1FzKYY2OFkRyv4KuR5RZkWzY9HNE+xocwfhZoJ
SGhZ4dN9qAKA06EeBDyoRza4hgATym1r1kcOKlO0x7PaaIFWG4Lozmg8pkeu38ro
8Dh/ruXindtJzxDljGzTuCWZJyoBQiXLCbuWdv+LqJYMwSfHAO11/iYEwxhRHKA+
TNkHoeZHh3b1H1P6MrWeUkm5dX2q3jegRjv19sfkGZOeHkiXsfcIKZEuRj6eUhX+
oWNgvoE=
-----END CERTIFICATE-----
