Certificate:
    Data:
        Version: 3 (0x2)
        Serial Number:
            6b:71:1f:a4:82:71:11:05:9b:14:a0:01:4d:3a:18:c7
    Signature Algorithm: rsassaPss
         Hash Algorithm: sha512
         Mask Algorithm: mgf1 with sha512
         Salt Length: 0x40
         Trailer Field: 0xBC (default)
        Issuer: C = DE, O = D-Trust GmbH, CN = D-TRUST CA 2-2 2019, 2.5.4.97 = NTRDE-HRB74346
        Validity
            Not Before: Jun 11 14:49:10 2021 GMT
            Not After : Jun 15 14:49:10 2023 GMT
        Subject: C = DE, O = Robert Koch-Institut, OU = Elektronischer Impfnachweis, CN = Robert Koch-Institut, L = Berlin, postalCode = 13353, street = Nordufer 20, 2.5.4.97 = DT:DE-3023531445, serialNumber = CSM026460008, ST = Berlin
        Subject Public Key Info:
            Public Key Algorithm: id-ecPublicKey
                Public-Key: (256 bit)
                pub:
                    04:ed:fe:12:34:db:2d:d4:13:2c:6f:a5:1b:d3:25:
                    42:cf:4d:5a:0d:60:7d:23:6f:da:8d:56:cb:c8:9a:
                    53:af:6a:4a:c1:2a:1c:42:98:8c:d2:67:32:f5:75:
                    fe:74:c6:18:95:46:90:54:13:a6:b6:81:3f:fd:f9:
                    f0:f3:0d:af:0c
                ASN1 OID: prime256v1
                NIST CURVE: P-256
        X509v3 extensions:
            X509v3 Authority Key Identifier: 
                keyid:71:10:32:AE:74:71:7B:54:8E:F1:D6:AB:62:54:AE:FC:3E:C0:BB:16

            qcStatements: 
                0.0......F..0......F..0......F...
            Authority Information Access: 
                OCSP - URI:http://d-trust-ca-2-2-2019.ocsp.d-trust.net
                CA Issuers - URI:http://www.d-trust.net/cgi-bin/D-TRUST_CA_2-2_2019.crt
                CA Issuers - URI:ldap://directory.d-trust.net/CN=D-TRUST%20CA%202-2%202019,O=D-Trust%20GmbH,C=DE?cACertificate?base?

            X509v3 Certificate Policies: 
                Policy: 0.4.0.194112.1.1
                Policy: 1.3.6.1.4.1.4788.2.150.5
                  CPS: http://www.d-trust.net/internet/files/D-TRUST_CSM_PKI_CPS.pdf

            X509v3 CRL Distribution Points: 

                Full Name:
                  URI:ldap://directory.d-trust.net/CN=D-TRUST%20CA%202-2%202019,O=D-Trust%20GmbH,C=DE?certificaterevocationlist
                  URI:http://crl.d-trust.net/crl/d-trust_ca_2-2_2019.crl
                  URI:http://cdn.d-trust-cloudcrl.net/crl/d-trust_ca_2-2_2019.crl

            X509v3 Subject Key Identifier: 
                E9:C7:D6:14:54:F0:9D:C8:3F:63:F7:CE:AA:9D:23:F3:D1:B2:C7:C7
            X509v3 Key Usage: critical
                Digital Signature, Non Repudiation
    Signature Algorithm: rsassaPss
         Hash Algorithm: sha512
         Mask Algorithm: mgf1 with sha512
         Salt Length: 0x40
         Trailer Field: 0xBC (default)

         04:ff:f3:39:1c:a2:8f:55:32:a5:98:f8:26:9a:6f:31:ee:61:
         db:06:ab:94:d1:d4:aa:a7:fb:d5:6e:08:19:a2:4a:02:37:0a:
         8b:69:1a:cc:c2:6c:ca:12:47:db:97:2c:c6:0d:0c:69:44:fd:
         d9:86:58:21:1c:7a:21:a9:e8:fa:17:96:3c:07:ef:32:fc:a6:
         7e:bb:89:bc:21:f9:32:df:fa:0c:9b:9a:5b:ef:03:d4:84:1a:
         e3:64:32:d2:6f:e7:d8:e9:27:12:ab:af:ba:2f:d7:12:76:44:
         3c:4a:83:ab:86:55:4e:73:3f:7b:69:12:33:f8:9e:b9:ef:02:
         89:de:d8:4b:b9:0b:3b:3c:1c:4c:99:10:c2:af:5d:b9:ce:5c:
         c0:68:1a:41:a9:3a:1d:c3:69:26:d9:7f:0b:78:fc:16:fb:03:
         2b:69:f5:f4:93:eb:ed:72:36:27:44:4d:9c:c7:64:07:e5:07:
         fd:d8:8e:82:28:51:cb:e5:8c:c7:d8:34:ed:b9:39:c5:a7:a8:
         08:4f:07:b2:d9:46:d1:79:8b:28:3b:ee:29:08:40:b5:df:65:
         f3:af:75:db:42:f3:c9:3e:97:5e:17:50:f7:a9:8b:69:89:62:
         d3:4c:0f:6a:18:0b:47:12:85:66:66:70:f1:81:63:cb:31:54:
         ec:c3:55:5f:3e:34:38:74:29:7a:32:d4:7f:bd:4c:2e:5f:b4:
         5f:d4:be:54:00:44:e4:a3:a9:97:72:18:e6:c9:aa:17:50:8d:
         0a:ad:7b:6c:43:33:b7:d8:c5:a3:f2:2d:a8:eb:6a:e7:09:c7:
         9c:16:c0:4e:91:70:60:92:17:f3:ac:47:72:29:24:38:72:cb:
         25:94:be:63:56:b8:fb:2e:bf:52:5d:e5:e0:bc:3c:58:f6:85:
         08:ec:1d:19:70:d0:f2:02:be:b0:45:a4:3a:0e:32:db:20:35:
         f9:4f:17:00:0b:26:45:c8:d2:a4:ae:e1:0d:92:f5:c1:f4:f2:
         8e:73:7a:52:10:f9:af:2e:1b:08:60:dd:ba:b4:c2:6b:37:72:
         3c:ea:13:6a:3f:5d:b4:8a:4b:f4:d8:8d:f9:67:79:ad:e6:9a:
         c5:c3:62:9e:64:12:ca:e7:c1:49:d3:ef:74:ca:80:3c:56:b4:
         76:ad:de:78:58:b9:f7:ca:a6:d8:55:dc:58:8a:47:83:f8:f3:
         bf:7d:59:4d:f7:07:47:54:5c:f6:3a:04:63:9d:d1:78:21:f1:
         78:71:21:b1:a0:1e:20:d5:8e:09:18:f7:fc:6f:84:e2:67:de:
         f6:c6:b3:ee:9a:5d:a7:e6:a1:6f:aa:4c:bc:9c:6f:25:72:ea:
         ab:07:99:f8:6c:e7:aa:21
-----BEGIN CERTIFICATE-----
MIIHUTCCBQmgAwIBAgIQa3EfpIJxEQWbFKABTToYxzA9BgkqhkiG9w0BAQowMKAN
MAsGCWCGSAFlAwQCA6EaMBgGCSqGSIb3DQEBCDALBglghkgBZQMEAgOiAwIBQDBb
MQswCQYDVQQGEwJERTEVMBMGA1UEChMMRC1UcnVzdCBHbWJIMRwwGgYDVQQDExNE
LVRSVVNUIENBIDItMiAyMDE5MRcwFQYDVQRhEw5OVFJERS1IUkI3NDM0NjAeFw0y
MTA2MTExNDQ5MTBaFw0yMzA2MTUxNDQ5MTBaMIHrMQswCQYDVQQGEwJERTEdMBsG
A1UEChMUUm9iZXJ0IEtvY2gtSW5zdGl0dXQxJDAiBgNVBAsTG0VsZWt0cm9uaXNj
aGVyIEltcGZuYWNod2VpczEdMBsGA1UEAxMUUm9iZXJ0IEtvY2gtSW5zdGl0dXQx
DzANBgNVBAcTBkJlcmxpbjEOMAwGA1UEEQwFMTMzNTMxFDASBgNVBAkTC05vcmR1
ZmVyIDIwMRkwFwYDVQRhExBEVDpERS0zMDIzNTMxNDQ1MRUwEwYDVQQFEwxDU00w
MjY0NjAwMDgxDzANBgNVBAgTBkJlcmxpbjBZMBMGByqGSM49AgEGCCqGSM49AwEH
A0IABO3+EjTbLdQTLG+lG9MlQs9NWg1gfSNv2o1Wy8iaU69qSsEqHEKYjNJnMvV1
/nTGGJVGkFQTpraBP/358PMNrwyjggLpMIIC5TAfBgNVHSMEGDAWgBRxEDKudHF7
VI7x1qtiVK78PsC7FjAtBggrBgEFBQcBAwQhMB8wCAYGBACORgEBMBMGBgQAjkYB
BjAJBgcEAI5GAQYCMIH+BggrBgEFBQcBAQSB8TCB7jA3BggrBgEFBQcwAYYraHR0
cDovL2QtdHJ1c3QtY2EtMi0yLTIwMTkub2NzcC5kLXRydXN0Lm5ldDBCBggrBgEF
BQcwAoY2aHR0cDovL3d3dy5kLXRydXN0Lm5ldC9jZ2ktYmluL0QtVFJVU1RfQ0Ff
Mi0yXzIwMTkuY3J0MG8GCCsGAQUFBzAChmNsZGFwOi8vZGlyZWN0b3J5LmQtdHJ1
c3QubmV0L0NOPUQtVFJVU1QlMjBDQSUyMDItMiUyMDIwMTksTz1ELVRydXN0JTIw
R21iSCxDPURFP2NBQ2VydGlmaWNhdGU/YmFzZT8wcAYDVR0gBGkwZzAJBgcEAIvs
QAEBMFoGCysGAQQBpTQCgRYFMEswSQYIKwYBBQUHAgEWPWh0dHA6Ly93d3cuZC10
cnVzdC5uZXQvaW50ZXJuZXQvZmlsZXMvRC1UUlVTVF9DU01fUEtJX0NQUy5wZGYw
gfAGA1UdHwSB6DCB5TCB4qCB36CB3IZpbGRhcDovL2RpcmVjdG9yeS5kLXRydXN0
Lm5ldC9DTj1ELVRSVVNUJTIwQ0ElMjAyLTIlMjAyMDE5LE89RC1UcnVzdCUyMEdt
YkgsQz1ERT9jZXJ0aWZpY2F0ZXJldm9jYXRpb25saXN0hjJodHRwOi8vY3JsLmQt
dHJ1c3QubmV0L2NybC9kLXRydXN0X2NhXzItMl8yMDE5LmNybIY7aHR0cDovL2Nk
bi5kLXRydXN0LWNsb3VkY3JsLm5ldC9jcmwvZC10cnVzdF9jYV8yLTJfMjAxOS5j
cmwwHQYDVR0OBBYEFOnH1hRU8J3IP2P3zqqdI/PRssfHMA4GA1UdDwEB/wQEAwIG
wDA9BgkqhkiG9w0BAQowMKANMAsGCWCGSAFlAwQCA6EaMBgGCSqGSIb3DQEBCDAL
BglghkgBZQMEAgOiAwIBQAOCAgEABP/zORyij1UypZj4JppvMe5h2warlNHUqqf7
1W4IGaJKAjcKi2kazMJsyhJH25csxg0MaUT92YZYIRx6Iano+heWPAfvMvymfruJ
vCH5Mt/6DJuaW+8D1IQa42Qy0m/n2OknEquvui/XEnZEPEqDq4ZVTnM/e2kSM/ie
ue8Cid7YS7kLOzwcTJkQwq9duc5cwGgaQak6HcNpJtl/C3j8FvsDK2n19JPr7XI2
J0RNnMdkB+UH/diOgihRy+WMx9g07bk5xaeoCE8HstlG0XmLKDvuKQhAtd9l8691
20LzyT6XXhdQ96mLaYli00wPahgLRxKFZmZw8YFjyzFU7MNVXz40OHQpejLUf71M
Ll+0X9S+VABE5KOpl3IY5smqF1CNCq17bEMzt9jFo/ItqOtq5wnHnBbATpFwYJIX
86xHcikkOHLLJZS+Y1a4+y6/Ul3l4Lw8WPaFCOwdGXDQ8gK+sEWkOg4y2yA1+U8X
AAsmRcjSpK7hDZL1wfTyjnN6UhD5ry4bCGDdurTCazdyPOoTaj9dtIpL9NiN+Wd5
reaaxcNinmQSyufBSdPvdMqAPFa0dq3eeFi598qm2FXcWIpHg/jzv31ZTfcHR1Rc
9joEY53ReCHxeHEhsaAeINWOCRj3/G+E4mfe9saz7ppdp+ahb6pMvJxvJXLqqweZ
+GznqiE=
-----END CERTIFICATE-----
