Certificate:
    Data:
        Version: 3 (0x2)
        Serial Number:
            35:63:bb:fb:fd:a5:98:64:06:4f:57:1e:a7:9a:5e:b5:fb:0e:16:87
    Signature Algorithm: sha256WithRSAEncryption
        Issuer: C = FR, O = Gouv, CN = CSCA-FRANCE
        Validity
            Not Before: Jun 14 22:00:00 2021 GMT
            Not After : Jun 14 22:00:00 2023 GMT
        Subject: C = FR, O = CNAM, OU = 180035024, CN = DSC_FR_019
        Subject Public Key Info:
            Public Key Algorithm: id-ecPublicKey
                Public-Key: (256 bit)
                pub:
                    04:22:62:05:6a:e8:33:c0:1e:5f:fd:5c:9f:43:72:
                    93:7d:34:a8:ba:4c:00:3d:54:a0:1d:95:ab:b6:b7:
                    36:8f:81:6e:01:4a:70:fc:e6:d1:9c:0f:69:06:33:
                    7f:1d:d5:1c:d7:37:25:f5:23:bf:be:c0:84:9c:79:
                    17:87:18:f3:e1
                ASN1 OID: prime256v1
                NIST CURVE: P-256
        X509v3 extensions:
            X509v3 Subject Key Identifier: 
                5E:A6:2B:03:A2:02:17:9A:23:14:C2:91:D5:4A:77:CC:E0:77:BB:AB
            X509v3 Authority Key Identifier: 
                keyid:BE:8A:2E:D6:C9:F9:20:4E:3A:27:03:08:97:4D:EC:FD:D9:7D:C5:E6

            X509v3 Basic Constraints: critical
                CA:FALSE
            X509v3 Key Usage: critical
                Digital Signature
            X509v3 CRL Distribution Points: 

                Full Name:
                  URI:http://ants.gouv.fr/csca_crl

            X509v3 Certificate Policies: 
                Policy: 1.2.250.1.200.31.3.9.1.1

            Authority Information Access: 
                CA Issuers - URI:https://ant.gouv.fr/csca

    Signature Algorithm: sha256WithRSAEncryption
         bb:c0:5a:2d:95:c5:8f:df:de:db:f6:b9:f6:60:6b:3a:16:36:
         9b:94:a9:70:0a:1a:cb:11:77:cc:e9:08:3a:de:cb:35:7d:10:
         a8:7b:a8:98:ec:86:2c:73:27:02:13:40:2e:04:b6:be:10:d7:
         0f:48:61:b3:de:99:70:a6:b2:b2:d9:4c:78:fa:58:b1:54:72:
         69:86:b9:dc:6c:0c:ac:61:e2:2f:01:71:1f:9a:90:34:29:42:
         72:4b:40:3f:ef:b0:09:c7:50:5f:34:f2:64:e9:fd:fc:63:5d:
         9a:ab:96:d4:f3:4c:2c:f0:84:7e:a9:67:cd:66:b0:76:92:13:
         af:e0:98:31:76:bd:47:90:44:32:67:57:d7:d1:78:d4:77:28:
         3d:19:fd:fd:7d:ae:1d:6f:ce:36:60:72:c1:3c:09:de:cd:14:
         f0:5e:47:17:6d:5b:b9:9b:71:54:3b:d7:e1:ec:be:a8:83:41:
         ae:ee:0c:88:6c:20:44:2b:24:95:2f:64:0d:b9:77:38:35:28:
         c7:49:70:86:cd:95:81:0c:ea:8c:02:c5:e3:16:20:b1:d3:76:
         2c:97:b3:af:00:22:2f:c1:8c:44:07:a7:99:7f:5e:0d:d8:33:
         30:69:e3:28:54:fa:c9:6f:01:0a:b3:ec:c9:49:cc:d7:94:40:
         a2:ed:c1:af:02:29:ea:8c:57:1e:74:7c:c1:b7:8a:1b:ba:73:
         65:96:35:27:8c:e4:e3:26:32:8a:1c:31:82:e5:9b:51:91:a4:
         b0:9b:0d:01:0a:0d:74:d1:c1:66:d7:3c:6b:b3:a3:e6:89:cb:
         c9:42:1e:b5:de:c4:2d:7c:5d:93:cb:b2:ed:65:45:7b:27:b9:
         57:ca:89:46:15:ab:17:28:56:58:5b:1c:41:e6:3c:1a:4b:5e:
         7d:78:86:12:1e:9f:c4:67:d1:53:94:79:6f:43:f3:9f:17:cc:
         88:0d:e8:95:a7:77:b3:5e:dd:af:e8:f3:a8:23:3f:85:c6:36:
         16:65:13:8d:8a:d2:ac:0c:ab:84:77:66:09:82:09:dd:44:bb:
         d4:87:fb:e1:47:8c:b3:a3:59:9d:04:51:8a:ed:ed:6c:05:fe:
         4e:20:ce:1e:c1:07:10:83:87:95:d6:f2:42:a1:5f:72:5c:a2:
         0b:6e:9f:1d:3a:9c:35:f2:00:c5:73:e6:3c:34:35:8e:91:26:
         85:18:c5:0e:53:96:1e:84:a7:ce:c1:99:8b:fc:1a:d6:49:92:
         6f:af:b6:b8:78:14:3f:f0:bf:3b:6a:22:fb:20:24:f0:6a:70:
         a4:48:bc:4a:0b:fe:1c:7f:e9:ef:3d:32:9a:94:0a:f0:85:0e:
         1b:fe:0a:df:fb:ab:76:da
-----BEGIN CERTIFICATE-----
MIIEGzCCAgOgAwIBAgIUNWO7+/2lmGQGT1cep5petfsOFocwDQYJKoZIhvcNAQEL
BQAwMjELMAkGA1UEBhMCRlIxDTALBgNVBAoMBEdvdXYxFDASBgNVBAMMC0NTQ0Et
RlJBTkNFMB4XDTIxMDYxNDIyMDAwMFoXDTIzMDYxNDIyMDAwMFowRTELMAkGA1UE
BhMCRlIxDTALBgNVBAoMBENOQU0xEjAQBgNVBAsMCTE4MDAzNTAyNDETMBEGA1UE
AwwKRFNDX0ZSXzAxOTBZMBMGByqGSM49AgEGCCqGSM49AwEHA0IABCJiBWroM8Ae
X/1cn0Nyk300qLpMAD1UoB2Vq7a3No+BbgFKcPzm0ZwPaQYzfx3VHNc3JfUjv77A
hJx5F4cY8+GjgeAwgd0wHQYDVR0OBBYEFF6mKwOiAheaIxTCkdVKd8zgd7urMB8G
A1UdIwQYMBaAFL6KLtbJ+SBOOicDCJdN7P3ZfcXmMAwGA1UdEwEB/wQCMAAwDgYD
VR0PAQH/BAQDAgeAMC0GA1UdHwQmMCQwIqAgoB6GHGh0dHA6Ly9hbnRzLmdvdXYu
ZnIvY3NjYV9jcmwwGAYDVR0gBBEwDzANBgsqgXoBgUgfAwkBATA0BggrBgEFBQcB
AQQoMCYwJAYIKwYBBQUHMAKGGGh0dHBzOi8vYW50LmdvdXYuZnIvY3NjYTANBgkq
hkiG9w0BAQsFAAOCAgEAu8BaLZXFj9/e2/a59mBrOhY2m5SpcAoayxF3zOkIOt7L
NX0QqHuomOyGLHMnAhNALgS2vhDXD0hhs96ZcKaystlMePpYsVRyaYa53GwMrGHi
LwFxH5qQNClCcktAP++wCcdQXzTyZOn9/GNdmquW1PNMLPCEfqlnzWawdpITr+CY
MXa9R5BEMmdX19F41HcoPRn9/X2uHW/ONmBywTwJ3s0U8F5HF21buZtxVDvX4ey+
qINBru4MiGwgRCsklS9kDbl3ODUox0lwhs2VgQzqjALF4xYgsdN2LJezrwAiL8GM
RAenmX9eDdgzMGnjKFT6yW8BCrPsyUnM15RAou3BrwIp6oxXHnR8wbeKG7pzZZY1
J4zk4yYyihwxguWbUZGksJsNAQoNdNHBZtc8a7Oj5onLyUIetd7ELXxdk8uy7WVF
eye5V8qJRhWrFyhWWFscQeY8GktefXiGEh6fxGfRU5R5b0PznxfMiA3olad3s17d
r+jzqCM/hcY2FmUTjYrSrAyrhHdmCYIJ3US71If74UeMs6NZnQRRiu3tbAX+TiDO
HsEHEIOHldbyQqFfclyiC26fHTqcNfIAxXPmPDQ1jpEmhRjFDlOWHoSnzsGZi/wa
1kmSb6+2uHgUP/C/O2oi+yAk8GpwpEi8Sgv+HH/p7z0ympQK8IUOG/4K3/urdto=
-----END CERTIFICATE-----
