Certificate:
    Data:
        Version: 3 (0x2)
        Serial Number:
            25:40:06:01:7a:71:1e:c5:35:4b:cd:8b:72:72:12:82:04:eb:65:87
    Signature Algorithm: ecdsa-with-SHA256
        Issuer: C = SI, O = "NIJZ, National Institute of Public Health of Slovenia", OU = NIJZ eHealth, CN = Slovenian Digital Covid Certificate CSCA
        Validity
            Not Before: Jun  4 07:53:33 2021 GMT
            Not After : Jun  4 07:53:33 2023 GMT
        Subject: C = SI, O = "NIJZ, National Institute of Public Health of Slovenia", OU = NIJZ eHealth, CN = Slovenian Digital Covid Certificate Signer
        Subject Public Key Info:
            Public Key Algorithm: id-ecPublicKey
                Public-Key: (256 bit)
                pub:
                    04:12:6c:44:83:68:85:0d:aa:25:f4:35:67:ae:a2:
                    18:e7:39:0f:5e:b0:40:35:09:5a:92:65:1f:ac:18:
                    68:81:a0:c2:d9:96:7b:7e:44:36:21:c3:89:80:41:
                    78:ad:04:b2:6f:7e:20:e6:30:f0:f3:c8:3b:41:a2:
                    24:9d:a2:ca:33
                ASN1 OID: prime256v1
                NIST CURVE: P-256
        X509v3 extensions:
            X509v3 Key Usage: critical
                Digital Signature
            X509v3 Subject Key Identifier: 
                84:1F:7E:63:01:A1:F7:3F:D9:D8:01:40:7A:42:0D:5B:D0:2A:CC:CC
            X509v3 Authority Key Identifier: 
                keyid:D6:ED:0D:93:14:75:74:97:91:F6:38:7A:A5:9D:38:2A:CB:D1:15:5F

            X509v3 Extended Key Usage: 
                1.3.6.1.4.1.0.1847.2021.1.1, 1.3.6.1.4.1.0.1847.2021.1.2, 1.3.6.1.4.1.0.1847.2021.1.3
            X509v3 Private Key Usage Period: 
                Not Before: May 28 10:00:00 2021 GMT, Not After: May 28 10:00:00 2022 GMT
    Signature Algorithm: ecdsa-with-SHA256
         30:45:02:21:00:80:3d:36:10:a5:99:84:35:1b:94:dd:60:79:
         88:4e:47:c5:18:bd:bc:f5:90:a7:27:70:fc:ea:e1:8e:d2:81:
         2d:02:20:4b:1b:8c:16:83:c3:cb:d6:0e:a5:ec:6c:38:3b:81:
         c9:1d:2b:a4:ae:17:5e:b0:f5:4b:eb:fe:97:84:c6:8c:f2
-----BEGIN CERTIFICATE-----
MIIC6jCCApCgAwIBAgIUJUAGAXpxHsU1S82LcnISggTrZYcwCgYIKoZIzj0EAwIw
gZcxCzAJBgNVBAYTAlNJMT4wPAYDVQQKDDVOSUpaLCBOYXRpb25hbCBJbnN0aXR1
dGUgb2YgUHVibGljIEhlYWx0aCBvZiBTbG92ZW5pYTEVMBMGA1UECwwMTklKWiBl
SGVhbHRoMTEwLwYDVQQDDChTbG92ZW5pYW4gRGlnaXRhbCBDb3ZpZCBDZXJ0aWZp
Y2F0ZSBDU0NBMB4XDTIxMDYwNDA3NTMzM1oXDTIzMDYwNDA3NTMzM1owgZkxCzAJ
BgNVBAYTAlNJMT4wPAYDVQQKDDVOSUpaLCBOYXRpb25hbCBJbnN0aXR1dGUgb2Yg
UHVibGljIEhlYWx0aCBvZiBTbG92ZW5pYTEVMBMGA1UECwwMTklKWiBlSGVhbHRo
MTMwMQYDVQQDDCpTbG92ZW5pYW4gRGlnaXRhbCBDb3ZpZCBDZXJ0aWZpY2F0ZSBT
aWduZXIwWTATBgcqhkjOPQIBBggqhkjOPQMBBwNCAAQSbESDaIUNqiX0NWeuohjn
OQ9esEA1CVqSZR+sGGiBoMLZlnt+RDYhw4mAQXitBLJvfiDmMPDzyDtBoiSdosoz
o4G1MIGyMA4GA1UdDwEB/wQEAwIHgDAdBgNVHQ4EFgQUhB9+YwGh9z/Z2AFAekIN
W9AqzMwwHwYDVR0jBBgwFoAU1u0NkxR1dJeR9jh6pZ04KsvRFV8wMwYDVR0lBCww
KgYMKwYBBAEAjjePZQEBBgwrBgEEAQCON49lAQIGDCsGAQQBAI43j2UBAzArBgNV
HRAEJDAigA8yMDIxMDUyODEwMDAwMFqBDzIwMjIwNTI4MTAwMDAwWjAKBggqhkjO
PQQDAgNIADBFAiEAgD02EKWZhDUblN1geYhOR8UYvbz1kKcncPzq4Y7SgS0CIEsb
jBaDw8vWDqXsbDg7gckdK6SuF16w9Uvr/peExozy
-----END CERTIFICATE-----
