Certificate:
    Data:
        Version: 3 (0x2)
        Serial Number:
            48:ae:1b:99:ee:f3:89:ab:bf:25:99:0c:f3:42:0e:2c:cf:22:6a:eb
    Signature Algorithm: ecdsa-with-SHA256
        Issuer: CN = CSCA Health NL, serialNumber = 1, OU = Ministry of Health Welfare and Sport, O = Kingdom of the Netherlands, C = NL
        Validity
            Not Before: May 31 14:14:00 2021 GMT
            Not After : May 28 14:14:00 2032 GMT
        Subject: C = NL, O = Kingdom of the Netherlands, OU = Ministry of Health Welfare and Sport, serialNumber = 1, CN = Health DSC for recovery
        Subject Public Key Info:
            Public Key Algorithm: id-ecPublicKey
                Public-Key: (256 bit)
                pub:
                    04:89:8f:80:19:15:ad:77:cb:42:51:be:4f:41:d1:
                    0f:68:25:80:66:5d:03:fd:22:0e:b5:c0:c7:f1:1f:
                    32:ae:9f:c9:4f:c3:26:33:15:7f:c0:cd:79:5a:26:
                    5f:d3:d1:32:cb:78:89:5f:01:53:fb:d6:0e:0b:2a:
                    c1:03:f0:9e:8e
                ASN1 OID: prime256v1
                NIST CURVE: P-256
        X509v3 extensions:
            2.23.136.1.1.6.2: 
                0....1...H
            X509v3 Authority Key Identifier: 
                keyid:22:4D:F8:C3:8D:29:73:53:83:77:86:9A:F7:52:C1:1A:EC:A1:A1:1F

            X509v3 Issuer Alternative Name: 
                DirName:/L=NLD
            X509v3 Subject Alternative Name: 
                DirName:/L=NLD
            X509v3 Extended Key Usage: 
                1.3.6.1.4.1.0.1847.2021.1.3
            X509v3 CRL Distribution Points: 

                Full Name:
                  URI:http://crl.npkd.nl/CRLs/NL-Health.crl

            X509v3 Subject Key Identifier: 
                EF:49:00:D2:84:72:7B:67:E2:84:C9:82:D7:21:E3:CA:EA:49:93:29
            X509v3 Private Key Usage Period: 
                Not Before: May 31 14:14:00 2021 GMT, Not After: Dec 27 14:14:00 2021 GMT
            X509v3 Key Usage: critical
                Digital Signature
    Signature Algorithm: ecdsa-with-SHA256
         30:44:02:20:3d:4b:37:59:47:e7:4d:fb:24:3c:fa:55:0a:cc:
         50:94:97:b9:e8:27:a6:33:07:8f:73:56:c7:58:06:c5:c9:6d:
         02:20:16:f8:9f:91:7f:b5:d8:86:f7:4a:c7:42:6f:d4:c6:93:
         34:2d:0f:86:71:08:ba:f1:d5:3d:32:72:c3:70:89:45
-----BEGIN CERTIFICATE-----
MIIDPTCCAuSgAwIBAgIUSK4bme7ziau/JZkM80IOLM8iauswCgYIKoZIzj0EAwIw
gYYxFzAVBgNVBAMMDkNTQ0EgSGVhbHRoIE5MMQowCAYDVQQFEwExMS0wKwYDVQQL
DCRNaW5pc3RyeSBvZiBIZWFsdGggV2VsZmFyZSBhbmQgU3BvcnQxIzAhBgNVBAoM
Gktpbmdkb20gb2YgdGhlIE5ldGhlcmxhbmRzMQswCQYDVQQGEwJOTDAeFw0yMTA1
MzExNDE0MDBaFw0zMjA1MjgxNDE0MDBaMIGPMQswCQYDVQQGEwJOTDEjMCEGA1UE
CgwaS2luZ2RvbSBvZiB0aGUgTmV0aGVybGFuZHMxLTArBgNVBAsMJE1pbmlzdHJ5
IG9mIEhlYWx0aCBXZWxmYXJlIGFuZCBTcG9ydDEKMAgGA1UEBRMBMTEgMB4GA1UE
AwwXSGVhbHRoIERTQyBmb3IgcmVjb3ZlcnkwWTATBgcqhkjOPQIBBggqhkjOPQMB
BwNCAASJj4AZFa13y0JRvk9B0Q9oJYBmXQP9Ig61wMfxHzKun8lPwyYzFX/AzXla
Jl/T0TLLeIlfAVP71g4LKsED8J6Oo4IBIzCCAR8wFQYHZ4EIAQEGAgQKMAgCAQAx
AxMBSDAfBgNVHSMEGDAWgBQiTfjDjSlzU4N3hpr3UsEa7KGhHzAbBgNVHRIEFDAS
pBAwDjEMMAoGA1UEBwwDTkxEMBsGA1UdEQQUMBKkEDAOMQwwCgYDVQQHDANOTEQw
FwYDVR0lBBAwDgYMKwYBBAEAjjePZQEDMDYGA1UdHwQvMC0wK6ApoCeGJWh0dHA6
Ly9jcmwubnBrZC5ubC9DUkxzL05MLUhlYWx0aC5jcmwwHQYDVR0OBBYEFO9JANKE
cntn4oTJgtch48rqSZMpMCsGA1UdEAQkMCKADzIwMjEwNTMxMTQxNDAwWoEPMjAy
MTEyMjcxNDE0MDBaMA4GA1UdDwEB/wQEAwIHgDAKBggqhkjOPQQDAgNHADBEAiA9
SzdZR+dN+yQ8+lUKzFCUl7noJ6YzB49zVsdYBsXJbQIgFvifkX+12Ib3SsdCb9TG
kzQtD4ZxCLrx1T0ycsNwiUU=
-----END CERTIFICATE-----
