Certificate:
    Data:
        Version: 3 (0x2)
        Serial Number:
            1c:ef:bb:cc:77:1d:4c:71:36
    Signature Algorithm: ecdsa-with-SHA256
        Issuer: CN = EADTrust ECC 256 SubCA For Qualified Certificates 2019, O = "European Agency of Digital Trust, S.L.", C = ES, 2.5.4.97 = VATES-B85626240, OU = Legal Person
        Validity
            Not Before: May 28 14:45:00 2021 GMT
            Not After : May 28 14:45:00 2023 GMT
        Subject: CN = ConselleriadeSanidade.XuntadeGalicia, serialNumber = S1511001H, OU = SELLO ELECTRONICO, 2.5.4.97 = VATES-S1511001H, O = Conseller\C3\ADa de Sanidad, C = ES
        Subject Public Key Info:
            Public Key Algorithm: id-ecPublicKey
                Public-Key: (256 bit)
                pub:
                    04:78:2e:be:ce:69:e3:81:d0:14:99:81:b8:90:83:
                    c9:b0:cc:12:15:22:5c:95:8a:0a:b8:72:9c:21:0e:
                    4f:a5:7e:31:2b:23:37:e8:6a:76:7e:42:af:01:16:
                    f2:25:88:dd:b9:4f:09:cc:ef:67:ad:22:0b:57:18:
                    ee:29:16:a9:17
                ASN1 OID: prime256v1
                NIST CURVE: P-256
        X509v3 extensions:
            X509v3 Basic Constraints: critical
                CA:FALSE
            X509v3 Authority Key Identifier: 
                keyid:D3:4C:6C:3A:BD:36:FE:70:87:23:87:3A:EE:3D:90:CF:CB:9B:F7:21

            Authority Information Access: 
                CA Issuers - URI:http://ca.eadtrust.eu/eadtrust-subca-ecc256eadlp2019.crt
                OCSP - URI:http://ocsp.eadtrust.eu

            X509v3 Issuer Alternative Name: 
                email:ca@eadtrust.eu, URI:http://www.eadtrust.eu, URI:http://ca.eadtrust.eu, URI:http://policy.eadtrust.eu
            X509v3 Subject Alternative Name: 
                DirName:/2.16.724.1.3.5.6.2.1=SELLO ELECTRONICO DE NIVEL MEDIO/2.16.724.1.3.5.6.2.2=Conseller\xC3\xADa de Sanidad/2.16.724.1.3.5.6.2.3=S1511001H
            X509v3 Certificate Policies: 
                Policy: 2.16.724.1.3.5.6.2
                Policy: 0.4.0.194112.1.1
                  User Notice:
                    Explicit Text: European Telecommunications Standards Institute. eIDAS European Regulation Compliant
                Policy: 1.3.6.1.4.1.501.2.1.1.0.41233
                  CPS: http://policy.eadtrust.eu
                  User Notice:
                    Explicit Text: Certificado cualificado de sello electrónico de Administración, órgano o entidad de derecho público, nivel Medio/Sustancial. Consulte las condiciones de uso en http://policy.eadtrust.eu

            X509v3 Extended Key Usage: 
                TLS Web Client Authentication, E-mail Protection
            qcStatements: 
                0..0...+.......0.......I..0......F..0......F.....0......F..0......F...0l.....F..0b00.*https://eadtrust.eu/en/documents-in-force/..en0..(https://eadtrust.eu/documentos-vigentes/..es
            X509v3 CRL Distribution Points: 

                Full Name:
                  URI:http://crl.eadtrust.eu/eadtrust-subca-ecc256eadlp2019.crl

            X509v3 Subject Key Identifier: 
                2E:CB:86:C1:42:06:B3:1F:22:8F:E5:39:4F:C8:5A:28:2A:F3:88:0C
            X509v3 Key Usage: critical
                Digital Signature, Non Repudiation, Key Encipherment
    Signature Algorithm: ecdsa-with-SHA256
         30:44:02:20:04:c5:dd:a2:a3:cf:cc:c7:00:83:7a:e1:65:51:
         8c:64:ba:0e:1d:6b:f7:01:56:74:c4:43:6b:40:8e:41:fe:98:
         02:20:36:8d:94:40:c3:ca:84:ad:2d:a5:c6:e0:11:6b:94:ff:
         7d:90:7d:10:4c:d7:e9:75:78:30:c6:98:cf:a4:4a:7a
-----BEGIN CERTIFICATE-----
MIIG4jCCBomgAwIBAgIJHO+7zHcdTHE2MAoGCCqGSM49BAMCMIGwMT8wPQYDVQQD
DDZFQURUcnVzdCBFQ0MgMjU2IFN1YkNBIEZvciBRdWFsaWZpZWQgQ2VydGlmaWNh
dGVzIDIwMTkxLzAtBgNVBAoMJkV1cm9wZWFuIEFnZW5jeSBvZiBEaWdpdGFsIFRy
dXN0LCBTLkwuMQswCQYDVQQGEwJFUzEYMBYGA1UEYQwPVkFURVMtQjg1NjI2MjQw
MRUwEwYDVQQLDAxMZWdhbCBQZXJzb24wHhcNMjEwNTI4MTQ0NTAwWhcNMjMwNTI4
MTQ0NTAwWjCBqDEtMCsGA1UEAwwkQ29uc2VsbGVyaWFkZVNhbmlkYWRlLlh1bnRh
ZGVHYWxpY2lhMRIwEAYDVQQFEwlTMTUxMTAwMUgxGjAYBgNVBAsMEVNFTExPIEVM
RUNUUk9OSUNPMRgwFgYDVQRhDA9WQVRFUy1TMTUxMTAwMUgxIDAeBgNVBAoMF0Nv
bnNlbGxlcsOtYSBkZSBTYW5pZGFkMQswCQYDVQQGEwJFUzBZMBMGByqGSM49AgEG
CCqGSM49AwEHA0IABHguvs5p44HQFJmBuJCDybDMEhUiXJWKCrhynCEOT6V+MSsj
N+hqdn5CrwEW8iWI3blPCczvZ60iC1cY7ikWqRejggSQMIIEjDAMBgNVHRMBAf8E
AjAAMB8GA1UdIwQYMBaAFNNMbDq9Nv5whyOHOu49kM/Lm/chMHkGCCsGAQUFBwEB
BG0wazBEBggrBgEFBQcwAoY4aHR0cDovL2NhLmVhZHRydXN0LmV1L2VhZHRydXN0
LXN1YmNhLWVjYzI1NmVhZGxwMjAxOS5jcnQwIwYIKwYBBQUHMAGGF2h0dHA6Ly9v
Y3NwLmVhZHRydXN0LmV1MGMGA1UdEgRcMFqBDmNhQGVhZHRydXN0LmV1hhZodHRw
Oi8vd3d3LmVhZHRydXN0LmV1hhVodHRwOi8vY2EuZWFkdHJ1c3QuZXWGGWh0dHA6
Ly9wb2xpY3kuZWFkdHJ1c3QuZXUwgYAGA1UdEQR5MHekdTBzMS8wLQYJYIVUAQMF
BgIBDCBTRUxMTyBFTEVDVFJPTklDTyBERSBOSVZFTCBNRURJTzEmMCQGCWCFVAED
BQYCAgwXQ29uc2VsbGVyw61hIGRlIFNhbmlkYWQxGDAWBglghVQBAwUGAgMMCVMx
NTExMDAxSDCCAZgGA1UdIASCAY8wggGLMAoGCGCFVAEDBQYCMG8GBwQAi+xAAQEw
ZDBiBggrBgEFBQcCAjBWDFRFdXJvcGVhbiBUZWxlY29tbXVuaWNhdGlvbnMgU3Rh
bmRhcmRzIEluc3RpdHV0ZS4gZUlEQVMgRXVyb3BlYW4gUmVndWxhdGlvbiBDb21w
bGlhbnQwggEKBg4rBgEEAYN1AgEBAILCETCB9zAlBggrBgEFBQcCARYZaHR0cDov
L3BvbGljeS5lYWR0cnVzdC5ldTCBzQYIKwYBBQUHAgIwgcAMgb1DZXJ0aWZpY2Fk
byBjdWFsaWZpY2FkbyBkZSBzZWxsbyBlbGVjdHLDs25pY28gZGUgQWRtaW5pc3Ry
YWNpw7NuLCDDs3JnYW5vIG8gZW50aWRhZCBkZSBkZXJlY2hvIHDDumJsaWNvLCBu
aXZlbCBNZWRpby9TdXN0YW5jaWFsLiBDb25zdWx0ZSBsYXMgY29uZGljaW9uZXMg
ZGUgdXNvIGVuIGh0dHA6Ly9wb2xpY3kuZWFkdHJ1c3QuZXUwHQYDVR0lBBYwFAYI
KwYBBQUHAwIGCCsGAQUFBwMEMIHBBggrBgEFBQcBAwSBtDCBsTAVBggrBgEFBQcL
AjAJBgcEAIvsSQECMAgGBgQAjkYBATALBgYEAI5GAQMCAQ8wEwYGBACORgEGMAkG
BwQAjkYBBgIwbAYGBACORgEFMGIwMBYqaHR0cHM6Ly9lYWR0cnVzdC5ldS9lbi9k
b2N1bWVudHMtaW4tZm9yY2UvEwJlbjAuFihodHRwczovL2VhZHRydXN0LmV1L2Rv
Y3VtZW50b3MtdmlnZW50ZXMvEwJlczBKBgNVHR8EQzBBMD+gPaA7hjlodHRwOi8v
Y3JsLmVhZHRydXN0LmV1L2VhZHRydXN0LXN1YmNhLWVjYzI1NmVhZGxwMjAxOS5j
cmwwHQYDVR0OBBYEFC7LhsFCBrMfIo/lOU/IWigq84gMMA4GA1UdDwEB/wQEAwIF
4DAKBggqhkjOPQQDAgNHADBEAiAExd2io8/MxwCDeuFlUYxkug4da/cBVnTEQ2tA
jkH+mAIgNo2UQMPKhK0tpcbgEWuU/32QfRBM1+l1eDDGmM+kSno=
-----END CERTIFICATE-----
