Certificate:
    Data:
        Version: 3 (0x2)
        Serial Number:
            6d:cb:6f:97:9b:85:74:5c:9f:c9:99:59:e1:ba:37:72
    Signature Algorithm: rsassaPss
         Hash Algorithm: sha512
         Mask Algorithm: mgf1 with sha512
         Salt Length: 0x40
         Trailer Field: 0xBC (default)
        Issuer: C = DE, O = D-Trust GmbH, CN = D-TRUST CA 2-2 2019, 2.5.4.97 = NTRDE-HRB74346
        Validity
            Not Before: Jun  3 10:48:03 2021 GMT
            Not After : Jun  7 10:48:03 2023 GMT
        Subject: C = DE, O = Robert Koch-Institut, OU = Elektronischer Impfnachweis, CN = Robert Koch-Institut, L = Berlin, postalCode = 13353, street = Nordufer 20, 2.5.4.97 = DT:DE-3023531445, serialNumber = CSM026382913, ST = Berlin
        Subject Public Key Info:
            Public Key Algorithm: id-ecPublicKey
                Public-Key: (256 bit)
                pub:
                    04:28:fb:86:00:9b:03:2c:f5:3b:bf:0e:1a:0e:0e:
                    76:9c:5c:6e:c7:3d:c0:b0:9b:56:52:6b:6c:63:bb:
                    50:7a:0c:02:55:f9:65:f9:ee:6c:40:9b:ba:cb:90:
                    99:9c:e0:fe:80:a7:4c:29:f9:e3:b8:1e:f5:f7:3f:
                    ed:17:da:81:f6
                ASN1 OID: prime256v1
                NIST CURVE: P-256
        X509v3 extensions:
            X509v3 Authority Key Identifier: 
                keyid:71:10:32:AE:74:71:7B:54:8E:F1:D6:AB:62:54:AE:FC:3E:C0:BB:16

            qcStatements: 
                0.0......F..0......F..0......F...
            Authority Information Access: 
                OCSP - URI:http://d-trust-ca-2-2-2019.ocsp.d-trust.net
                CA Issuers - URI:http://www.d-trust.net/cgi-bin/D-TRUST_CA_2-2_2019.crt
                CA Issuers - URI:ldap://directory.d-trust.net/CN=D-TRUST%20CA%202-2%202019,O=D-Trust%20GmbH,C=DE?cACertificate?base?

            X509v3 Certificate Policies: 
                Policy: 0.4.0.194112.1.1
                Policy: 1.3.6.1.4.1.4788.2.150.5
                  CPS: http://www.d-trust.net/internet/files/D-TRUST_CSM_PKI_CPS.pdf

            X509v3 CRL Distribution Points: 

                Full Name:
                  URI:ldap://directory.d-trust.net/CN=D-TRUST%20CA%202-2%202019,O=D-Trust%20GmbH,C=DE?certificaterevocationlist
                  URI:http://crl.d-trust.net/crl/d-trust_ca_2-2_2019.crl
                  URI:http://cdn.d-trust-cloudcrl.net/crl/d-trust_ca_2-2_2019.crl

            X509v3 Subject Key Identifier: 
                56:2E:A9:CB:C5:04:63:BE:0B:51:45:3B:F7:DE:06:15:1A:92:F4:71
            X509v3 Key Usage: critical
                Digital Signature, Non Repudiation
    Signature Algorithm: rsassaPss
         Hash Algorithm: sha512
         Mask Algorithm: mgf1 with sha512
         Salt Length: 0x40
         Trailer Field: 0xBC (default)

         16:8c:3e:df:c3:70:11:8c:50:0c:dd:32:85:a5:08:2a:0e:76:
         44:fa:53:7c:bd:b7:88:6e:d6:f4:c9:42:35:a8:65:eb:77:21:
         d3:c2:33:07:e2:d8:dd:87:60:b1:1e:0c:47:f1:84:32:bb:6a:
         2c:d8:0b:75:98:69:49:a2:0e:05:e6:7f:67:ff:3a:d7:27:51:
         d1:2d:e1:6b:bc:34:e3:34:ee:c3:da:a8:33:e4:68:31:57:76:
         eb:24:f8:52:8a:18:ca:53:20:ca:da:a6:42:4e:24:7c:9c:61:
         22:cf:09:55:93:e4:70:0e:d4:63:69:e4:a7:c8:65:3a:32:03:
         81:35:e0:8f:64:c0:d0:8a:72:02:c3:d0:04:14:7f:83:c9:ed:
         95:7a:93:28:dd:29:5c:ae:23:4c:dc:7c:27:da:0a:f4:b6:c5:
         2e:b5:ec:6b:78:0e:59:ea:a4:6c:c1:30:6b:83:5e:e1:58:b9:
         b7:e8:8a:09:ca:ac:6f:89:9d:4f:20:28:49:0b:e9:84:d0:9d:
         06:26:90:4b:55:19:ea:b0:15:23:b8:63:2c:cb:f4:c0:b6:ce:
         03:d9:e1:3f:94:2e:be:69:b9:e3:3c:f6:d6:77:d0:71:7c:60:
         1c:96:84:51:a7:9a:c7:f6:3a:9e:d7:b4:3d:aa:ed:ed:4d:1a:
         a0:44:f4:37:06:da:a0:3c:2f:97:a6:b0:ab:d1:f7:8b:db:76:
         5e:5d:82:77:55:04:34:68:8d:c2:93:fe:0e:bd:2c:90:35:fd:
         0f:59:b2:4e:12:4b:1b:b4:ce:14:c9:d4:8d:c2:5f:ef:3d:4a:
         66:a9:93:42:20:de:66:aa:ae:cb:22:eb:03:75:77:f3:db:50:
         de:a6:75:ec:2f:c0:a4:9a:98:3a:dd:dd:a3:f6:56:c7:c9:7a:
         bf:03:51:3d:4d:f2:39:a1:73:ef:54:ba:96:a5:a0:e5:15:ed:
         3a:ef:58:bc:7e:1b:cf:75:41:58:e9:09:2b:d2:08:e3:4a:41:
         68:e5:c9:eb:0e:d3:9b:94:21:6b:c8:3f:f4:3b:55:05:48:01:
         75:dc:3b:6a:5c:38:df:29:0b:e0:ab:b3:cb:85:a5:da:ab:fc:
         5b:ca:4e:39:24:d2:c6:9f:e2:bf:8c:bf:fe:78:be:7a:69:e1:
         ac:fa:fa:10:c1:40:f1:4e:e3:e3:2e:e5:a4:6b:3d:0b:a7:41:
         4e:fc:b3:19:cc:a5:71:e3:32:a8:2d:5a:9c:93:95:42:26:d0:
         38:38:0a:4c:81:a8:f4:a7:c1:d1:97:44:a3:d5:f4:73:13:bc:
         ad:9a:79:b5:3c:99:ae:bd:ee:9b:12:b0:03:3a:fe:44:df:ea:
         da:24:83:e8:85:30:99:3a
-----BEGIN CERTIFICATE-----
MIIHUTCCBQmgAwIBAgIQbctvl5uFdFyfyZlZ4bo3cjA9BgkqhkiG9w0BAQowMKAN
MAsGCWCGSAFlAwQCA6EaMBgGCSqGSIb3DQEBCDALBglghkgBZQMEAgOiAwIBQDBb
MQswCQYDVQQGEwJERTEVMBMGA1UEChMMRC1UcnVzdCBHbWJIMRwwGgYDVQQDExNE
LVRSVVNUIENBIDItMiAyMDE5MRcwFQYDVQRhEw5OVFJERS1IUkI3NDM0NjAeFw0y
MTA2MDMxMDQ4MDNaFw0yMzA2MDcxMDQ4MDNaMIHrMQswCQYDVQQGEwJERTEdMBsG
A1UEChMUUm9iZXJ0IEtvY2gtSW5zdGl0dXQxJDAiBgNVBAsTG0VsZWt0cm9uaXNj
aGVyIEltcGZuYWNod2VpczEdMBsGA1UEAxMUUm9iZXJ0IEtvY2gtSW5zdGl0dXQx
DzANBgNVBAcTBkJlcmxpbjEOMAwGA1UEEQwFMTMzNTMxFDASBgNVBAkTC05vcmR1
ZmVyIDIwMRkwFwYDVQRhExBEVDpERS0zMDIzNTMxNDQ1MRUwEwYDVQQFEwxDU00w
MjYzODI5MTMxDzANBgNVBAgTBkJlcmxpbjBZMBMGByqGSM49AgEGCCqGSM49AwEH
A0IABCj7hgCbAyz1O78OGg4Odpxcbsc9wLCbVlJrbGO7UHoMAlX5ZfnubECbusuQ
mZzg/oCnTCn547ge9fc/7RfagfajggLpMIIC5TAfBgNVHSMEGDAWgBRxEDKudHF7
VI7x1qtiVK78PsC7FjAtBggrBgEFBQcBAwQhMB8wCAYGBACORgEBMBMGBgQAjkYB
BjAJBgcEAI5GAQYCMIH+BggrBgEFBQcBAQSB8TCB7jA3BggrBgEFBQcwAYYraHR0
cDovL2QtdHJ1c3QtY2EtMi0yLTIwMTkub2NzcC5kLXRydXN0Lm5ldDBCBggrBgEF
BQcwAoY2aHR0cDovL3d3dy5kLXRydXN0Lm5ldC9jZ2ktYmluL0QtVFJVU1RfQ0Ff
Mi0yXzIwMTkuY3J0MG8GCCsGAQUFBzAChmNsZGFwOi8vZGlyZWN0b3J5LmQtdHJ1
c3QubmV0L0NOPUQtVFJVU1QlMjBDQSUyMDItMiUyMDIwMTksTz1ELVRydXN0JTIw
R21iSCxDPURFP2NBQ2VydGlmaWNhdGU/YmFzZT8wcAYDVR0gBGkwZzAJBgcEAIvs
QAEBMFoGCysGAQQBpTQCgRYFMEswSQYIKwYBBQUHAgEWPWh0dHA6Ly93d3cuZC10
cnVzdC5uZXQvaW50ZXJuZXQvZmlsZXMvRC1UUlVTVF9DU01fUEtJX0NQUy5wZGYw
gfAGA1UdHwSB6DCB5TCB4qCB36CB3IZpbGRhcDovL2RpcmVjdG9yeS5kLXRydXN0
Lm5ldC9DTj1ELVRSVVNUJTIwQ0ElMjAyLTIlMjAyMDE5LE89RC1UcnVzdCUyMEdt
YkgsQz1ERT9jZXJ0aWZpY2F0ZXJldm9jYXRpb25saXN0hjJodHRwOi8vY3JsLmQt
dHJ1c3QubmV0L2NybC9kLXRydXN0X2NhXzItMl8yMDE5LmNybIY7aHR0cDovL2Nk
bi5kLXRydXN0LWNsb3VkY3JsLm5ldC9jcmwvZC10cnVzdF9jYV8yLTJfMjAxOS5j
cmwwHQYDVR0OBBYEFFYuqcvFBGO+C1FFO/feBhUakvRxMA4GA1UdDwEB/wQEAwIG
wDA9BgkqhkiG9w0BAQowMKANMAsGCWCGSAFlAwQCA6EaMBgGCSqGSIb3DQEBCDAL
BglghkgBZQMEAgOiAwIBQAOCAgEAFow+38NwEYxQDN0yhaUIKg52RPpTfL23iG7W
9MlCNahl63ch08IzB+LY3YdgsR4MR/GEMrtqLNgLdZhpSaIOBeZ/Z/861ydR0S3h
a7w04zTuw9qoM+RoMVd26yT4UooYylMgytqmQk4kfJxhIs8JVZPkcA7UY2nkp8hl
OjIDgTXgj2TA0IpyAsPQBBR/g8ntlXqTKN0pXK4jTNx8J9oK9LbFLrXsa3gOWeqk
bMEwa4Ne4Vi5t+iKCcqsb4mdTyAoSQvphNCdBiaQS1UZ6rAVI7hjLMv0wLbOA9nh
P5Quvmm54zz21nfQcXxgHJaEUaeax/Y6nte0Part7U0aoET0NwbaoDwvl6awq9H3
i9t2Xl2Cd1UENGiNwpP+Dr0skDX9D1myThJLG7TOFMnUjcJf7z1KZqmTQiDeZqqu
yyLrA3V389tQ3qZ17C/ApJqYOt3do/ZWx8l6vwNRPU3yOaFz71S6lqWg5RXtOu9Y
vH4bz3VBWOkJK9II40pBaOXJ6w7Tm5Qha8g/9DtVBUgBddw7alw43ykL4Kuzy4Wl
2qv8W8pOOSTSxp/iv4y//ni+emnhrPr6EMFA8U7j4y7lpGs9C6dBTvyzGcylceMy
qC1anJOVQibQODgKTIGo9KfB0ZdEo9X0cxO8rZp5tTyZrr3umxKwAzr+RN/q2iSD
6IUwmTo=
-----END CERTIFICATE-----
