Certificate:
    Data:
        Version: 3 (0x2)
        Serial Number:
            52:83:e6:b4:bf:37:44:c5:a2
    Signature Algorithm: ecdsa-with-SHA256
        Issuer: CN = EADTrust ECC 256 SubCA For Qualified Certificates 2019, O = "European Agency of Digital Trust, S.L.", C = ES, 2.5.4.97 = VATES-B85626240, OU = Legal Person
        Validity
            Not Before: May 25 12:40:00 2021 GMT
            Not After : May 25 12:40:00 2023 GMT
        Subject: CN = SESCAM Certificado Digital COVID UE, serialNumber = Q4500146H, OU = SELLO ELECTRONICO, 2.5.4.97 = VATES- Q4500146H, O = Servicio de Salud de Castilla-La Mancha, C = ES
        Subject Public Key Info:
            Public Key Algorithm: id-ecPublicKey
                Public-Key: (256 bit)
                pub:
                    04:0e:f0:ae:38:2e:8d:95:00:9a:2f:5f:3e:08:49:
                    f8:b1:b8:c2:dc:d3:67:37:88:c1:02:66:68:ea:5a:
                    c6:5d:b8:c8:7c:04:37:61:69:97:73:78:2a:2e:74:
                    85:ab:ce:04:11:5e:be:d8:f1:72:f7:2c:8b:82:ae:
                    09:98:50:1f:0c
                ASN1 OID: prime256v1
                NIST CURVE: P-256
        X509v3 extensions:
            X509v3 Basic Constraints: critical
                CA:FALSE
            X509v3 Authority Key Identifier: 
                keyid:D3:4C:6C:3A:BD:36:FE:70:87:23:87:3A:EE:3D:90:CF:CB:9B:F7:21

            Authority Information Access: 
                CA Issuers - URI:http://ca.eadtrust.eu/eadtrust-subca-ecc256eadlp2019.crt
                OCSP - URI:http://ocsp.eadtrust.eu

            X509v3 Issuer Alternative Name: 
                email:ca@eadtrust.eu, URI:http://www.eadtrust.eu, URI:http://ca.eadtrust.eu, URI:http://policy.eadtrust.eu
            X509v3 Subject Alternative Name: 
                DirName:/2.16.724.1.3.5.6.2.1=SELLO ELECTRONICO DE NIVEL MEDIO/2.16.724.1.3.5.6.2.2=Servicio de Salud de Castilla-La Mancha/2.16.724.1.3.5.6.2.3=Q4500146H
            X509v3 Certificate Policies: 
                Policy: 2.16.724.1.3.5.6.2
                Policy: 0.4.0.194112.1.1
                  User Notice:
                    Explicit Text: European Telecommunications Standards Institute. eIDAS European Regulation Compliant
                Policy: 1.3.6.1.4.1.501.2.1.1.0.41233
                  CPS: http://policy.eadtrust.eu
                  User Notice:
                    Explicit Text: Certificado cualificado de sello electrónico de Administración, órgano o entidad de derecho público, nivel Medio/Sustancial. Consulte las condiciones de uso en http://policy.eadtrust.eu

            X509v3 Extended Key Usage: 
                TLS Web Client Authentication, E-mail Protection
            qcStatements: 
                0..0...+.......0.......I..0......F..0......F.....0......F..0......F...0l.....F..0b00.*https://eadtrust.eu/en/documents-in-force/..en0..(https://eadtrust.eu/documentos-vigentes/..es
            X509v3 CRL Distribution Points: 

                Full Name:
                  URI:http://crl.eadtrust.eu/eadtrust-subca-ecc256eadlp2019.crl

            X509v3 Subject Key Identifier: 
                BB:1C:27:40:63:48:0B:67:0A:AB:C2:F9:FB:6B:C7:4D:33:39:1E:58
            X509v3 Key Usage: critical
                Digital Signature, Non Repudiation, Key Encipherment
    Signature Algorithm: ecdsa-with-SHA256
         30:45:02:21:00:b0:25:6b:05:55:58:d1:b4:bc:d3:c7:70:4a:
         c0:64:f9:a1:c0:fb:f2:58:81:21:8e:e1:4a:51:05:0e:12:89:
         a5:02:20:32:41:58:28:80:0f:54:f6:79:9a:5b:25:f1:fe:c3:
         58:44:de:0e:88:a3:98:e0:d7:d9:dd:35:80:c1:67:46:3c
-----BEGIN CERTIFICATE-----
MIIHBzCCBq2gAwIBAgIJUoPmtL83RMWiMAoGCCqGSM49BAMCMIGwMT8wPQYDVQQD
DDZFQURUcnVzdCBFQ0MgMjU2IFN1YkNBIEZvciBRdWFsaWZpZWQgQ2VydGlmaWNh
dGVzIDIwMTkxLzAtBgNVBAoMJkV1cm9wZWFuIEFnZW5jeSBvZiBEaWdpdGFsIFRy
dXN0LCBTLkwuMQswCQYDVQQGEwJFUzEYMBYGA1UEYQwPVkFURVMtQjg1NjI2MjQw
MRUwEwYDVQQLDAxMZWdhbCBQZXJzb24wHhcNMjEwNTI1MTI0MDAwWhcNMjMwNTI1
MTI0MDAwWjCBuDEsMCoGA1UEAwwjU0VTQ0FNIENlcnRpZmljYWRvIERpZ2l0YWwg
Q09WSUQgVUUxEjAQBgNVBAUTCVE0NTAwMTQ2SDEaMBgGA1UECwwRU0VMTE8gRUxF
Q1RST05JQ08xGTAXBgNVBGEMEFZBVEVTLSBRNDUwMDE0NkgxMDAuBgNVBAoMJ1Nl
cnZpY2lvIGRlIFNhbHVkIGRlIENhc3RpbGxhLUxhIE1hbmNoYTELMAkGA1UEBhMC
RVMwWTATBgcqhkjOPQIBBggqhkjOPQMBBwNCAAQO8K44Lo2VAJovXz4ISfixuMLc
02c3iMECZmjqWsZduMh8BDdhaZdzeCoudIWrzgQRXr7Y8XL3LIuCrgmYUB8Mo4IE
pDCCBKAwDAYDVR0TAQH/BAIwADAfBgNVHSMEGDAWgBTTTGw6vTb+cIcjhzruPZDP
y5v3ITB5BggrBgEFBQcBAQRtMGswRAYIKwYBBQUHMAKGOGh0dHA6Ly9jYS5lYWR0
cnVzdC5ldS9lYWR0cnVzdC1zdWJjYS1lY2MyNTZlYWRscDIwMTkuY3J0MCMGCCsG
AQUFBzABhhdodHRwOi8vb2NzcC5lYWR0cnVzdC5ldTBjBgNVHRIEXDBagQ5jYUBl
YWR0cnVzdC5ldYYWaHR0cDovL3d3dy5lYWR0cnVzdC5ldYYVaHR0cDovL2NhLmVh
ZHRydXN0LmV1hhlodHRwOi8vcG9saWN5LmVhZHRydXN0LmV1MIGUBgNVHREEgYww
gYmkgYYwgYMxLzAtBglghVQBAwUGAgEMIFNFTExPIEVMRUNUUk9OSUNPIERFIE5J
VkVMIE1FRElPMTYwNAYJYIVUAQMFBgICDCdTZXJ2aWNpbyBkZSBTYWx1ZCBkZSBD
YXN0aWxsYS1MYSBNYW5jaGExGDAWBglghVQBAwUGAgMMCVE0NTAwMTQ2SDCCAZgG
A1UdIASCAY8wggGLMAoGCGCFVAEDBQYCMG8GBwQAi+xAAQEwZDBiBggrBgEFBQcC
AjBWDFRFdXJvcGVhbiBUZWxlY29tbXVuaWNhdGlvbnMgU3RhbmRhcmRzIEluc3Rp
dHV0ZS4gZUlEQVMgRXVyb3BlYW4gUmVndWxhdGlvbiBDb21wbGlhbnQwggEKBg4r
BgEEAYN1AgEBAILCETCB9zAlBggrBgEFBQcCARYZaHR0cDovL3BvbGljeS5lYWR0
cnVzdC5ldTCBzQYIKwYBBQUHAgIwgcAMgb1DZXJ0aWZpY2FkbyBjdWFsaWZpY2Fk
byBkZSBzZWxsbyBlbGVjdHLDs25pY28gZGUgQWRtaW5pc3RyYWNpw7NuLCDDs3Jn
YW5vIG8gZW50aWRhZCBkZSBkZXJlY2hvIHDDumJsaWNvLCBuaXZlbCBNZWRpby9T
dXN0YW5jaWFsLiBDb25zdWx0ZSBsYXMgY29uZGljaW9uZXMgZGUgdXNvIGVuIGh0
dHA6Ly9wb2xpY3kuZWFkdHJ1c3QuZXUwHQYDVR0lBBYwFAYIKwYBBQUHAwIGCCsG
AQUFBwMEMIHBBggrBgEFBQcBAwSBtDCBsTAVBggrBgEFBQcLAjAJBgcEAIvsSQEC
MAgGBgQAjkYBATALBgYEAI5GAQMCAQ8wEwYGBACORgEGMAkGBwQAjkYBBgIwbAYG
BACORgEFMGIwMBYqaHR0cHM6Ly9lYWR0cnVzdC5ldS9lbi9kb2N1bWVudHMtaW4t
Zm9yY2UvEwJlbjAuFihodHRwczovL2VhZHRydXN0LmV1L2RvY3VtZW50b3Mtdmln
ZW50ZXMvEwJlczBKBgNVHR8EQzBBMD+gPaA7hjlodHRwOi8vY3JsLmVhZHRydXN0
LmV1L2VhZHRydXN0LXN1YmNhLWVjYzI1NmVhZGxwMjAxOS5jcmwwHQYDVR0OBBYE
FLscJ0BjSAtnCqvC+ftrx00zOR5YMA4GA1UdDwEB/wQEAwIF4DAKBggqhkjOPQQD
AgNIADBFAiEAsCVrBVVY0bS808dwSsBk+aHA+/JYgSGO4UpRBQ4SiaUCIDJBWCiA
D1T2eZpbJfH+w1hE3g6Io5jg19ndNYDBZ0Y8
-----END CERTIFICATE-----
