Certificate:
    Data:
        Version: 3 (0x2)
        Serial Number:
            46:57:6e:e6:bb:1f:ac:37:99:b4:30:71:ac:9f:92:ba:33:2b:d8:8b
    Signature Algorithm: sha256WithRSAEncryption
        Issuer: C = IT, O = Ministero della Salute, CN = Italy DGC CSCA 1
        Validity
            Not Before: May 12 08:18:17 2021 GMT
            Not After : May 12 08:11:59 2023 GMT
        Subject: C = IT, O = Ministero della Salute, CN = Italy DGC DSC 1
        Subject Public Key Info:
            Public Key Algorithm: id-ecPublicKey
                Public-Key: (256 bit)
                pub:
                    04:9c:bf:7e:5a:72:29:f5:fb:db:72:87:19:48:65:
                    05:95:2c:3d:7d:f5:bf:8d:b3:0e:37:37:2f:9b:55:
                    f8:73:ea:57:38:f1:2c:ec:2e:3f:f3:7f:8f:c5:2f:
                    12:c1:e6:b6:86:09:bf:b4:ab:78:3c:8d:33:f3:08:
                    27:21:e8:68:8f
                ASN1 OID: prime256v1
                NIST CURVE: P-256
        X509v3 extensions:
            X509v3 Authority Key Identifier: 
                keyid:BE:54:E5:69:5E:67:92:40:89:97:60:41:00:07:FA:4B:45:50:B0:FF

            X509v3 CRL Distribution Points: 

                Full Name:
                  URI:ldap://cads.dgc.gov.it/CN=Italy%20DGC%20CSCA%20x\1,O=Ministero%20della%20Salute,C=IT

            X509v3 Subject Key Identifier: 
                2E:1B:01:B0:AF:A4:0A:EB:81:9D:04:F9:1A:EA:4B:C5:7B:4C:D3:48
            X509v3 Key Usage: critical
                Digital Signature
    Signature Algorithm: sha256WithRSAEncryption
         8f:14:de:17:bc:a1:2b:3f:f7:3c:a6:7d:f9:67:e0:64:f6:88:
         cd:9b:e7:3b:f9:e6:b9:46:ab:b6:05:5d:df:1b:93:3c:db:5d:
         e6:db:98:44:d4:bf:d4:1e:fc:1c:d3:64:ed:f5:e2:ab:98:47:
         da:af:31:1c:5f:72:c5:8c:44:c6:8b:f6:a8:5a:df:50:c0:f9:
         1c:e6:73:60:a1:d9:72:37:16:14:d1:ef:1f:a8:f1:ee:a0:c2:
         b5:be:4f:ac:e8:12:2b:94:14:43:3c:9c:47:b3:20:58:81:62:
         9e:85:b0:b1:62:2b:03:50:09:3b:07:d4:a2:2e:ef:d5:aa:16:
         34:c2:b5:78:76:66:47:76:3d:2d:0f:38:a9:e1:36:c8:39:37:
         8e:a1:06:8e:52:55:09:b8:01:a7:b3:bc:7a:6c:f2:d8:a8:56:
         bf:72:72:45:98:13:98:5c:fb:a7:a7:91:5c:3c:d4:60:7b:49:
         6a:e7:ef:78:88:64:34:cf:d4:f2:9d:d2:ed:e8:10:7a:09:62:
         20:53:26:b9:fb:c4:c9:97:a6:0f:60:4c:bd:bf:7b:1f:d3:d0:
         a6:ec:de:33:00:7c:cd:c1:5b:b9:99:8d:97:8d:80:14:c4:36:
         3e:14:1e:db:ba:54:d3:01:6c:0c:4a:8b:7b:41:13:6f:97:91:
         dd:3f:4b:eb:37:52:ad:69:5d:c3:a5:2e:5e:86:15:d3:fe:5f:
         be:30:39:e6:a0:a3:01:a2:c9:d2:a8:b5:e8:26:bf:8e:de:a2:
         2a:ec:2c:fc:a2:a1:f7:2a:fe:16:a6:4c:9d:95:07:d8:3d:a3:
         da:2f:0b:04:0e:bb:21:ed:09:a1:93:d2:a2:3a:fc:73:04:93:
         c5:00:5d:24:52:3b:db:6b:9c:cc:28:ff:46:de:bd:63:8b:0b:
         75:5d:e1:35:0d:80:f6:11:eb:5d:eb:32:42:c9:6b:d1:ec:f7:
         50:71:f3:0d:11:4c:56:53:97:58:26:b2:8f:72:c8:82:fb:5f:
         4e:32:ab:4f:52:7e:ff:75:6e:f5:fb:ec:d7:e0:82:24:42:ee:
         0b:d8:2d:54:bc:4c:b1:d4:5c:fc:0e:bf:6e:f5:b8:98:0b:32:
         63:bf:11:39:7d:bb:06:2f:02:c4:f3:79:21:96:ed:8b:28:e9:
         99:d7:eb:d9:bb:9f:0d:cc:21:c3:37:70:b1:d4:10:0e:84:a2:
         20:5d:4b:66:a0:a7:ee:c1:c1:99:48:73:a0:f7:01:25:d5:c5:
         11:3e:7c:10:aa:30:d0:15:9c:7a:b6:73:a6:fb:15:1d:c3:13:
         13:6b:ae:01:4a:ff:25:48:75:48:1a:68:24:28:8c:21:14:a5:
         f9:73:e8:10:0d:aa:a9:85
-----BEGIN CERTIFICATE-----
MIIEDzCCAfegAwIBAgIURldu5rsfrDeZtDBxrJ+SujMr2IswDQYJKoZIhvcNAQEL
BQAwSTELMAkGA1UEBhMCSVQxHzAdBgNVBAoMFk1pbmlzdGVybyBkZWxsYSBTYWx1
dGUxGTAXBgNVBAMMEEl0YWx5IERHQyBDU0NBIDEwHhcNMjEwNTEyMDgxODE3WhcN
MjMwNTEyMDgxMTU5WjBIMQswCQYDVQQGEwJJVDEfMB0GA1UECgwWTWluaXN0ZXJv
IGRlbGxhIFNhbHV0ZTEYMBYGA1UEAwwPSXRhbHkgREdDIERTQyAxMFkwEwYHKoZI
zj0CAQYIKoZIzj0DAQcDQgAEnL9+WnIp9fvbcocZSGUFlSw9ffW/jbMONzcvm1X4
c+pXOPEs7C4/83+PxS8Swea2hgm/tKt4PI0z8wgnIehoj6OBujCBtzAfBgNVHSME
GDAWgBS+VOVpXmeSQImXYEEAB/pLRVCw/zBlBgNVHR8EXjBcMFqgWKBWhlRsZGFw
Oi8vY2Fkcy5kZ2MuZ292Lml0L0NOPUl0YWx5JTIwREdDJTIwQ1NDQSUyMHhcMSxP
PU1pbmlzdGVybyUyMGRlbGxhJTIwU2FsdXRlLEM9SVQwHQYDVR0OBBYEFC4bAbCv
pArrgZ0E+RrqS8V7TNNIMA4GA1UdDwEB/wQEAwIHgDANBgkqhkiG9w0BAQsFAAOC
AgEAjxTeF7yhKz/3PKZ9+WfgZPaIzZvnO/nmuUartgVd3xuTPNtd5tuYRNS/1B78
HNNk7fXiq5hH2q8xHF9yxYxExov2qFrfUMD5HOZzYKHZcjcWFNHvH6jx7qDCtb5P
rOgSK5QUQzycR7MgWIFinoWwsWIrA1AJOwfUoi7v1aoWNMK1eHZmR3Y9LQ84qeE2
yDk3jqEGjlJVCbgBp7O8emzy2KhWv3JyRZgTmFz7p6eRXDzUYHtJaufveIhkNM/U
8p3S7egQegliIFMmufvEyZemD2BMvb97H9PQpuzeMwB8zcFbuZmNl42AFMQ2PhQe
27pU0wFsDEqLe0ETb5eR3T9L6zdSrWldw6UuXoYV0/5fvjA55qCjAaLJ0qi16Ca/
jt6iKuws/KKh9yr+FqZMnZUH2D2j2i8LBA67Ie0JoZPSojr8cwSTxQBdJFI722uc
zCj/Rt69Y4sLdV3hNQ2A9hHrXesyQslr0ez3UHHzDRFMVlOXWCayj3LIgvtfTjKr
T1J+/3Vu9fvs1+CCJELuC9gtVLxMsdRc/A6/bvW4mAsyY78ROX27Bi8CxPN5IZbt
iyjpmdfr2bufDcwhwzdwsdQQDoSiIF1LZqCn7sHBmUhzoPcBJdXFET58EKow0BWc
erZzpvsVHcMTE2uuAUr/JUh1SBpoJCiMIRSl+XPoEA2qqYU=
-----END CERTIFICATE-----
