Certificate:
    Data:
        Version: 3 (0x2)
        Serial Number:
            f0:9d:42:44:12:27:40:34
    Signature Algorithm: sha256WithRSAEncryption
        Issuer: C = CZ, O = MZCR, CN = CZ DSC CSCA 1
        Validity
            Not Before: Jun 10 10:06:18 2021 GMT
            Not After : Jun 10 10:06:18 2023 GMT
        Subject: C = CZ, O = MZCR, CN = CZ DSC 2
        Subject Public Key Info:
            Public Key Algorithm: id-ecPublicKey
                Public-Key: (256 bit)
                pub:
                    04:f0:38:f6:93:61:18:fd:4a:a0:2a:c4:86:bc:8c:
                    0f:46:12:e2:31:ad:a4:62:6f:b2:d3:64:9a:9b:50:
                    c9:ba:c4:09:14:ea:5b:1d:a9:e5:f7:03:3d:f1:4d:
                    b1:9f:d6:2b:a4:f8:8a:09:7c:27:69:23:e2:79:7c:
                    97:ec:6b:24:3a
                ASN1 OID: prime256v1
                NIST CURVE: P-256
        X509v3 extensions:
            X509v3 Subject Key Identifier: 
                02:A3:31:37:52:84:3C:C6:7A:FF:DE:36:A9:47:1F:32:48:1D:D5:D5
            X509v3 Authority Key Identifier: 
                keyid:2F:DB:2B:C8:76:A4:4D:C2:3E:BE:2B:52:20:73:C6:34:9D:8E:A9:C7

            X509v3 Basic Constraints: 
                CA:FALSE
            X509v3 Key Usage: critical
                Digital Signature
    Signature Algorithm: sha256WithRSAEncryption
         37:77:78:8d:1d:1a:6c:29:68:9a:d5:78:85:e5:04:25:29:41:
         70:72:f0:dd:b4:09:45:85:f9:b2:f7:da:08:fb:2c:26:a6:9c:
         ac:ef:1a:1e:3a:b2:0a:6b:32:32:03:26:77:b4:d2:26:3e:47:
         1d:7b:40:11:4a:f3:26:03:3b:2b:e9:3f:c1:ab:1b:15:ef:c8:
         6d:5f:35:28:20:bc:b5:cf:a6:3c:41:9f:3e:45:77:0d:99:1e:
         fd:93:d8:aa:b9:d2:af:e6:d5:99:d9:2d:ad:89:c3:5e:a3:bf:
         16:57:aa:01:d7:ca:15:e7:f8:61:2e:59:12:fc:d4:02:e7:06:
         79:2c:96:ab:fb:01:05:d5:56:b1:92:f1:b6:1a:6a:28:68:e0:
         cf:80:f6:d1:ba:d8:d2:b5:36:a6:4a:ed:83:8a:7e:12:46:0f:
         29:21:69:72:08:cc:b4:aa:7c:d5:0c:cc:dd:61:4b:23:be:60:
         b7:9b:2c:73:1d:eb:c5:49:3b:37:ea:18:f5:6a:22:f1:69:e0:
         26:55:3b:c2:8b:7f:68:ea:cd:04:06:3c:8c:f1:89:36:58:72:
         52:f6:4e:44:92:f0:5c:25:c1:31:e3:3e:79:46:40:4b:2a:8e:
         0f:25:a9:50:4b:58:49:73:ad:86:14:cd:c9:de:5c:b2:2a:a7:
         9c:49:90:67:db:18:f9:6c:cf:14:12:42:3e:f3:29:47:b0:5f:
         c3:de:fa:e3:b6:ed:4c:6b:13:3d:96:84:e8:82:f7:fc:c2:ee:
         12:ec:33:0f:ff:25:c1:6a:79:ab:d8:6e:24:d7:7d:89:6d:25:
         fb:82:87:25:30:5d:b3:7a:5e:e4:18:09:f6:07:6b:d4:42:b1:
         8c:ef:a4:6a:6f:89:64:75:d3:d6:09:cf:b4:76:8b:2c:1f:5c:
         c0:bd:b3:80:a3:9f:ab:68:2f:71:69:45:34:d0:60:b7:c1:1e:
         fe:df:4c:63:26:d0:70:d0:96:c3:95:20:64:de:5d:71:9c:69:
         ef:2d:e8:64:a9:5f
-----BEGIN CERTIFICATE-----
MIIC+DCCAWCgAwIBAgIJAPCdQkQSJ0A0MA0GCSqGSIb3DQEBCwUAMDQxCzAJBgNV
BAYTAkNaMQ0wCwYDVQQKDARNWkNSMRYwFAYDVQQDDA1DWiBEU0MgQ1NDQSAxMB4X
DTIxMDYxMDEwMDYxOFoXDTIzMDYxMDEwMDYxOFowLzELMAkGA1UEBhMCQ1oxDTAL
BgNVBAoMBE1aQ1IxETAPBgNVBAMMCENaIERTQyAyMFkwEwYHKoZIzj0CAQYIKoZI
zj0DAQcDQgAE8Dj2k2EY/UqgKsSGvIwPRhLiMa2kYm+y02Sam1DJusQJFOpbHanl
9wM98U2xn9YrpPiKCXwnaSPieXyX7GskOqNdMFswHQYDVR0OBBYEFAKjMTdShDzG
ev/eNqlHHzJIHdXVMB8GA1UdIwQYMBaAFC/bK8h2pE3CPr4rUiBzxjSdjqnHMAkG
A1UdEwQCMAAwDgYDVR0PAQH/BAQDAgeAMA0GCSqGSIb3DQEBCwUAA4IBgQA3d3iN
HRpsKWia1XiF5QQlKUFwcvDdtAlFhfmy99oI+ywmppys7xoeOrIKazIyAyZ3tNIm
Pkcde0ARSvMmAzsr6T/BqxsV78htXzUoILy1z6Y8QZ8+RXcNmR79k9iqudKv5tWZ
2S2ticNeo78WV6oB18oV5/hhLlkS/NQC5wZ5LJar+wEF1VaxkvG2GmooaODPgPbR
utjStTamSu2Din4SRg8pIWlyCMy0qnzVDMzdYUsjvmC3myxzHevFSTs36hj1aiLx
aeAmVTvCi39o6s0EBjyM8Yk2WHJS9k5EkvBcJcEx4z55RkBLKo4PJalQS1hJc62G
FM3J3lyyKqecSZBn2xj5bM8UEkI+8ylHsF/D3vrjtu1MaxM9loTogvf8wu4S7DMP
/yXBanmr2G4k132JbSX7goclMF2zel7kGAn2B2vUQrGM76Rqb4lkddPWCc+0doss
H1zAvbOAo5+raC9xaUU00GC3wR7+30xjJtBw0JbDlSBk3l1xnGnvLehkqV8=
-----END CERTIFICATE-----
