Certificate:
    Data:
        Version: 3 (0x2)
        Serial Number:
            50:8a:92:90:c6:ef:fb:4c:9b:c8:52:c1:e8:dc:e5:86
    Signature Algorithm: rsassaPss
         Hash Algorithm: sha512
         Mask Algorithm: mgf1 with sha512
         Salt Length: 0x40
         Trailer Field: 0xBC (default)
        Issuer: C = DE, O = D-Trust GmbH, CN = D-TRUST CA 2-2 2019, 2.5.4.97 = NTRDE-HRB74346
        Validity
            Not Before: Jun  3 10:46:22 2021 GMT
            Not After : Jun  7 10:46:22 2023 GMT
        Subject: C = DE, O = Robert Koch-Institut, OU = Elektronischer Impfnachweis, CN = Robert Koch-Institut, L = Berlin, postalCode = 13353, street = Nordufer 20, 2.5.4.97 = DT:DE-3023531445, serialNumber = CSM026382898, ST = Berlin
        Subject Public Key Info:
            Public Key Algorithm: id-ecPublicKey
                Public-Key: (256 bit)
                pub:
                    04:b4:61:04:4c:17:36:6a:b9:e3:c7:10:56:3b:76:
                    83:5b:ea:f0:16:0c:26:86:a3:db:c6:16:94:b8:e1:
                    02:ea:49:1d:dc:63:e1:99:73:c5:60:ab:66:14:ce:
                    08:40:38:f5:09:fa:ae:d9:b2:07:6b:a4:6a:17:db:
                    84:31:bb:71:c1
                ASN1 OID: prime256v1
                NIST CURVE: P-256
        X509v3 extensions:
            X509v3 Authority Key Identifier: 
                keyid:71:10:32:AE:74:71:7B:54:8E:F1:D6:AB:62:54:AE:FC:3E:C0:BB:16

            qcStatements: 
                0.0......F..0......F..0......F...
            Authority Information Access: 
                OCSP - URI:http://d-trust-ca-2-2-2019.ocsp.d-trust.net
                CA Issuers - URI:http://www.d-trust.net/cgi-bin/D-TRUST_CA_2-2_2019.crt
                CA Issuers - URI:ldap://directory.d-trust.net/CN=D-TRUST%20CA%202-2%202019,O=D-Trust%20GmbH,C=DE?cACertificate?base?

            X509v3 Certificate Policies: 
                Policy: 0.4.0.194112.1.1
                Policy: 1.3.6.1.4.1.4788.2.150.5
                  CPS: http://www.d-trust.net/internet/files/D-TRUST_CSM_PKI_CPS.pdf

            X509v3 CRL Distribution Points: 

                Full Name:
                  URI:ldap://directory.d-trust.net/CN=D-TRUST%20CA%202-2%202019,O=D-Trust%20GmbH,C=DE?certificaterevocationlist
                  URI:http://crl.d-trust.net/crl/d-trust_ca_2-2_2019.crl
                  URI:http://cdn.d-trust-cloudcrl.net/crl/d-trust_ca_2-2_2019.crl

            X509v3 Subject Key Identifier: 
                7E:88:C3:EB:60:B9:C0:59:67:A1:7D:EB:D9:AB:1F:8E:4E:FE:62:40
            X509v3 Key Usage: critical
                Digital Signature, Non Repudiation
    Signature Algorithm: rsassaPss
         Hash Algorithm: sha512
         Mask Algorithm: mgf1 with sha512
         Salt Length: 0x40
         Trailer Field: 0xBC (default)

         26:6f:3d:a8:67:f8:8d:e1:fe:b0:46:1d:c4:36:45:93:ab:eb:
         31:16:84:7b:c5:52:f8:c4:b8:4e:04:eb:57:5f:dc:46:2d:21:
         27:38:1c:bf:c9:b8:c5:eb:f6:cf:29:a4:75:3c:cc:41:ba:8e:
         c8:18:b1:57:dc:84:e3:9e:ea:d1:01:e3:71:06:82:e2:71:4b:
         93:b1:a7:3d:00:ba:a8:61:03:39:14:3b:be:eb:46:57:bd:f6:
         ae:d2:f5:77:3a:9c:d0:38:b2:83:8f:8f:d4:be:5a:dc:68:28:
         58:f2:d5:d0:5d:e5:03:50:fe:4f:1f:55:18:5d:3e:2b:e2:18:
         63:88:18:1e:d4:84:e3:e7:1a:01:2a:6e:1f:80:f3:a2:36:c6:
         59:cf:6b:17:9d:49:a6:08:e6:da:8a:04:24:08:b8:78:59:3d:
         e1:84:2f:6a:0c:f4:6b:32:88:49:0f:1d:84:7e:d3:29:a6:fd:
         49:8a:40:f9:f9:ac:ae:59:9f:e5:21:88:8f:31:78:84:eb:6d:
         f2:61:8b:67:4f:e4:0f:6e:8e:f2:9d:0d:a6:56:24:35:f7:7c:
         2a:d8:8b:5d:e3:f8:38:a9:d6:67:a1:8f:c6:63:14:1c:e6:80:
         57:90:73:af:8c:21:23:3d:43:c0:66:a4:ff:de:35:eb:4e:49:
         a3:77:63:9a:cb:44:de:9a:47:a5:5f:15:43:69:46:4a:f3:2b:
         c3:ae:0c:4f:bc:ed:ee:97:99:db:1b:6f:84:c8:a0:39:8c:e5:
         15:8d:82:5d:56:41:12:66:39:d3:be:a3:bb:2c:4a:5c:ba:09:
         5b:89:fc:e4:c9:39:db:b2:82:ca:65:ce:f7:04:f5:2b:17:54:
         4f:a6:98:40:3a:2f:e7:31:82:5d:ba:27:89:83:e6:fc:8d:30:
         cc:b1:3b:2a:1f:d1:f4:a6:26:9f:35:79:34:5e:bd:b8:53:cb:
         e2:66:f1:9e:5e:8b:21:cb:a0:3b:82:24:55:cf:b6:40:82:56:
         72:ef:16:c3:dd:37:e4:16:bc:0b:96:97:d1:5a:a8:bf:b4:76:
         bb:01:c8:8d:ec:75:d2:c4:ce:0d:c5:25:7d:97:ad:ca:71:04:
         49:0f:6f:d2:05:37:e2:00:61:be:d2:5f:e0:85:4e:4f:a6:b7:
         e2:24:3d:2a:bf:95:1e:fe:7f:3a:99:7f:80:e1:71:63:68:ee:
         eb:bc:9b:22:ac:77:5a:58:a0:3c:b4:d4:2f:ac:30:c4:2e:fa:
         87:f7:eb:60:05:48:ad:31:b6:02:83:4f:23:29:75:b3:20:5b:
         c7:5a:54:c2:33:14:6f:2b:34:9a:b1:37:4f:80:9d:3e:53:33:
         b0:7a:ed:f7:b3:f0:78:cb
-----BEGIN CERTIFICATE-----
MIIHUTCCBQmgAwIBAgIQUIqSkMbv+0ybyFLB6NzlhjA9BgkqhkiG9w0BAQowMKAN
MAsGCWCGSAFlAwQCA6EaMBgGCSqGSIb3DQEBCDALBglghkgBZQMEAgOiAwIBQDBb
MQswCQYDVQQGEwJERTEVMBMGA1UEChMMRC1UcnVzdCBHbWJIMRwwGgYDVQQDExNE
LVRSVVNUIENBIDItMiAyMDE5MRcwFQYDVQRhEw5OVFJERS1IUkI3NDM0NjAeFw0y
MTA2MDMxMDQ2MjJaFw0yMzA2MDcxMDQ2MjJaMIHrMQswCQYDVQQGEwJERTEdMBsG
A1UEChMUUm9iZXJ0IEtvY2gtSW5zdGl0dXQxJDAiBgNVBAsTG0VsZWt0cm9uaXNj
aGVyIEltcGZuYWNod2VpczEdMBsGA1UEAxMUUm9iZXJ0IEtvY2gtSW5zdGl0dXQx
DzANBgNVBAcTBkJlcmxpbjEOMAwGA1UEEQwFMTMzNTMxFDASBgNVBAkTC05vcmR1
ZmVyIDIwMRkwFwYDVQRhExBEVDpERS0zMDIzNTMxNDQ1MRUwEwYDVQQFEwxDU00w
MjYzODI4OTgxDzANBgNVBAgTBkJlcmxpbjBZMBMGByqGSM49AgEGCCqGSM49AwEH
A0IABLRhBEwXNmq548cQVjt2g1vq8BYMJoaj28YWlLjhAupJHdxj4ZlzxWCrZhTO
CEA49Qn6rtmyB2ukahfbhDG7ccGjggLpMIIC5TAfBgNVHSMEGDAWgBRxEDKudHF7
VI7x1qtiVK78PsC7FjAtBggrBgEFBQcBAwQhMB8wCAYGBACORgEBMBMGBgQAjkYB
BjAJBgcEAI5GAQYCMIH+BggrBgEFBQcBAQSB8TCB7jA3BggrBgEFBQcwAYYraHR0
cDovL2QtdHJ1c3QtY2EtMi0yLTIwMTkub2NzcC5kLXRydXN0Lm5ldDBCBggrBgEF
BQcwAoY2aHR0cDovL3d3dy5kLXRydXN0Lm5ldC9jZ2ktYmluL0QtVFJVU1RfQ0Ff
Mi0yXzIwMTkuY3J0MG8GCCsGAQUFBzAChmNsZGFwOi8vZGlyZWN0b3J5LmQtdHJ1
c3QubmV0L0NOPUQtVFJVU1QlMjBDQSUyMDItMiUyMDIwMTksTz1ELVRydXN0JTIw
R21iSCxDPURFP2NBQ2VydGlmaWNhdGU/YmFzZT8wcAYDVR0gBGkwZzAJBgcEAIvs
QAEBMFoGCysGAQQBpTQCgRYFMEswSQYIKwYBBQUHAgEWPWh0dHA6Ly93d3cuZC10
cnVzdC5uZXQvaW50ZXJuZXQvZmlsZXMvRC1UUlVTVF9DU01fUEtJX0NQUy5wZGYw
gfAGA1UdHwSB6DCB5TCB4qCB36CB3IZpbGRhcDovL2RpcmVjdG9yeS5kLXRydXN0
Lm5ldC9DTj1ELVRSVVNUJTIwQ0ElMjAyLTIlMjAyMDE5LE89RC1UcnVzdCUyMEdt
YkgsQz1ERT9jZXJ0aWZpY2F0ZXJldm9jYXRpb25saXN0hjJodHRwOi8vY3JsLmQt
dHJ1c3QubmV0L2NybC9kLXRydXN0X2NhXzItMl8yMDE5LmNybIY7aHR0cDovL2Nk
bi5kLXRydXN0LWNsb3VkY3JsLm5ldC9jcmwvZC10cnVzdF9jYV8yLTJfMjAxOS5j
cmwwHQYDVR0OBBYEFH6Iw+tgucBZZ6F969mrH45O/mJAMA4GA1UdDwEB/wQEAwIG
wDA9BgkqhkiG9w0BAQowMKANMAsGCWCGSAFlAwQCA6EaMBgGCSqGSIb3DQEBCDAL
BglghkgBZQMEAgOiAwIBQAOCAgEAJm89qGf4jeH+sEYdxDZFk6vrMRaEe8VS+MS4
TgTrV1/cRi0hJzgcv8m4xev2zymkdTzMQbqOyBixV9yE457q0QHjcQaC4nFLk7Gn
PQC6qGEDORQ7vutGV732rtL1dzqc0Diyg4+P1L5a3GgoWPLV0F3lA1D+Tx9VGF0+
K+IYY4gYHtSE4+caASpuH4DzojbGWc9rF51Jpgjm2ooEJAi4eFk94YQvagz0azKI
SQ8dhH7TKab9SYpA+fmsrlmf5SGIjzF4hOtt8mGLZ0/kD26O8p0NplYkNfd8KtiL
XeP4OKnWZ6GPxmMUHOaAV5Bzr4whIz1DwGak/941605Jo3djmstE3ppHpV8VQ2lG
SvMrw64MT7zt7peZ2xtvhMigOYzlFY2CXVZBEmY5076juyxKXLoJW4n85Mk527KC
ymXO9wT1KxdUT6aYQDov5zGCXboniYPm/I0wzLE7Kh/R9KYmnzV5NF69uFPL4mbx
nl6LIcugO4IkVc+2QIJWcu8Ww9035Ba8C5aX0Vqov7R2uwHIjex10sTODcUlfZet
ynEESQ9v0gU34gBhvtJf4IVOT6a34iQ9Kr+VHv5/Opl/gOFxY2ju67ybIqx3Wlig
PLTUL6wwxC76h/frYAVIrTG2AoNPIyl1syBbx1pUwjMUbys0mrE3T4CdPlMzsHrt
97PweMs=
-----END CERTIFICATE-----
