Certificate:
    Data:
        Version: 3 (0x2)
        Serial Number:
            5d:d4:a8:51:06:bc:78:cc:7b:55:7d:33:05:5e:67:66
    Signature Algorithm: rsassaPss
         Hash Algorithm: sha512
         Mask Algorithm: mgf1 with sha512
         Salt Length: 0x40
         Trailer Field: 0xBC (default)
        Issuer: C = DE, O = D-Trust GmbH, CN = D-TRUST CA 2-2 2019, 2.5.4.97 = NTRDE-HRB74346
        Validity
            Not Before: Jun  7 09:55:47 2021 GMT
            Not After : Jun 11 09:55:47 2023 GMT
        Subject: C = DE, O = Robert Koch-Institut, OU = Elektronischer Impfnachweis, CN = Robert Koch-Institut, L = Berlin, postalCode = 13353, street = Nordufer 20, 2.5.4.97 = DT:DE-3023531445, serialNumber = CSM026413462, ST = Berlin
        Subject Public Key Info:
            Public Key Algorithm: id-ecPublicKey
                Public-Key: (256 bit)
                pub:
                    04:a8:3e:7a:08:83:16:7a:be:47:0d:18:42:a5:4a:
                    ea:e6:56:7a:17:c5:ab:14:fc:bf:20:3c:23:81:be:
                    38:a0:4d:81:10:b9:35:c4:16:e3:5e:fc:fb:91:23:
                    e9:7f:78:e9:e3:cc:0f:23:b5:96:2d:cc:7f:57:92:
                    b5:03:aa:1b:34
                ASN1 OID: prime256v1
                NIST CURVE: P-256
        X509v3 extensions:
            X509v3 Authority Key Identifier: 
                keyid:71:10:32:AE:74:71:7B:54:8E:F1:D6:AB:62:54:AE:FC:3E:C0:BB:16

            qcStatements: 
                0.0......F..0......F..0......F...
            Authority Information Access: 
                OCSP - URI:http://d-trust-ca-2-2-2019.ocsp.d-trust.net
                CA Issuers - URI:http://www.d-trust.net/cgi-bin/D-TRUST_CA_2-2_2019.crt
                CA Issuers - URI:ldap://directory.d-trust.net/CN=D-TRUST%20CA%202-2%202019,O=D-Trust%20GmbH,C=DE?cACertificate?base?

            X509v3 Certificate Policies: 
                Policy: 0.4.0.194112.1.1
                Policy: 1.3.6.1.4.1.4788.2.150.5
                  CPS: http://www.d-trust.net/internet/files/D-TRUST_CSM_PKI_CPS.pdf

            X509v3 CRL Distribution Points: 

                Full Name:
                  URI:ldap://directory.d-trust.net/CN=D-TRUST%20CA%202-2%202019,O=D-Trust%20GmbH,C=DE?certificaterevocationlist
                  URI:http://crl.d-trust.net/crl/d-trust_ca_2-2_2019.crl
                  URI:http://cdn.d-trust-cloudcrl.net/crl/d-trust_ca_2-2_2019.crl

            X509v3 Subject Key Identifier: 
                A9:76:C0:E4:7A:40:FB:6F:CE:87:FE:28:77:61:F8:CC:DB:03:58:E3
            X509v3 Key Usage: critical
                Digital Signature, Non Repudiation
    Signature Algorithm: rsassaPss
         Hash Algorithm: sha512
         Mask Algorithm: mgf1 with sha512
         Salt Length: 0x40
         Trailer Field: 0xBC (default)

         06:c1:cd:20:0b:80:81:47:c1:ac:2f:7c:34:47:3a:53:2e:3e:
         39:df:ac:b3:4e:4d:2a:f0:2b:50:3e:ac:44:e3:1d:72:2a:fe:
         c1:22:50:dd:81:c8:ce:82:a2:57:40:eb:2d:9e:36:43:e6:e5:
         14:21:fd:3c:2a:6b:fb:aa:a4:db:b0:26:9d:c9:a2:c1:38:47:
         db:27:f7:dc:fc:a2:d8:e4:ea:dd:64:bf:bb:bf:e2:4a:1c:ed:
         65:bd:45:42:aa:70:de:00:f1:34:60:79:a8:d8:33:50:84:7b:
         83:35:f3:45:c0:4a:e0:4d:f7:71:1a:99:dd:74:ea:72:d8:11:
         d0:8c:39:74:e3:a0:2c:9c:a2:73:11:4e:9a:f0:23:39:b9:13:
         4b:cf:f5:fb:a9:c4:6d:a3:a2:73:b4:ad:29:23:22:7d:f0:be:
         d2:b8:5b:d7:c3:7d:46:5e:c5:79:ab:a8:c2:6c:03:36:e8:41:
         e8:0a:2c:32:8c:8f:8e:3b:fb:a7:80:20:e7:58:7d:fc:34:e5:
         b2:0e:92:cb:05:c2:ce:1d:4a:08:70:ec:f9:48:83:75:02:6b:
         7a:bc:7c:96:c6:70:19:c3:1e:88:46:7f:21:0c:fa:66:26:f9:
         22:aa:e5:9e:f1:60:ff:9c:18:79:3e:16:7f:08:bd:10:23:cd:
         72:0c:25:1b:c1:cf:6c:10:bb:eb:36:19:55:61:47:07:50:9b:
         1c:34:54:f5:a7:cf:33:cb:fd:4f:37:8a:91:bc:3a:06:1a:ce:
         fa:21:d1:30:93:3d:47:6f:7c:6b:3f:b5:2a:b3:cc:8e:92:15:
         0f:1c:09:af:d5:a3:37:d4:aa:af:1d:47:04:b4:90:3e:5a:92:
         fc:c5:6f:45:35:0e:e4:76:20:eb:60:42:0a:75:a4:af:06:17:
         8c:94:de:96:4c:aa:6b:86:90:f1:a8:7f:48:c3:44:dd:70:65:
         df:00:1b:21:01:bd:9a:8b:e8:d3:5c:40:3b:67:78:16:d0:34:
         c7:4e:ba:0f:68:53:9c:a4:d6:2b:aa:32:08:48:4e:11:1c:7d:
         22:6b:fa:15:f5:69:cc:57:9b:7e:46:16:e8:ac:eb:f7:c5:d7:
         fc:b2:90:51:13:2a:9b:29:43:ea:e3:4b:7b:be:be:23:a8:c0:
         30:cd:c2:77:48:bc:86:0d:64:c6:a3:a2:65:2c:01:55:17:98:
         15:a7:a5:7c:26:52:8a:3a:a4:69:5e:a4:df:c7:6c:e9:51:dd:
         f5:f9:1a:95:bd:52:d8:62:79:59:8b:4c:cb:a8:ef:cf:a0:e3:
         9a:d5:b7:ee:cf:ef:1a:68:9a:4c:c4:4c:e2:4c:ea:9a:15:dd:
         12:95:bf:97:00:a0:fb:3b
-----BEGIN CERTIFICATE-----
MIIHUTCCBQmgAwIBAgIQXdSoUQa8eMx7VX0zBV5nZjA9BgkqhkiG9w0BAQowMKAN
MAsGCWCGSAFlAwQCA6EaMBgGCSqGSIb3DQEBCDALBglghkgBZQMEAgOiAwIBQDBb
MQswCQYDVQQGEwJERTEVMBMGA1UEChMMRC1UcnVzdCBHbWJIMRwwGgYDVQQDExNE
LVRSVVNUIENBIDItMiAyMDE5MRcwFQYDVQRhEw5OVFJERS1IUkI3NDM0NjAeFw0y
MTA2MDcwOTU1NDdaFw0yMzA2MTEwOTU1NDdaMIHrMQswCQYDVQQGEwJERTEdMBsG
A1UEChMUUm9iZXJ0IEtvY2gtSW5zdGl0dXQxJDAiBgNVBAsTG0VsZWt0cm9uaXNj
aGVyIEltcGZuYWNod2VpczEdMBsGA1UEAxMUUm9iZXJ0IEtvY2gtSW5zdGl0dXQx
DzANBgNVBAcTBkJlcmxpbjEOMAwGA1UEEQwFMTMzNTMxFDASBgNVBAkTC05vcmR1
ZmVyIDIwMRkwFwYDVQRhExBEVDpERS0zMDIzNTMxNDQ1MRUwEwYDVQQFEwxDU00w
MjY0MTM0NjIxDzANBgNVBAgTBkJlcmxpbjBZMBMGByqGSM49AgEGCCqGSM49AwEH
A0IABKg+egiDFnq+Rw0YQqVK6uZWehfFqxT8vyA8I4G+OKBNgRC5NcQW4178+5Ej
6X946ePMDyO1li3Mf1eStQOqGzSjggLpMIIC5TAfBgNVHSMEGDAWgBRxEDKudHF7
VI7x1qtiVK78PsC7FjAtBggrBgEFBQcBAwQhMB8wCAYGBACORgEBMBMGBgQAjkYB
BjAJBgcEAI5GAQYCMIH+BggrBgEFBQcBAQSB8TCB7jA3BggrBgEFBQcwAYYraHR0
cDovL2QtdHJ1c3QtY2EtMi0yLTIwMTkub2NzcC5kLXRydXN0Lm5ldDBCBggrBgEF
BQcwAoY2aHR0cDovL3d3dy5kLXRydXN0Lm5ldC9jZ2ktYmluL0QtVFJVU1RfQ0Ff
Mi0yXzIwMTkuY3J0MG8GCCsGAQUFBzAChmNsZGFwOi8vZGlyZWN0b3J5LmQtdHJ1
c3QubmV0L0NOPUQtVFJVU1QlMjBDQSUyMDItMiUyMDIwMTksTz1ELVRydXN0JTIw
R21iSCxDPURFP2NBQ2VydGlmaWNhdGU/YmFzZT8wcAYDVR0gBGkwZzAJBgcEAIvs
QAEBMFoGCysGAQQBpTQCgRYFMEswSQYIKwYBBQUHAgEWPWh0dHA6Ly93d3cuZC10
cnVzdC5uZXQvaW50ZXJuZXQvZmlsZXMvRC1UUlVTVF9DU01fUEtJX0NQUy5wZGYw
gfAGA1UdHwSB6DCB5TCB4qCB36CB3IZpbGRhcDovL2RpcmVjdG9yeS5kLXRydXN0
Lm5ldC9DTj1ELVRSVVNUJTIwQ0ElMjAyLTIlMjAyMDE5LE89RC1UcnVzdCUyMEdt
YkgsQz1ERT9jZXJ0aWZpY2F0ZXJldm9jYXRpb25saXN0hjJodHRwOi8vY3JsLmQt
dHJ1c3QubmV0L2NybC9kLXRydXN0X2NhXzItMl8yMDE5LmNybIY7aHR0cDovL2Nk
bi5kLXRydXN0LWNsb3VkY3JsLm5ldC9jcmwvZC10cnVzdF9jYV8yLTJfMjAxOS5j
cmwwHQYDVR0OBBYEFKl2wOR6QPtvzof+KHdh+MzbA1jjMA4GA1UdDwEB/wQEAwIG
wDA9BgkqhkiG9w0BAQowMKANMAsGCWCGSAFlAwQCA6EaMBgGCSqGSIb3DQEBCDAL
BglghkgBZQMEAgOiAwIBQAOCAgEABsHNIAuAgUfBrC98NEc6Uy4+Od+ss05NKvAr
UD6sROMdcir+wSJQ3YHIzoKiV0DrLZ42Q+blFCH9PCpr+6qk27AmncmiwThH2yf3
3Pyi2OTq3WS/u7/iShztZb1FQqpw3gDxNGB5qNgzUIR7gzXzRcBK4E33cRqZ3XTq
ctgR0Iw5dOOgLJyicxFOmvAjObkTS8/1+6nEbaOic7StKSMiffC+0rhb18N9Rl7F
eauowmwDNuhB6AosMoyPjjv7p4Ag51h9/DTlsg6SywXCzh1KCHDs+UiDdQJrerx8
lsZwGcMeiEZ/IQz6Zib5IqrlnvFg/5wYeT4Wfwi9ECPNcgwlG8HPbBC76zYZVWFH
B1CbHDRU9afPM8v9TzeKkbw6BhrO+iHRMJM9R298az+1KrPMjpIVDxwJr9WjN9Sq
rx1HBLSQPlqS/MVvRTUO5HYg62BCCnWkrwYXjJTelkyqa4aQ8ah/SMNE3XBl3wAb
IQG9movo01xAO2d4FtA0x066D2hTnKTWK6oyCEhOERx9Imv6FfVpzFebfkYW6Kzr
98XX/LKQURMqmylD6uNLe76+I6jAMM3Cd0i8hg1kxqOiZSwBVReYFaelfCZSijqk
aV6k38ds6VHd9fkalb1S2GJ5WYtMy6jvz6DjmtW37s/vGmiaTMRM4kzqmhXdEpW/
lwCg+zs=
-----END CERTIFICATE-----
