Certificate:
    Data:
        Version: 3 (0x2)
        Serial Number:
            10:4e:65:12:e8:2c:92:c2:81:64:ef:19:15:d7:64:b4:1d:b3:11:98
    Signature Algorithm: sha256WithRSAEncryption
        Issuer: C = FR, O = Gouv, CN = CSCA-FRANCE
        Validity
            Not Before: Jun 14 22:00:00 2021 GMT
            Not After : Jun 14 22:00:00 2023 GMT
        Subject: C = FR, O = CNAM, OU = 180035024, CN = DSC_FR_025
        Subject Public Key Info:
            Public Key Algorithm: id-ecPublicKey
                Public-Key: (256 bit)
                pub:
                    04:10:64:92:76:d2:4f:65:e6:16:53:74:2b:47:67:
                    11:e0:cd:82:bf:ab:18:2a:e6:3c:ef:4a:a4:04:a2:
                    91:12:d9:52:7a:5e:02:c6:97:e6:f0:49:cf:67:e3:
                    8f:55:50:d7:c4:0a:d6:75:84:74:32:82:ca:e8:ec:
                    7d:68:42:24:9b
                ASN1 OID: prime256v1
                NIST CURVE: P-256
        X509v3 extensions:
            X509v3 Subject Key Identifier: 
                7A:3C:82:2D:44:DE:C4:C7:06:76:41:D6:EC:94:CF:17:6F:E4:6C:B3
            X509v3 Authority Key Identifier: 
                keyid:BE:8A:2E:D6:C9:F9:20:4E:3A:27:03:08:97:4D:EC:FD:D9:7D:C5:E6

            X509v3 Basic Constraints: critical
                CA:FALSE
            X509v3 Key Usage: critical
                Digital Signature
            X509v3 CRL Distribution Points: 

                Full Name:
                  URI:http://ants.gouv.fr/csca_crl

            X509v3 Certificate Policies: 
                Policy: 1.2.250.1.200.31.3.9.1.1

            Authority Information Access: 
                CA Issuers - URI:https://ant.gouv.fr/csca

    Signature Algorithm: sha256WithRSAEncryption
         33:64:02:20:86:b6:fe:aa:da:30:ba:7f:f8:dd:c9:47:78:01:
         54:8f:b3:48:58:ab:77:9a:d6:75:63:d6:a6:d9:d5:ab:e1:36:
         30:43:f0:26:1c:f7:6b:6f:3c:6b:18:59:3d:eb:67:9b:6b:f1:
         44:7b:6b:cc:8f:0e:4b:4b:5c:97:4a:a8:0e:11:e6:31:00:0f:
         cd:81:ed:87:ac:46:a0:6c:7d:fa:37:cb:14:ca:32:9c:0d:61:
         71:19:88:2e:d8:a2:b4:fa:0e:4f:c4:98:7b:d2:be:96:7d:ec:
         89:ad:b1:9f:9d:91:ca:cc:b5:c4:b4:d0:66:ab:81:99:cc:d5:
         01:dc:40:4b:70:7e:87:69:cd:c3:b5:74:6f:db:a4:6a:6b:a5:
         eb:0f:45:a7:b8:9f:83:6e:69:4f:a9:93:b7:9b:17:0f:cf:61:
         4d:2a:93:7f:f7:e1:89:30:a3:45:3a:c1:4c:9b:95:03:d5:60:
         2a:b5:94:89:91:c8:fe:f2:30:29:11:e8:a9:4b:cc:0c:35:b7:
         44:af:d0:a0:0a:9f:41:6c:f3:b4:a5:7d:c9:10:a9:06:1b:f9:
         7e:87:2f:e7:4a:30:6f:2b:b5:55:8a:67:4f:48:27:97:6d:14:
         66:c2:f0:11:7b:7a:4e:eb:09:16:f1:a8:8b:24:85:08:b2:da:
         9d:4e:a0:ca:81:dc:5e:e7:4d:7a:6f:18:12:8b:0e:cf:11:52:
         47:5c:2f:28:9c:2c:f0:92:63:b9:a4:30:79:00:6d:bb:f5:d1:
         97:0b:62:ef:72:99:8f:09:6d:1e:c7:a1:1c:2d:e7:16:c9:77:
         57:03:1f:f7:b0:36:72:6a:de:da:e7:84:51:c8:d1:16:f1:25:
         87:63:df:a4:82:0b:d7:b4:ab:a6:ef:e6:be:ed:e1:49:51:e7:
         76:c5:28:15:56:67:65:45:b3:f2:b5:50:2f:43:37:f7:82:24:
         f5:90:5a:65:75:6b:21:9b:9d:d4:57:ee:0d:0c:db:54:a8:d1:
         4c:ef:66:38:8b:fd:59:9e:fc:e0:c0:0e:37:e8:34:a7:4c:4a:
         bc:9d:8c:66:6c:1e:f9:91:78:16:fc:51:3f:67:c2:0b:db:e5:
         32:4d:c0:b3:86:dc:71:2d:c8:50:ab:2b:ba:92:05:5d:aa:f5:
         4c:77:c6:3c:bf:28:6e:99:fa:92:d8:d5:27:87:42:4f:ec:b6:
         c3:92:47:1a:dc:5c:96:12:23:76:a1:b9:c3:f3:eb:30:f8:de:
         1a:ba:bc:c2:50:0b:c0:68:ca:31:31:7a:80:e6:7e:06:d7:e3:
         34:26:86:f2:1f:25:a6:df:a8:29:e3:0b:ec:63:ff:15:ee:40:
         76:37:28:bd:cd:03:05:8f
-----BEGIN CERTIFICATE-----
MIIEGzCCAgOgAwIBAgIUEE5lEugsksKBZO8ZFddktB2zEZgwDQYJKoZIhvcNAQEL
BQAwMjELMAkGA1UEBhMCRlIxDTALBgNVBAoMBEdvdXYxFDASBgNVBAMMC0NTQ0Et
RlJBTkNFMB4XDTIxMDYxNDIyMDAwMFoXDTIzMDYxNDIyMDAwMFowRTELMAkGA1UE
BhMCRlIxDTALBgNVBAoMBENOQU0xEjAQBgNVBAsMCTE4MDAzNTAyNDETMBEGA1UE
AwwKRFNDX0ZSXzAyNTBZMBMGByqGSM49AgEGCCqGSM49AwEHA0IABBBkknbST2Xm
FlN0K0dnEeDNgr+rGCrmPO9KpASikRLZUnpeAsaX5vBJz2fjj1VQ18QK1nWEdDKC
yujsfWhCJJujgeAwgd0wHQYDVR0OBBYEFHo8gi1E3sTHBnZB1uyUzxdv5GyzMB8G
A1UdIwQYMBaAFL6KLtbJ+SBOOicDCJdN7P3ZfcXmMAwGA1UdEwEB/wQCMAAwDgYD
VR0PAQH/BAQDAgeAMC0GA1UdHwQmMCQwIqAgoB6GHGh0dHA6Ly9hbnRzLmdvdXYu
ZnIvY3NjYV9jcmwwGAYDVR0gBBEwDzANBgsqgXoBgUgfAwkBATA0BggrBgEFBQcB
AQQoMCYwJAYIKwYBBQUHMAKGGGh0dHBzOi8vYW50LmdvdXYuZnIvY3NjYTANBgkq
hkiG9w0BAQsFAAOCAgEAM2QCIIa2/qraMLp/+N3JR3gBVI+zSFird5rWdWPWptnV
q+E2MEPwJhz3a288axhZPetnm2vxRHtrzI8OS0tcl0qoDhHmMQAPzYHth6xGoGx9
+jfLFMoynA1hcRmILtiitPoOT8SYe9K+ln3sia2xn52Rysy1xLTQZquBmczVAdxA
S3B+h2nNw7V0b9ukamul6w9Fp7ifg25pT6mTt5sXD89hTSqTf/fhiTCjRTrBTJuV
A9VgKrWUiZHI/vIwKRHoqUvMDDW3RK/QoAqfQWzztKV9yRCpBhv5focv50owbyu1
VYpnT0gnl20UZsLwEXt6TusJFvGoiySFCLLanU6gyoHcXudNem8YEosOzxFSR1wv
KJws8JJjuaQweQBtu/XRlwti73KZjwltHsehHC3nFsl3VwMf97A2cmre2ueEUcjR
FvElh2PfpIIL17Srpu/mvu3hSVHndsUoFVZnZUWz8rVQL0M394Ik9ZBaZXVrIZud
1FfuDQzbVKjRTO9mOIv9WZ784MAON+g0p0xKvJ2MZmwe+ZF4FvxRP2fCC9vlMk3A
s4bccS3IUKsrupIFXar1THfGPL8obpn6ktjVJ4dCT+y2w5JHGtxclhIjdqG5w/Pr
MPjeGrq8wlALwGjKMTF6gOZ+BtfjNCaG8h8lpt+oKeML7GP/Fe5Adjcovc0DBY8=
-----END CERTIFICATE-----
