Certificate:
    Data:
        Version: 3 (0x2)
        Serial Number:
            17:29:8a:3d:dc:c9:75:7f:2a
    Signature Algorithm: ecdsa-with-SHA256
        Issuer: CN = EADTrust ECC 256 SubCA For Qualified Certificates 2019, O = "European Agency of Digital Trust, S.L.", C = ES, 2.5.4.97 = VATES-B85626240, OU = Legal Person
        Validity
            Not Before: May 28 10:55:00 2021 GMT
            Not After : May 28 10:55:00 2023 GMT
        Subject: CN = GENERALITAT VALENCIANA, serialNumber = S4611001A, OU = SELLO ELECTRONICO, OU = CONSELLERIA DE SANITAT UNIVERSAL I SALUT P\C3\9ABLICA, 2.5.4.97 = VATES-S4611001A, O = GENERALITAT VALENCIANA, C = ES
        Subject Public Key Info:
            Public Key Algorithm: id-ecPublicKey
                Public-Key: (256 bit)
                pub:
                    04:57:ad:52:97:7b:fa:37:30:6a:c8:26:ea:49:bf:
                    3f:7c:1a:1d:1a:57:be:6f:74:49:ed:4b:64:fa:e1:
                    31:0f:06:ce:c7:34:bf:ff:61:94:4d:11:4a:5b:8d:
                    e9:a6:c9:32:af:71:ba:d3:fc:5e:24:26:9e:37:b4:
                    bd:0a:fb:2c:76
                ASN1 OID: prime256v1
                NIST CURVE: P-256
        X509v3 extensions:
            X509v3 Basic Constraints: critical
                CA:FALSE
            X509v3 Authority Key Identifier: 
                keyid:D3:4C:6C:3A:BD:36:FE:70:87:23:87:3A:EE:3D:90:CF:CB:9B:F7:21

            Authority Information Access: 
                CA Issuers - URI:http://ca.eadtrust.eu/eadtrust-subca-ecc256eadlp2019.crt
                OCSP - URI:http://ocsp.eadtrust.eu

            X509v3 Issuer Alternative Name: 
                email:ca@eadtrust.eu, URI:http://www.eadtrust.eu, URI:http://ca.eadtrust.eu, URI:http://policy.eadtrust.eu
            X509v3 Subject Alternative Name: 
                DirName:/2.16.724.1.3.5.6.2.1=SELLO ELECTRONICO DE NIVEL MEDIO/2.16.724.1.3.5.6.2.2=GENERALITAT VALENCIANA/2.16.724.1.3.5.6.2.3=S4611001A
            X509v3 Certificate Policies: 
                Policy: 2.16.724.1.3.5.6.2
                Policy: 0.4.0.194112.1.1
                  User Notice:
                    Explicit Text: European Telecommunications Standards Institute. eIDAS European Regulation Compliant
                Policy: 1.3.6.1.4.1.501.2.1.1.0.41233
                  CPS: http://policy.eadtrust.eu
                  User Notice:
                    Explicit Text: Certificado cualificado de sello electrónico de Administración, órgano o entidad de derecho público, nivel Medio/Sustancial. Consulte las condiciones de uso en http://policy.eadtrust.eu

            X509v3 Extended Key Usage: 
                TLS Web Client Authentication, E-mail Protection
            qcStatements: 
                0..0...+.......0.......I..0......F..0......F.....0......F..0......F...0l.....F..0b00.*https://eadtrust.eu/en/documents-in-force/..en0..(https://eadtrust.eu/documentos-vigentes/..es
            X509v3 CRL Distribution Points: 

                Full Name:
                  URI:http://crl.eadtrust.eu/eadtrust-subca-ecc256eadlp2019.crl

            X509v3 Subject Key Identifier: 
                C0:25:9F:EE:C4:33:9E:82:54:0C:9D:20:F3:EA:BE:9C:7D:92:FA:01
            X509v3 Key Usage: critical
                Digital Signature, Non Repudiation, Key Encipherment
    Signature Algorithm: ecdsa-with-SHA256
         30:45:02:21:00:97:fd:8b:55:fe:ac:29:09:09:0b:7f:7a:bd:
         00:77:8b:bf:83:57:8c:a5:ab:75:f9:e2:85:1b:30:ee:08:0a:
         cc:02:20:65:be:8c:70:3b:31:5d:23:80:4d:ee:c4:bf:55:f6:
         f7:8d:48:f1:f4:e2:8d:eb:cc:0b:f4:c1:0a:f9:17:cc:bd
-----BEGIN CERTIFICATE-----
MIIHDjCCBrSgAwIBAgIJFymKPdzJdX8qMAoGCCqGSM49BAMCMIGwMT8wPQYDVQQD
DDZFQURUcnVzdCBFQ0MgMjU2IFN1YkNBIEZvciBRdWFsaWZpZWQgQ2VydGlmaWNh
dGVzIDIwMTkxLzAtBgNVBAoMJkV1cm9wZWFuIEFnZW5jeSBvZiBEaWdpdGFsIFRy
dXN0LCBTLkwuMQswCQYDVQQGEwJFUzEYMBYGA1UEYQwPVkFURVMtQjg1NjI2MjQw
MRUwEwYDVQQLDAxMZWdhbCBQZXJzb24wHhcNMjEwNTI4MTA1NTAwWhcNMjMwNTI4
MTA1NTAwWjCB1TEfMB0GA1UEAwwWR0VORVJBTElUQVQgVkFMRU5DSUFOQTESMBAG
A1UEBRMJUzQ2MTEwMDFBMRowGAYDVQQLDBFTRUxMTyBFTEVDVFJPTklDTzE6MDgG
A1UECwwxQ09OU0VMTEVSSUEgREUgU0FOSVRBVCBVTklWRVJTQUwgSSBTQUxVVCBQ
w5pCTElDQTEYMBYGA1UEYQwPVkFURVMtUzQ2MTEwMDFBMR8wHQYDVQQKDBZHRU5F
UkFMSVRBVCBWQUxFTkNJQU5BMQswCQYDVQQGEwJFUzBZMBMGByqGSM49AgEGCCqG
SM49AwEHA0IABFetUpd7+jcwasgm6km/P3waHRpXvm90Se1LZPrhMQ8Gzsc0v/9h
lE0RSluN6abJMq9xutP8XiQmnje0vQr7LHajggSOMIIEijAMBgNVHRMBAf8EAjAA
MB8GA1UdIwQYMBaAFNNMbDq9Nv5whyOHOu49kM/Lm/chMHkGCCsGAQUFBwEBBG0w
azBEBggrBgEFBQcwAoY4aHR0cDovL2NhLmVhZHRydXN0LmV1L2VhZHRydXN0LXN1
YmNhLWVjYzI1NmVhZGxwMjAxOS5jcnQwIwYIKwYBBQUHMAGGF2h0dHA6Ly9vY3Nw
LmVhZHRydXN0LmV1MGMGA1UdEgRcMFqBDmNhQGVhZHRydXN0LmV1hhZodHRwOi8v
d3d3LmVhZHRydXN0LmV1hhVodHRwOi8vY2EuZWFkdHJ1c3QuZXWGGWh0dHA6Ly9w
b2xpY3kuZWFkdHJ1c3QuZXUwfwYDVR0RBHgwdqR0MHIxLzAtBglghVQBAwUGAgEM
IFNFTExPIEVMRUNUUk9OSUNPIERFIE5JVkVMIE1FRElPMSUwIwYJYIVUAQMFBgIC
DBZHRU5FUkFMSVRBVCBWQUxFTkNJQU5BMRgwFgYJYIVUAQMFBgIDDAlTNDYxMTAw
MUEwggGYBgNVHSAEggGPMIIBizAKBghghVQBAwUGAjBvBgcEAIvsQAEBMGQwYgYI
KwYBBQUHAgIwVgxURXVyb3BlYW4gVGVsZWNvbW11bmljYXRpb25zIFN0YW5kYXJk
cyBJbnN0aXR1dGUuIGVJREFTIEV1cm9wZWFuIFJlZ3VsYXRpb24gQ29tcGxpYW50
MIIBCgYOKwYBBAGDdQIBAQCCwhEwgfcwJQYIKwYBBQUHAgEWGWh0dHA6Ly9wb2xp
Y3kuZWFkdHJ1c3QuZXUwgc0GCCsGAQUFBwICMIHADIG9Q2VydGlmaWNhZG8gY3Vh
bGlmaWNhZG8gZGUgc2VsbG8gZWxlY3Ryw7NuaWNvIGRlIEFkbWluaXN0cmFjacOz
biwgw7NyZ2FubyBvIGVudGlkYWQgZGUgZGVyZWNobyBww7pibGljbywgbml2ZWwg
TWVkaW8vU3VzdGFuY2lhbC4gQ29uc3VsdGUgbGFzIGNvbmRpY2lvbmVzIGRlIHVz
byBlbiBodHRwOi8vcG9saWN5LmVhZHRydXN0LmV1MB0GA1UdJQQWMBQGCCsGAQUF
BwMCBggrBgEFBQcDBDCBwQYIKwYBBQUHAQMEgbQwgbEwFQYIKwYBBQUHCwIwCQYH
BACL7EkBAjAIBgYEAI5GAQEwCwYGBACORgEDAgEPMBMGBgQAjkYBBjAJBgcEAI5G
AQYCMGwGBgQAjkYBBTBiMDAWKmh0dHBzOi8vZWFkdHJ1c3QuZXUvZW4vZG9jdW1l
bnRzLWluLWZvcmNlLxMCZW4wLhYoaHR0cHM6Ly9lYWR0cnVzdC5ldS9kb2N1bWVu
dG9zLXZpZ2VudGVzLxMCZXMwSgYDVR0fBEMwQTA/oD2gO4Y5aHR0cDovL2NybC5l
YWR0cnVzdC5ldS9lYWR0cnVzdC1zdWJjYS1lY2MyNTZlYWRscDIwMTkuY3JsMB0G
A1UdDgQWBBTAJZ/uxDOeglQMnSDz6r6cfZL6ATAOBgNVHQ8BAf8EBAMCBeAwCgYI
KoZIzj0EAwIDSAAwRQIhAJf9i1X+rCkJCQt/er0Ad4u/g1eMpat1+eKFGzDuCArM
AiBlvoxwOzFdI4BN7sS/Vfb3jUjx9OKN68wL9MEK+RfMvQ==
-----END CERTIFICATE-----
