Certificate:
    Data:
        Version: 3 (0x2)
        Serial Number:
            6e:3a:24:3e:a7:2c:2b:d0:4f:6b:d5:1d:59:ec:49:7b:21:2a:8a:5a
    Signature Algorithm: sha256WithRSAEncryption
        Issuer: C = FR, O = Gouv, CN = CSCA-FRANCE
        Validity
            Not Before: Oct 14 22:00:00 2021 GMT
            Not After : Oct 14 22:00:00 2023 GMT
        Subject: C = FR, O = CNAM, OU = 180035024, CN = DSC_FR_023
        Subject Public Key Info:
            Public Key Algorithm: id-ecPublicKey
                Public-Key: (256 bit)
                pub:
                    04:82:ef:d6:24:19:f5:43:e4:42:39:f4:31:dc:d2:
                    d3:e6:82:06:50:21:ec:a9:24:57:ba:ee:c4:66:ca:
                    9f:a9:93:79:3e:f1:e4:eb:f1:3e:fb:cf:30:be:3d:
                    9f:32:b7:e6:02:9b:64:e6:d5:65:77:6c:41:1f:83:
                    f8:b5:1b:3c:25
                ASN1 OID: prime256v1
                NIST CURVE: P-256
        X509v3 extensions:
            X509v3 Subject Key Identifier: 
                59:80:63:21:0A:EE:C5:6F:B0:3B:C8:63:EC:3A:7E:63:73:D8:14:F8
            X509v3 Authority Key Identifier: 
                keyid:BE:8A:2E:D6:C9:F9:20:4E:3A:27:03:08:97:4D:EC:FD:D9:7D:C5:E6

            X509v3 Basic Constraints: critical
                CA:FALSE
            X509v3 Key Usage: critical
                Digital Signature
            X509v3 CRL Distribution Points: 

                Full Name:
                  URI:http://ants.gouv.fr/csca_crl

            X509v3 Certificate Policies: 
                Policy: 1.2.250.1.200.31.3.9.1.1

            Authority Information Access: 
                CA Issuers - URI:https://ant.gouv.fr/csca

    Signature Algorithm: sha256WithRSAEncryption
         a4:c8:6c:02:92:2a:0d:d8:ed:26:20:ba:98:eb:2f:23:c2:fd:
         53:07:fe:83:0f:dd:bf:4e:af:54:8c:13:43:bc:be:e0:08:2d:
         7d:9d:87:4d:67:aa:5b:b2:25:5e:f3:58:b3:49:b8:e1:4e:15:
         c8:be:37:a6:7a:15:d7:ae:eb:c0:13:80:30:64:eb:62:a4:fe:
         f3:71:e5:e5:a7:4e:b6:5e:6e:8b:44:71:54:7c:cd:75:43:e2:
         54:f2:f6:75:5f:ce:81:94:0a:ab:f4:c5:8e:6f:30:b8:93:b1:
         86:31:88:c7:60:85:54:a5:f6:3e:97:1b:1c:06:7f:21:ac:1d:
         26:38:4e:b2:2b:01:66:97:d8:b8:1a:4a:15:5f:21:06:3f:7f:
         48:5f:c4:c0:2a:db:b3:00:7c:d4:8a:ce:8c:d1:25:f4:c9:06:
         e8:9a:d8:6a:b3:bf:bb:3b:4a:1e:ff:4e:20:5c:b9:48:2e:81:
         68:a9:0e:e0:e2:2d:33:6c:71:e0:7d:70:d9:c9:7b:0a:ab:77:
         da:7f:78:58:bc:4f:d0:72:de:00:aa:94:03:cf:fb:4e:da:1a:
         f7:cc:74:e2:22:c4:96:19:20:f0:57:7e:68:be:85:a2:2d:66:
         5a:55:81:46:58:07:cf:b8:87:c5:9e:f3:60:39:a2:f0:d9:2c:
         c6:72:84:09:2c:01:9b:81:69:3f:61:ae:cf:b0:96:63:fb:6c:
         44:4c:86:be:bc:d9:d8:38:d8:16:d3:6d:20:e1:d6:d7:9c:6b:
         ed:a4:cf:44:9d:32:0f:40:d8:b6:66:7a:97:d6:98:94:55:46:
         52:03:56:ca:95:2e:34:e7:b7:04:98:76:e5:7d:ab:7b:b9:c8:
         c1:2b:d4:59:97:80:9d:41:5b:27:ed:98:62:df:71:41:f8:e0:
         4a:59:7f:0c:1c:94:1b:f4:9f:4f:a1:2a:b2:d3:d6:95:b5:45:
         54:b9:63:b3:a6:b3:cf:14:32:a3:34:41:f0:96:0f:54:6d:4a:
         9f:2f:16:4a:5d:d8:a2:42:03:2d:5a:1f:ba:52:6a:62:98:be:
         69:cd:83:0c:50:80:d4:be:8c:b6:77:f0:fe:0a:3b:46:ae:ee:
         8a:8a:dd:ba:a6:62:dc:52:fc:bc:ac:32:d0:ce:92:dd:c9:0f:
         d3:aa:56:8e:92:5d:3b:22:9a:2e:4d:5c:6c:72:51:e1:fb:b3:
         63:e3:eb:86:f0:e4:2a:64:92:94:4c:ec:58:22:0a:7b:a0:7f:
         fc:4a:cd:eb:83:09:e7:12:71:73:a1:e7:3f:62:af:5d:5e:21:
         7f:b5:db:16:c3:5a:b7:91:13:c5:bd:d5:75:08:55:0f:21:f3:
         81:ba:92:a5:5a:3d:04:83
-----BEGIN CERTIFICATE-----
MIIEGzCCAgOgAwIBAgIUbjokPqcsK9BPa9UdWexJeyEqilowDQYJKoZIhvcNAQEL
BQAwMjELMAkGA1UEBhMCRlIxDTALBgNVBAoMBEdvdXYxFDASBgNVBAMMC0NTQ0Et
RlJBTkNFMB4XDTIxMTAxNDIyMDAwMFoXDTIzMTAxNDIyMDAwMFowRTELMAkGA1UE
BhMCRlIxDTALBgNVBAoMBENOQU0xEjAQBgNVBAsMCTE4MDAzNTAyNDETMBEGA1UE
AwwKRFNDX0ZSXzAyMzBZMBMGByqGSM49AgEGCCqGSM49AwEHA0IABILv1iQZ9UPk
Qjn0MdzS0+aCBlAh7KkkV7ruxGbKn6mTeT7x5OvxPvvPML49nzK35gKbZObVZXds
QR+D+LUbPCWjgeAwgd0wHQYDVR0OBBYEFFmAYyEK7sVvsDvIY+w6fmNz2BT4MB8G
A1UdIwQYMBaAFL6KLtbJ+SBOOicDCJdN7P3ZfcXmMAwGA1UdEwEB/wQCMAAwDgYD
VR0PAQH/BAQDAgeAMC0GA1UdHwQmMCQwIqAgoB6GHGh0dHA6Ly9hbnRzLmdvdXYu
ZnIvY3NjYV9jcmwwGAYDVR0gBBEwDzANBgsqgXoBgUgfAwkBATA0BggrBgEFBQcB
AQQoMCYwJAYIKwYBBQUHMAKGGGh0dHBzOi8vYW50LmdvdXYuZnIvY3NjYTANBgkq
hkiG9w0BAQsFAAOCAgEApMhsApIqDdjtJiC6mOsvI8L9Uwf+gw/dv06vVIwTQ7y+
4AgtfZ2HTWeqW7IlXvNYs0m44U4VyL43pnoV167rwBOAMGTrYqT+83Hl5adOtl5u
i0RxVHzNdUPiVPL2dV/OgZQKq/TFjm8wuJOxhjGIx2CFVKX2PpcbHAZ/IawdJjhO
sisBZpfYuBpKFV8hBj9/SF/EwCrbswB81IrOjNEl9MkG6JrYarO/uztKHv9OIFy5
SC6BaKkO4OItM2xx4H1w2cl7Cqt32n94WLxP0HLeAKqUA8/7Ttoa98x04iLElhkg
8Fd+aL6Foi1mWlWBRlgHz7iHxZ7zYDmi8NksxnKECSwBm4FpP2Guz7CWY/tsREyG
vrzZ2DjYFtNtIOHW15xr7aTPRJ0yD0DYtmZ6l9aYlFVGUgNWypUuNOe3BJh25X2r
e7nIwSvUWZeAnUFbJ+2YYt9xQfjgSll/DByUG/SfT6EqstPWlbVFVLljs6azzxQy
ozRB8JYPVG1Kny8WSl3YokIDLVofulJqYpi+ac2DDFCA1L6Mtnfw/go7Rq7uiord
uqZi3FL8vKwy0M6S3ckP06pWjpJdOyKaLk1cbHJR4fuzY+PrhvDkKmSSlEzsWCIK
e6B//ErN64MJ5xJxc6HnP2KvXV4hf7XbFsNat5ETxb3VdQhVDyHzgbqSpVo9BIM=
-----END CERTIFICATE-----
