Certificate:
    Data:
        Version: 3 (0x2)
        Serial Number: 1623009026695 (0x179e2e06287)
    Signature Algorithm: rsassaPss
         Hash Algorithm: sha256
         Mask Algorithm: mgf1 with sha256
         Salt Length: 0x20
         Trailer Field: 0xBC (default)
        Issuer: C = LT, O = State Enterprise Centre of Registers, CN = LT_DGC_CSCA_1
        Validity
            Not Before: Jun  6 19:50:26 2021 GMT
            Not After : Jun  6 19:50:26 2023 GMT
        Subject: C = LT, ST = Lithuania, O = Ministry of Health of The Republic of Lithuania, CN = LT_DGC_DSC_1
        Subject Public Key Info:
            Public Key Algorithm: rsaEncryption
                Public-Key: (2048 bit)
                Modulus:
                    00:9e:10:69:c7:37:86:5c:d9:50:b3:b5:3e:8f:f0:
                    2f:d4:15:19:e8:20:a0:31:1d:db:14:b4:f8:ad:18:
                    ce:f0:a4:38:22:90:0a:a9:20:90:de:3e:7b:30:9a:
                    9d:ba:69:37:01:47:c7:3b:9c:e1:31:91:78:03:0c:
                    b4:c2:a5:77:a0:59:72:3f:8f:7f:e7:a2:8a:67:11:
                    80:45:ee:54:93:27:cf:8d:56:e5:f0:06:69:2e:68:
                    18:a1:2f:c8:a2:be:77:4c:ba:f0:99:3f:fe:ce:f5:
                    f2:9f:31:58:6c:e8:b6:3a:d0:ad:a9:a9:c6:fb:d3:
                    94:85:25:51:ad:71:04:07:ee:7a:3e:90:a5:b4:4d:
                    f5:c1:e9:97:d5:b7:a1:c4:3b:82:6c:4e:2d:ba:ac:
                    93:60:e0:c5:c3:d2:de:dd:d1:82:6c:75:9d:8f:18:
                    b9:5b:75:c8:50:da:3c:8f:6b:b6:3c:ab:9e:d0:a4:
                    bb:e9:7b:f4:cc:06:08:b5:38:02:86:0b:fb:98:ce:
                    79:fc:6d:74:f6:6e:0c:7d:e5:3b:00:76:a1:e3:76:
                    c9:b6:1f:0a:f3:2f:92:c4:6d:d1:60:7b:24:98:d6:
                    7b:b1:f9:f7:c3:cc:3b:5b:25:bb:0f:7f:ed:28:77:
                    0c:b7:78:60:22:1f:73:dc:3b:96:79:1d:42:db:de:
                    89:c9
                Exponent: 65537 (0x10001)
        X509v3 extensions:
            X509v3 Key Usage: critical
                Digital Signature
            X509v3 Authority Key Identifier: 
                keyid:04:16:04:14:ED:A4:47:2B:35:48:DF:4C:C3:92:8A:05:16:8A:52:B8:53:9E:F4:3E

            X509v3 Subject Key Identifier: 
                C0:C3:5F:10:3B:2D:33:88:18:2B:C6:BC:59:09:E8:F1:0B:75:21:94
    Signature Algorithm: rsassaPss
         Hash Algorithm: sha256
         Mask Algorithm: mgf1 with sha256
         Salt Length: 0x20
         Trailer Field: 0xBC (default)

         0d:b1:b9:10:ec:fd:ce:96:33:6e:ad:56:26:80:1e:20:ff:be:
         bf:b4:b3:33:6d:11:31:0a:e5:25:b7:3c:49:5b:5c:d5:65:be:
         23:ba:e1:cd:92:68:c8:b1:4b:a9:6a:26:06:f0:5f:1f:40:9a:
         5e:45:a9:b6:aa:06:8f:68:f5:aa:4d:8c:27:d6:59:bc:2b:e0:
         1b:e2:31:3e:f4:5e:a7:c9:32:5f:bc:8d:be:07:33:9c:18:5b:
         13:52:bf:ba:21:fd:98:69:f2:44:f5:43:02:79:05:86:3f:59:
         0b:5f:9b:2b:b5:05:53:bd:be:df:34:71:e7:12:f9:a2:8d:d2:
         a8:a8:fb:fc:5d:c9:e4:97:a8:f9:dd:a6:63:78:ce:91:ae:94:
         aa:ad:db:67:78:7c:2a:ba:af:4e:5a:78:ee:29:50:c6:67:56:
         c3:88:89:79:db:08:c2:43:e1:8b:73:33:d4:b4:76:a2:fa:a1:
         cd:9a:13:a2:6e:24:fe:26:84:ff:fd:f0:db:f7:ab:c7:95:fe:
         34:63:7f:73:cb:14:45:c7:49:31:f7:3c:2c:f0:26:c0:3e:db:
         c9:39:f5:a0:e8:e8:d8:e7:40:11:65:17:e2:c5:ce:ae:16:b0:
         a6:9c:7b:69:cd:f7:0e:dd:ff:97:c0:f0:48:06:6b:d3:8e:98:
         59:0c:64:6a:36:33:f8:eb:0a:94:bf:9b:df:a6:ab:88:a6:b8:
         4d:79:ff:a3:62:2d:e4:fb:bd:7d:20:19:f9:42:e0:4d:ab:8b:
         c9:70:c6:07:8a:d2:b8:58:9d:b8:4c:8c:5e:9a:ae:58:21:74:
         18:41:cb:78:b7:dd:15:d3:80:72:87:3e:e9:86:8c:79:3f:6a:
         d9:26:5d:d5:04:e4:ac:b3:b6:c6:bb:ae:2a:73:90:e1:f7:a8:
         e8:2c:b1:c5:2c:28:6a:aa:a0:db:86:ae:d1:23:a1:a5:f1:89:
         f4:4a:15:0c:83:75:93:6e:4b:53:43:d7:69:1b:36:1d:1f:7c:
         1b:6e:e3:1b:ce:f1:8e:61:14:ea:4d:51:81:1f:c7:9b:f4:a2:
         5b:80:2d:1c:0c:38:5e:94:73:57:51:cc:27:dd:5b:db:77:1d:
         d8:f4:a0:76:cb:9d:15:4e:cf:59:71:ac:07:e7:6a:38:06:e3:
         70:c7:7b:ce:fc:bd:c4:ab:61:27:90:86:76:9a:86:c9:0c:81:
         9b:04:95:0d:da:db:41:8a:6e:66:b9:0c:60:10:a9:ec:fd:08:
         0d:4e:91:19:80:14:e4:16:34:3b:98:1e:e0:20:2f:12:1c:30:
         e6:53:9c:17:7b:96:80:dc:63:79:fc:69:79:69:47:37:ac:70:
         e6:9d:94:0a:6b:1e:b7:8f
-----BEGIN CERTIFICATE-----
MIIFBDCCArigAwIBAgIGAXni4GKHMEEGCSqGSIb3DQEBCjA0oA8wDQYJYIZIAWUD
BAIBBQChHDAaBgkqhkiG9w0BAQgwDQYJYIZIAWUDBAIBBQCiAwIBIDBUMQswCQYD
VQQGEwJMVDEtMCsGA1UECgwkU3RhdGUgRW50ZXJwcmlzZSBDZW50cmUgb2YgUmVn
aXN0ZXJzMRYwFAYDVQQDDA1MVF9ER0NfQ1NDQV8xMB4XDTIxMDYwNjE5NTAyNloX
DTIzMDYwNjE5NTAyNlowcjELMAkGA1UEBhMCTFQxEjAQBgNVBAgMCUxpdGh1YW5p
YTE4MDYGA1UECgwvTWluaXN0cnkgb2YgSGVhbHRoIG9mIFRoZSBSZXB1YmxpYyBv
ZiBMaXRodWFuaWExFTATBgNVBAMMDExUX0RHQ19EU0NfMTCCASIwDQYJKoZIhvcN
AQEBBQADggEPADCCAQoCggEBAJ4Qacc3hlzZULO1Po/wL9QVGeggoDEd2xS0+K0Y
zvCkOCKQCqkgkN4+ezCanbppNwFHxzuc4TGReAMMtMKld6BZcj+Pf+eiimcRgEXu
VJMnz41W5fAGaS5oGKEvyKK+d0y68Jk//s718p8xWGzotjrQrampxvvTlIUlUa1x
BAfuej6QpbRN9cHpl9W3ocQ7gmxOLbqsk2DgxcPS3t3Rgmx1nY8YuVt1yFDaPI9r
tjyrntCku+l79MwGCLU4AoYL+5jOefxtdPZuDH3lOwB2oeN2ybYfCvMvksRt0WB7
JJjWe7H598PMO1sluw9/7Sh3DLd4YCIfc9w7lnkdQtveickCAwEAAaNWMFQwDgYD
VR0PAQH/BAQDAgeAMCMGA1UdIwQcMBqAGAQWBBTtpEcrNUjfTMOSigUWilK4U570
PjAdBgNVHQ4EFgQUwMNfEDstM4gYK8a8WQno8Qt1IZQwQQYJKoZIhvcNAQEKMDSg
DzANBglghkgBZQMEAgEFAKEcMBoGCSqGSIb3DQEBCDANBglghkgBZQMEAgEFAKID
AgEgA4ICAQANsbkQ7P3OljNurVYmgB4g/76/tLMzbRExCuUltzxJW1zVZb4juuHN
kmjIsUupaiYG8F8fQJpeRam2qgaPaPWqTYwn1lm8K+Ab4jE+9F6nyTJfvI2+BzOc
GFsTUr+6If2YafJE9UMCeQWGP1kLX5srtQVTvb7fNHHnEvmijdKoqPv8Xcnkl6j5
3aZjeM6RrpSqrdtneHwquq9OWnjuKVDGZ1bDiIl52wjCQ+GLczPUtHai+qHNmhOi
biT+JoT//fDb96vHlf40Y39zyxRFx0kx9zws8CbAPtvJOfWg6OjY50ARZRfixc6u
FrCmnHtpzfcO3f+XwPBIBmvTjphZDGRqNjP46wqUv5vfpquIprhNef+jYi3k+719
IBn5QuBNq4vJcMYHitK4WJ24TIxemq5YIXQYQct4t90V04Byhz7phox5P2rZJl3V
BOSss7bGu64qc5Dh96joLLHFLChqqqDbhq7RI6Gl8Yn0ShUMg3WTbktTQ9dpGzYd
H3wbbuMbzvGOYRTqTVGBH8eb9KJbgC0cDDhelHNXUcwn3Vvbdx3Y9KB2y50VTs9Z
cawH52o4BuNwx3vO/L3Eq2EnkIZ2mobJDIGbBJUN2ttBim5muQxgEKns/QgNTpEZ
gBTkFjQ7mB7gIC8SHDDmU5wXe5aA3GN5/Gl5aUc3rHDmnZQKax63jw==
-----END CERTIFICATE-----
