Certificate:
    Data:
        Version: 3 (0x2)
        Serial Number:
            65:89:ad:da:89:2b:c7:2f:e3:1d:0d:c2:26:da:e5:bd
    Signature Algorithm: rsassaPss
         Hash Algorithm: sha512
         Mask Algorithm: mgf1 with sha512
         Salt Length: 0x40
         Trailer Field: 0xBC (default)
        Issuer: C = DE, O = D-Trust GmbH, CN = D-TRUST CA 2-2 2019, 2.5.4.97 = NTRDE-HRB74346
        Validity
            Not Before: Jun  7 09:49:05 2021 GMT
            Not After : Jun 11 09:49:05 2023 GMT
        Subject: C = DE, O = Robert Koch-Institut, OU = Elektronischer Impfnachweis, CN = Robert Koch-Institut, L = Berlin, postalCode = 13353, street = Nordufer 20, 2.5.4.97 = DT:DE-3023531445, serialNumber = CSM026413213, ST = Berlin
        Subject Public Key Info:
            Public Key Algorithm: id-ecPublicKey
                Public-Key: (256 bit)
                pub:
                    04:b6:0c:f6:89:f9:93:8f:fb:d9:6c:16:b3:eb:19:
                    4d:09:d4:25:c3:81:50:53:bb:f7:75:4a:c9:61:01:
                    22:82:4e:0b:cf:c7:58:d5:cd:e9:1b:36:0e:df:74:
                    e3:ae:03:7f:42:7f:b2:1d:a6:0c:1e:5e:be:d3:a1:
                    a4:ec:0b:96:eb
                ASN1 OID: prime256v1
                NIST CURVE: P-256
        X509v3 extensions:
            X509v3 Authority Key Identifier: 
                keyid:71:10:32:AE:74:71:7B:54:8E:F1:D6:AB:62:54:AE:FC:3E:C0:BB:16

            qcStatements: 
                0.0......F..0......F..0......F...
            Authority Information Access: 
                OCSP - URI:http://d-trust-ca-2-2-2019.ocsp.d-trust.net
                CA Issuers - URI:http://www.d-trust.net/cgi-bin/D-TRUST_CA_2-2_2019.crt
                CA Issuers - URI:ldap://directory.d-trust.net/CN=D-TRUST%20CA%202-2%202019,O=D-Trust%20GmbH,C=DE?cACertificate?base?

            X509v3 Certificate Policies: 
                Policy: 0.4.0.194112.1.1
                Policy: 1.3.6.1.4.1.4788.2.150.5
                  CPS: http://www.d-trust.net/internet/files/D-TRUST_CSM_PKI_CPS.pdf

            X509v3 CRL Distribution Points: 

                Full Name:
                  URI:ldap://directory.d-trust.net/CN=D-TRUST%20CA%202-2%202019,O=D-Trust%20GmbH,C=DE?certificaterevocationlist
                  URI:http://crl.d-trust.net/crl/d-trust_ca_2-2_2019.crl
                  URI:http://cdn.d-trust-cloudcrl.net/crl/d-trust_ca_2-2_2019.crl

            X509v3 Subject Key Identifier: 
                FC:E7:73:22:33:AC:7A:FF:EA:71:0E:F5:BB:89:43:A9:0F:46:CD:69
            X509v3 Key Usage: critical
                Digital Signature, Non Repudiation
    Signature Algorithm: rsassaPss
         Hash Algorithm: sha512
         Mask Algorithm: mgf1 with sha512
         Salt Length: 0x40
         Trailer Field: 0xBC (default)

         6d:17:77:15:3c:09:51:1d:05:5b:66:d6:cd:d3:b7:dd:9c:72:
         e6:e0:a2:ba:19:3d:3e:1b:a6:04:fc:47:52:9b:aa:9d:8a:c8:
         cb:22:9a:b7:13:99:be:a5:67:f0:67:4b:eb:4f:ca:1a:8f:0e:
         c0:59:c2:53:21:38:51:7d:87:59:ce:5b:67:00:2e:00:47:a4:
         ea:3d:f6:09:e8:ab:22:c8:8a:88:15:8e:e2:18:24:ae:6c:3e:
         2f:e2:95:80:e5:3d:36:72:12:9f:f8:30:b5:67:4e:97:4f:9b:
         77:d4:ca:2a:97:6c:27:fb:5d:ca:3d:fb:bf:99:a9:1d:63:6a:
         fd:88:a4:f5:9f:42:d4:af:0d:e2:06:9e:68:c0:15:77:0d:a2:
         3a:7a:42:c8:c9:7a:51:bc:e1:7c:ae:85:9d:5b:37:d7:e9:9f:
         f9:75:69:a4:16:16:a8:6f:4a:b4:a6:f3:f2:ea:ec:94:98:ab:
         73:3e:e2:a1:16:01:65:c7:50:98:a0:4a:70:23:b9:d9:3c:30:
         56:08:5e:5a:5f:cf:a7:08:03:27:fb:bc:d2:ed:77:67:64:fd:
         ef:9e:99:b3:c3:2f:0c:e5:e0:40:2a:82:96:8c:6b:9c:1e:56:
         b3:22:df:4c:51:bb:3c:6b:52:35:b1:cf:93:3e:2b:5f:ff:29:
         7e:87:79:f0:25:25:d4:62:67:b2:d2:23:6c:4a:c0:cc:80:a5:
         4f:99:01:2e:5b:87:01:8b:eb:33:d5:de:24:32:4f:1d:01:46:
         ec:d8:e3:18:e8:22:6e:23:ac:d3:59:db:f5:e3:c7:c3:eb:ae:
         55:5e:68:fc:94:2b:eb:aa:96:48:b4:7b:48:98:44:d4:55:9e:
         73:28:c1:27:12:f9:0a:41:79:c4:26:37:df:8e:d2:5b:da:ee:
         fc:d8:10:08:bd:5b:c1:e7:65:3b:d5:de:64:72:0d:15:84:bb:
         32:f8:00:d0:46:dd:fb:53:8f:61:cc:89:bd:6a:8b:ef:99:5b:
         fd:02:ca:e7:97:8e:2b:94:91:36:64:77:fe:43:fa:b1:7e:9a:
         c0:11:ef:21:37:39:ec:c8:1d:51:f6:05:6e:90:56:00:31:16:
         57:7a:e9:97:ae:ae:79:f9:12:89:fc:40:a1:6f:75:76:ec:65:
         fa:a5:12:a8:0f:35:24:86:b7:59:bb:29:66:28:f7:61:e6:fb:
         d4:1e:74:99:b5:1b:15:7f:77:c1:0a:00:80:e1:de:c8:b1:58:
         4b:31:a5:d7:66:1e:aa:3b:c6:fb:61:c9:3b:fa:03:90:7f:65:
         0b:ff:cb:7c:04:3f:8a:4c:eb:e6:54:57:79:72:2d:6c:13:f6:
         7f:da:58:48:83:67:27:83
-----BEGIN CERTIFICATE-----
MIIHUTCCBQmgAwIBAgIQZYmt2okrxy/jHQ3CJtrlvTA9BgkqhkiG9w0BAQowMKAN
MAsGCWCGSAFlAwQCA6EaMBgGCSqGSIb3DQEBCDALBglghkgBZQMEAgOiAwIBQDBb
MQswCQYDVQQGEwJERTEVMBMGA1UEChMMRC1UcnVzdCBHbWJIMRwwGgYDVQQDExNE
LVRSVVNUIENBIDItMiAyMDE5MRcwFQYDVQRhEw5OVFJERS1IUkI3NDM0NjAeFw0y
MTA2MDcwOTQ5MDVaFw0yMzA2MTEwOTQ5MDVaMIHrMQswCQYDVQQGEwJERTEdMBsG
A1UEChMUUm9iZXJ0IEtvY2gtSW5zdGl0dXQxJDAiBgNVBAsTG0VsZWt0cm9uaXNj
aGVyIEltcGZuYWNod2VpczEdMBsGA1UEAxMUUm9iZXJ0IEtvY2gtSW5zdGl0dXQx
DzANBgNVBAcTBkJlcmxpbjEOMAwGA1UEEQwFMTMzNTMxFDASBgNVBAkTC05vcmR1
ZmVyIDIwMRkwFwYDVQRhExBEVDpERS0zMDIzNTMxNDQ1MRUwEwYDVQQFEwxDU00w
MjY0MTMyMTMxDzANBgNVBAgTBkJlcmxpbjBZMBMGByqGSM49AgEGCCqGSM49AwEH
A0IABLYM9on5k4/72WwWs+sZTQnUJcOBUFO793VKyWEBIoJOC8/HWNXN6Rs2Dt90
464Df0J/sh2mDB5evtOhpOwLluujggLpMIIC5TAfBgNVHSMEGDAWgBRxEDKudHF7
VI7x1qtiVK78PsC7FjAtBggrBgEFBQcBAwQhMB8wCAYGBACORgEBMBMGBgQAjkYB
BjAJBgcEAI5GAQYCMIH+BggrBgEFBQcBAQSB8TCB7jA3BggrBgEFBQcwAYYraHR0
cDovL2QtdHJ1c3QtY2EtMi0yLTIwMTkub2NzcC5kLXRydXN0Lm5ldDBCBggrBgEF
BQcwAoY2aHR0cDovL3d3dy5kLXRydXN0Lm5ldC9jZ2ktYmluL0QtVFJVU1RfQ0Ff
Mi0yXzIwMTkuY3J0MG8GCCsGAQUFBzAChmNsZGFwOi8vZGlyZWN0b3J5LmQtdHJ1
c3QubmV0L0NOPUQtVFJVU1QlMjBDQSUyMDItMiUyMDIwMTksTz1ELVRydXN0JTIw
R21iSCxDPURFP2NBQ2VydGlmaWNhdGU/YmFzZT8wcAYDVR0gBGkwZzAJBgcEAIvs
QAEBMFoGCysGAQQBpTQCgRYFMEswSQYIKwYBBQUHAgEWPWh0dHA6Ly93d3cuZC10
cnVzdC5uZXQvaW50ZXJuZXQvZmlsZXMvRC1UUlVTVF9DU01fUEtJX0NQUy5wZGYw
gfAGA1UdHwSB6DCB5TCB4qCB36CB3IZpbGRhcDovL2RpcmVjdG9yeS5kLXRydXN0
Lm5ldC9DTj1ELVRSVVNUJTIwQ0ElMjAyLTIlMjAyMDE5LE89RC1UcnVzdCUyMEdt
YkgsQz1ERT9jZXJ0aWZpY2F0ZXJldm9jYXRpb25saXN0hjJodHRwOi8vY3JsLmQt
dHJ1c3QubmV0L2NybC9kLXRydXN0X2NhXzItMl8yMDE5LmNybIY7aHR0cDovL2Nk
bi5kLXRydXN0LWNsb3VkY3JsLm5ldC9jcmwvZC10cnVzdF9jYV8yLTJfMjAxOS5j
cmwwHQYDVR0OBBYEFPzncyIzrHr/6nEO9buJQ6kPRs1pMA4GA1UdDwEB/wQEAwIG
wDA9BgkqhkiG9w0BAQowMKANMAsGCWCGSAFlAwQCA6EaMBgGCSqGSIb3DQEBCDAL
BglghkgBZQMEAgOiAwIBQAOCAgEAbRd3FTwJUR0FW2bWzdO33Zxy5uCiuhk9Phum
BPxHUpuqnYrIyyKatxOZvqVn8GdL60/KGo8OwFnCUyE4UX2HWc5bZwAuAEek6j32
CeirIsiKiBWO4hgkrmw+L+KVgOU9NnISn/gwtWdOl0+bd9TKKpdsJ/tdyj37v5mp
HWNq/Yik9Z9C1K8N4gaeaMAVdw2iOnpCyMl6UbzhfK6FnVs31+mf+XVppBYWqG9K
tKbz8urslJircz7ioRYBZcdQmKBKcCO52TwwVgheWl/PpwgDJ/u80u13Z2T9756Z
s8MvDOXgQCqCloxrnB5WsyLfTFG7PGtSNbHPkz4rX/8pfod58CUl1GJnstIjbErA
zIClT5kBLluHAYvrM9XeJDJPHQFG7NjjGOgibiOs01nb9ePHw+uuVV5o/JQr66qW
SLR7SJhE1FWecyjBJxL5CkF5xCY3347SW9ru/NgQCL1bwedlO9XeZHINFYS7MvgA
0Ebd+1OPYcyJvWqL75lb/QLK55eOK5SRNmR3/kP6sX6awBHvITc57MgdUfYFbpBW
ADEWV3rpl66uefkSifxAoW91duxl+qUSqA81JIa3WbspZij3Yeb71B50mbUbFX93
wQoAgOHeyLFYSzGl12YeqjvG+2HJO/oDkH9lC//LfAQ/ikzr5lRXeXItbBP2f9pY
SINnJ4M=
-----END CERTIFICATE-----
