Certificate:
    Data:
        Version: 3 (0x2)
        Serial Number:
            5b:a0:63:75:7d:86:22:4a:3c:62:ff:38:b1:2e:36:f1:cd:c3:1f:ab
    Signature Algorithm: sha256WithRSAEncryption
        Issuer: C = FR, O = Gouv, CN = CSCA-FRANCE
        Validity
            Not Before: Jun 10 22:00:00 2021 GMT
            Not After : Jun 10 22:00:00 2023 GMT
        Subject: C = FR, O = DGS, OU = 120036017, CN = DSC_FR_018
        Subject Public Key Info:
            Public Key Algorithm: id-ecPublicKey
                Public-Key: (256 bit)
                pub:
                    04:f1:28:c3:74:51:46:c5:3b:a7:27:44:50:cb:17:
                    46:0d:b0:4a:55:48:c7:cf:d8:0a:c9:d8:69:2a:e4:
                    d9:02:f6:19:33:31:95:55:5e:cd:62:12:46:42:a3:
                    a9:e0:ec:7a:c1:4d:f2:fb:36:3a:eb:a9:df:01:e6:
                    80:3d:c2:0d:47
                ASN1 OID: prime256v1
                NIST CURVE: P-256
        X509v3 extensions:
            X509v3 Subject Key Identifier: 
                D0:E3:4C:FC:E5:43:D2:D3:FD:06:E4:88:1A:62:19:46:B3:DD:12:71
            X509v3 Authority Key Identifier: 
                keyid:BE:8A:2E:D6:C9:F9:20:4E:3A:27:03:08:97:4D:EC:FD:D9:7D:C5:E6

            X509v3 Basic Constraints: critical
                CA:FALSE
            X509v3 Key Usage: critical
                Digital Signature
            X509v3 CRL Distribution Points: 

                Full Name:
                  URI:http://ants.gouv.fr/csca_crl

            X509v3 Certificate Policies: 
                Policy: 1.2.250.1.200.31.3.9.1.1

            Authority Information Access: 
                CA Issuers - URI:https://ant.gouv.fr/csca

    Signature Algorithm: sha256WithRSAEncryption
         3b:17:24:5e:ff:7e:96:0c:98:bf:d8:55:39:72:99:eb:57:c7:
         57:a5:95:07:10:6c:c7:45:9e:af:69:92:0f:d3:64:bc:11:d9:
         5c:0c:ed:fd:f9:a9:86:9a:fe:c7:ad:06:dc:2c:08:7b:b6:63:
         e1:a6:28:bb:0f:29:68:c3:28:ef:9e:30:45:73:c7:09:b6:7f:
         92:71:b3:10:df:82:34:ca:89:0e:be:d1:49:bf:27:d2:04:e9:
         4a:e6:e7:48:c8:5a:c3:8d:db:1f:aa:bd:81:37:1f:7c:d9:7e:
         1d:2b:45:18:41:f1:82:b9:fa:69:7e:56:4e:7d:aa:af:e1:8f:
         00:e6:50:53:45:70:25:5c:f2:41:49:9f:c6:32:f1:40:37:99:
         9e:b0:68:67:3c:3d:27:14:d9:e9:38:71:9f:5c:6e:43:90:d1:
         37:80:14:58:53:2b:30:21:8d:9d:ee:f7:61:08:d8:82:1f:cd:
         9f:49:6e:26:cc:fb:3f:a0:c4:1a:23:71:f0:f0:88:80:81:4c:
         30:a4:ca:97:04:7b:34:17:19:fc:77:85:b1:ae:91:a3:d3:ba:
         f6:5a:32:0e:54:d9:35:25:5d:4e:1c:ab:c7:7e:e5:4f:4b:5a:
         e8:67:da:4d:35:49:28:28:77:f5:87:8e:9f:d6:75:9c:cd:43:
         39:8e:65:72:d1:7b:ef:c3:e6:61:bd:27:a5:47:00:bb:3d:0e:
         f8:05:4a:0f:81:b6:33:b0:d3:f4:4a:f1:8e:9e:12:50:ae:13:
         98:93:71:92:21:ff:44:69:0c:64:96:a5:53:f1:64:44:a0:20:
         cd:c5:f4:66:35:87:42:27:34:17:af:f1:99:fc:48:35:fb:a4:
         4f:bd:8b:90:5a:0b:01:dd:26:20:75:54:33:fe:90:91:1c:26:
         6f:12:35:3c:bd:42:f6:97:05:b8:c2:05:a5:c3:e4:3b:3a:b5:
         eb:a5:6d:49:3b:19:7d:f3:34:51:4a:95:b1:46:b9:44:db:87:
         2b:cd:32:77:d6:13:3b:9f:c5:85:4a:c1:75:64:d9:ce:a0:08:
         72:d2:74:71:75:e3:a4:a4:37:04:57:2a:31:6a:eb:8f:18:75:
         02:34:83:26:be:f3:c6:e6:9b:2b:3b:8d:7b:1c:b2:46:1d:fd:
         e8:2e:42:9a:75:20:4a:fc:d9:fd:bb:46:02:09:af:72:a4:de:
         8b:44:9f:6c:97:0c:48:4c:0b:0a:4e:b6:2d:b6:31:20:34:08:
         ac:61:52:e8:8e:d1:dc:0a:40:2b:e4:97:ea:2f:dd:eb:15:82:
         3d:05:84:b6:c7:f9:36:40:64:e5:28:cf:4b:a1:45:29:cd:a6:
         03:cf:5e:ab:75:d8:9a:49
-----BEGIN CERTIFICATE-----
MIIEGjCCAgKgAwIBAgIUW6BjdX2GIko8Yv84sS428c3DH6swDQYJKoZIhvcNAQEL
BQAwMjELMAkGA1UEBhMCRlIxDTALBgNVBAoMBEdvdXYxFDASBgNVBAMMC0NTQ0Et
RlJBTkNFMB4XDTIxMDYxMDIyMDAwMFoXDTIzMDYxMDIyMDAwMFowRDELMAkGA1UE
BhMCRlIxDDAKBgNVBAoMA0RHUzESMBAGA1UECwwJMTIwMDM2MDE3MRMwEQYDVQQD
DApEU0NfRlJfMDE4MFkwEwYHKoZIzj0CAQYIKoZIzj0DAQcDQgAE8SjDdFFGxTun
J0RQyxdGDbBKVUjHz9gKydhpKuTZAvYZMzGVVV7NYhJGQqOp4Ox6wU3y+zY666nf
AeaAPcINR6OB4DCB3TAdBgNVHQ4EFgQU0ONM/OVD0tP9BuSIGmIZRrPdEnEwHwYD
VR0jBBgwFoAUvoou1sn5IE46JwMIl03s/dl9xeYwDAYDVR0TAQH/BAIwADAOBgNV
HQ8BAf8EBAMCB4AwLQYDVR0fBCYwJDAioCCgHoYcaHR0cDovL2FudHMuZ291di5m
ci9jc2NhX2NybDAYBgNVHSAEETAPMA0GCyqBegGBSB8DCQEBMDQGCCsGAQUFBwEB
BCgwJjAkBggrBgEFBQcwAoYYaHR0cHM6Ly9hbnQuZ291di5mci9jc2NhMA0GCSqG
SIb3DQEBCwUAA4ICAQA7FyRe/36WDJi/2FU5cpnrV8dXpZUHEGzHRZ6vaZIP02S8
EdlcDO39+amGmv7HrQbcLAh7tmPhpii7DylowyjvnjBFc8cJtn+ScbMQ34I0yokO
vtFJvyfSBOlK5udIyFrDjdsfqr2BNx982X4dK0UYQfGCufppflZOfaqv4Y8A5lBT
RXAlXPJBSZ/GMvFAN5mesGhnPD0nFNnpOHGfXG5DkNE3gBRYUyswIY2d7vdhCNiC
H82fSW4mzPs/oMQaI3Hw8IiAgUwwpMqXBHs0Fxn8d4WxrpGj07r2WjIOVNk1JV1O
HKvHfuVPS1roZ9pNNUkoKHf1h46f1nWczUM5jmVy0Xvvw+ZhvSelRwC7PQ74BUoP
gbYzsNP0SvGOnhJQrhOYk3GSIf9EaQxklqVT8WREoCDNxfRmNYdCJzQXr/GZ/Eg1
+6RPvYuQWgsB3SYgdVQz/pCRHCZvEjU8vUL2lwW4wgWlw+Q7OrXrpW1JOxl98zRR
SpWxRrlE24crzTJ31hM7n8WFSsF1ZNnOoAhy0nRxdeOkpDcEVyoxauuPGHUCNIMm
vvPG5psrO417HLJGHf3oLkKadSBK/Nn9u0YCCa9ypN6LRJ9slwxITAsKTrYttjEg
NAisYVLojtHcCkAr5JfqL93rFYI9BYS2x/k2QGTlKM9LoUUpzaYDz16rddiaSQ==
-----END CERTIFICATE-----
