Certificate:
    Data:
        Version: 3 (0x2)
        Serial Number:
            50:82:a4:9f:d7:46:27:e1:6f:c3:68:ae:11:4e:2d:7a
    Signature Algorithm: rsassaPss
         Hash Algorithm: sha512
         Mask Algorithm: mgf1 with sha512
         Salt Length: 0x40
         Trailer Field: 0xBC (default)
        Issuer: C = DE, O = D-Trust GmbH, CN = D-TRUST CA 2-2 2019, 2.5.4.97 = NTRDE-HRB74346
        Validity
            Not Before: Jun 11 14:50:21 2021 GMT
            Not After : Jun 15 14:50:21 2023 GMT
        Subject: C = DE, O = Robert Koch-Institut, OU = Elektronischer Impfnachweis, CN = Robert Koch-Institut, L = Berlin, postalCode = 13353, street = Nordufer 20, 2.5.4.97 = DT:DE-3023531445, serialNumber = CSM026460026, ST = Berlin
        Subject Public Key Info:
            Public Key Algorithm: id-ecPublicKey
                Public-Key: (256 bit)
                pub:
                    04:87:dd:f8:22:23:02:b1:7a:7d:ef:ba:43:78:6e:
                    d6:8b:5d:52:fa:e1:86:a1:e9:ba:9d:23:5b:b4:22:
                    0b:71:24:f8:fb:f1:6a:1a:52:ce:04:9b:c8:64:f4:
                    a1:de:14:c7:c7:65:7b:57:ed:cb:ce:a8:ba:47:67:
                    5a:84:e9:e8:fe
                ASN1 OID: prime256v1
                NIST CURVE: P-256
        X509v3 extensions:
            X509v3 Authority Key Identifier: 
                keyid:71:10:32:AE:74:71:7B:54:8E:F1:D6:AB:62:54:AE:FC:3E:C0:BB:16

            qcStatements: 
                0.0......F..0......F..0......F...
            Authority Information Access: 
                OCSP - URI:http://d-trust-ca-2-2-2019.ocsp.d-trust.net
                CA Issuers - URI:http://www.d-trust.net/cgi-bin/D-TRUST_CA_2-2_2019.crt
                CA Issuers - URI:ldap://directory.d-trust.net/CN=D-TRUST%20CA%202-2%202019,O=D-Trust%20GmbH,C=DE?cACertificate?base?

            X509v3 Certificate Policies: 
                Policy: 0.4.0.194112.1.1
                Policy: 1.3.6.1.4.1.4788.2.150.5
                  CPS: http://www.d-trust.net/internet/files/D-TRUST_CSM_PKI_CPS.pdf

            X509v3 CRL Distribution Points: 

                Full Name:
                  URI:ldap://directory.d-trust.net/CN=D-TRUST%20CA%202-2%202019,O=D-Trust%20GmbH,C=DE?certificaterevocationlist
                  URI:http://crl.d-trust.net/crl/d-trust_ca_2-2_2019.crl
                  URI:http://cdn.d-trust-cloudcrl.net/crl/d-trust_ca_2-2_2019.crl

            X509v3 Subject Key Identifier: 
                F7:45:C0:C4:06:42:DB:AB:C3:BC:17:A9:17:1E:6D:A0:7E:9F:3E:AF
            X509v3 Key Usage: critical
                Digital Signature, Non Repudiation
    Signature Algorithm: rsassaPss
         Hash Algorithm: sha512
         Mask Algorithm: mgf1 with sha512
         Salt Length: 0x40
         Trailer Field: 0xBC (default)

         d1:74:6c:7d:ab:41:63:90:53:fc:77:d6:6d:44:2f:41:7b:62:
         b1:2d:31:a7:6a:b1:55:76:64:81:e8:c3:57:6a:fd:d0:ab:31:
         18:00:0c:f4:c6:48:c3:77:9e:6f:2c:1b:83:bc:a0:c2:17:4a:
         c2:ee:19:60:67:45:a6:bf:dc:60:7f:a3:e6:94:4f:0a:36:28:
         24:eb:23:08:40:c0:ec:60:ed:75:67:a7:42:bb:8c:d0:97:0a:
         23:82:86:82:d9:b4:d4:b6:46:4f:52:f7:ac:11:ca:87:40:e0:
         f5:f3:ab:01:2d:cb:d3:96:51:f9:c4:35:a0:32:ab:31:4b:86:
         9b:9e:c2:0d:38:1c:3d:79:b1:6b:09:b1:69:d8:cb:28:e6:a0:
         7c:fa:4e:90:c9:99:69:b3:4c:0d:dd:fe:d3:a8:08:43:b2:9f:
         1f:70:56:c1:91:d8:6e:a9:20:e5:d1:c7:c9:be:9c:bd:dc:10:
         6a:b7:cb:8c:f2:a5:71:6a:c0:09:65:fa:2b:2b:d8:62:ff:00:
         8f:77:f1:bb:dc:35:45:80:80:d4:7a:8e:19:f2:16:97:48:a7:
         d4:ba:02:26:16:0b:35:be:06:71:2d:df:7a:a8:6f:9d:40:0a:
         2f:40:59:37:ee:68:4a:03:1b:41:f8:b8:86:a1:9c:c2:10:4a:
         34:7e:14:55:f9:cb:e3:b7:fb:76:c2:71:af:7a:1b:f5:4f:95:
         2e:40:94:27:bc:82:e8:53:e3:63:4a:5e:7c:68:2c:81:09:7e:
         f6:b6:9b:06:33:5a:48:bc:23:c6:83:a6:13:1e:cf:6e:78:d4:
         e7:19:b1:8a:96:1a:ec:b2:be:80:bb:8b:7d:9c:ac:bb:e5:40:
         15:45:c0:c5:21:65:8f:3e:5c:29:69:fc:d2:ca:a0:49:c8:73:
         3a:52:51:a1:b0:88:ff:14:eb:ce:24:1c:ef:8a:51:19:5f:9e:
         58:15:e9:c9:b4:6e:e9:bb:d9:f1:8f:7a:10:7a:5b:77:25:ac:
         1b:db:03:3c:27:89:82:2a:b9:5d:d5:9f:47:72:54:a6:b5:6c:
         43:36:84:04:3c:c1:1a:ad:58:d1:f5:b1:38:ea:22:fa:04:08:
         41:73:ef:c7:db:01:8d:cf:5f:74:eb:e7:14:43:83:23:53:57:
         a2:d6:9b:d8:b9:4a:ce:d3:53:41:4d:de:10:18:5b:b0:78:e0:
         df:46:b5:a4:85:70:88:bf:e7:9b:1b:0c:2f:1c:62:34:90:19:
         ff:db:74:0f:bd:65:95:ba:d2:05:2e:ba:e4:14:e4:98:e6:cd:
         9e:bd:71:1e:84:bd:e3:08:38:2f:d5:1f:8a:72:c5:b1:29:07:
         a5:37:ab:f9:c4:21:ac:0e
-----BEGIN CERTIFICATE-----
MIIHUTCCBQmgAwIBAgIQUIKkn9dGJ+Fvw2iuEU4tejA9BgkqhkiG9w0BAQowMKAN
MAsGCWCGSAFlAwQCA6EaMBgGCSqGSIb3DQEBCDALBglghkgBZQMEAgOiAwIBQDBb
MQswCQYDVQQGEwJERTEVMBMGA1UEChMMRC1UcnVzdCBHbWJIMRwwGgYDVQQDExNE
LVRSVVNUIENBIDItMiAyMDE5MRcwFQYDVQRhEw5OVFJERS1IUkI3NDM0NjAeFw0y
MTA2MTExNDUwMjFaFw0yMzA2MTUxNDUwMjFaMIHrMQswCQYDVQQGEwJERTEdMBsG
A1UEChMUUm9iZXJ0IEtvY2gtSW5zdGl0dXQxJDAiBgNVBAsTG0VsZWt0cm9uaXNj
aGVyIEltcGZuYWNod2VpczEdMBsGA1UEAxMUUm9iZXJ0IEtvY2gtSW5zdGl0dXQx
DzANBgNVBAcTBkJlcmxpbjEOMAwGA1UEEQwFMTMzNTMxFDASBgNVBAkTC05vcmR1
ZmVyIDIwMRkwFwYDVQRhExBEVDpERS0zMDIzNTMxNDQ1MRUwEwYDVQQFEwxDU00w
MjY0NjAwMjYxDzANBgNVBAgTBkJlcmxpbjBZMBMGByqGSM49AgEGCCqGSM49AwEH
A0IABIfd+CIjArF6fe+6Q3hu1otdUvrhhqHpup0jW7QiC3Ek+PvxahpSzgSbyGT0
od4Ux8dle1fty86oukdnWoTp6P6jggLpMIIC5TAfBgNVHSMEGDAWgBRxEDKudHF7
VI7x1qtiVK78PsC7FjAtBggrBgEFBQcBAwQhMB8wCAYGBACORgEBMBMGBgQAjkYB
BjAJBgcEAI5GAQYCMIH+BggrBgEFBQcBAQSB8TCB7jA3BggrBgEFBQcwAYYraHR0
cDovL2QtdHJ1c3QtY2EtMi0yLTIwMTkub2NzcC5kLXRydXN0Lm5ldDBCBggrBgEF
BQcwAoY2aHR0cDovL3d3dy5kLXRydXN0Lm5ldC9jZ2ktYmluL0QtVFJVU1RfQ0Ff
Mi0yXzIwMTkuY3J0MG8GCCsGAQUFBzAChmNsZGFwOi8vZGlyZWN0b3J5LmQtdHJ1
c3QubmV0L0NOPUQtVFJVU1QlMjBDQSUyMDItMiUyMDIwMTksTz1ELVRydXN0JTIw
R21iSCxDPURFP2NBQ2VydGlmaWNhdGU/YmFzZT8wcAYDVR0gBGkwZzAJBgcEAIvs
QAEBMFoGCysGAQQBpTQCgRYFMEswSQYIKwYBBQUHAgEWPWh0dHA6Ly93d3cuZC10
cnVzdC5uZXQvaW50ZXJuZXQvZmlsZXMvRC1UUlVTVF9DU01fUEtJX0NQUy5wZGYw
gfAGA1UdHwSB6DCB5TCB4qCB36CB3IZpbGRhcDovL2RpcmVjdG9yeS5kLXRydXN0
Lm5ldC9DTj1ELVRSVVNUJTIwQ0ElMjAyLTIlMjAyMDE5LE89RC1UcnVzdCUyMEdt
YkgsQz1ERT9jZXJ0aWZpY2F0ZXJldm9jYXRpb25saXN0hjJodHRwOi8vY3JsLmQt
dHJ1c3QubmV0L2NybC9kLXRydXN0X2NhXzItMl8yMDE5LmNybIY7aHR0cDovL2Nk
bi5kLXRydXN0LWNsb3VkY3JsLm5ldC9jcmwvZC10cnVzdF9jYV8yLTJfMjAxOS5j
cmwwHQYDVR0OBBYEFPdFwMQGQturw7wXqRcebaB+nz6vMA4GA1UdDwEB/wQEAwIG
wDA9BgkqhkiG9w0BAQowMKANMAsGCWCGSAFlAwQCA6EaMBgGCSqGSIb3DQEBCDAL
BglghkgBZQMEAgOiAwIBQAOCAgEA0XRsfatBY5BT/HfWbUQvQXtisS0xp2qxVXZk
gejDV2r90KsxGAAM9MZIw3eebywbg7ygwhdKwu4ZYGdFpr/cYH+j5pRPCjYoJOsj
CEDA7GDtdWenQruM0JcKI4KGgtm01LZGT1L3rBHKh0Dg9fOrAS3L05ZR+cQ1oDKr
MUuGm57CDTgcPXmxawmxadjLKOagfPpOkMmZabNMDd3+06gIQ7KfH3BWwZHYbqkg
5dHHyb6cvdwQarfLjPKlcWrACWX6KyvYYv8Aj3fxu9w1RYCA1HqOGfIWl0in1LoC
JhYLNb4GcS3feqhvnUAKL0BZN+5oSgMbQfi4hqGcwhBKNH4UVfnL47f7dsJxr3ob
9U+VLkCUJ7yC6FPjY0pefGgsgQl+9rabBjNaSLwjxoOmEx7PbnjU5xmxipYa7LK+
gLuLfZysu+VAFUXAxSFljz5cKWn80sqgSchzOlJRobCI/xTrziQc74pRGV+eWBXp
ybRu6bvZ8Y96EHpbdyWsG9sDPCeJgiq5XdWfR3JUprVsQzaEBDzBGq1Y0fWxOOoi
+gQIQXPvx9sBjc9fdOvnFEODI1NXotab2LlKztNTQU3eEBhbsHjg30a1pIVwiL/n
mxsMLxxiNJAZ/9t0D71llbrSBS665BTkmObNnr1xHoS94wg4L9UfinLFsSkHpTer
+cQhrA4=
-----END CERTIFICATE-----
