Certificate:
    Data:
        Version: 3 (0x2)
        Serial Number:
            1c:7b:9a:57:ad:09:9b:18:f4:fd:26:9f:6f:8e:07:19:ec:e9:d9:4f
    Signature Algorithm: sha256WithRSAEncryption
        Issuer: C = FR, O = Gouv, CN = CSCA-FRANCE
        Validity
            Not Before: Sep 14 22:00:00 2021 GMT
            Not After : Sep 14 22:00:00 2023 GMT
        Subject: C = FR, O = CNAM, OU = 180035024, CN = DSC_FR_022
        Subject Public Key Info:
            Public Key Algorithm: id-ecPublicKey
                Public-Key: (256 bit)
                pub:
                    04:c7:61:ed:29:46:27:4b:12:70:fd:b8:04:0f:ed:
                    8b:25:03:00:22:3c:80:f8:8d:a9:96:75:52:e7:42:
                    42:5d:a2:00:2c:ab:2d:69:cd:fb:c0:1d:65:52:f6:
                    ac:7d:db:db:13:e9:cd:6c:2b:cc:90:63:dd:32:32:
                    e5:b8:c7:d3:de
                ASN1 OID: prime256v1
                NIST CURVE: P-256
        X509v3 extensions:
            X509v3 Subject Key Identifier: 
                6F:B8:3D:74:B4:B1:DB:4A:36:8C:CE:29:05:DC:61:50:C0:D4:79:F5
            X509v3 Authority Key Identifier: 
                keyid:BE:8A:2E:D6:C9:F9:20:4E:3A:27:03:08:97:4D:EC:FD:D9:7D:C5:E6

            X509v3 Basic Constraints: critical
                CA:FALSE
            X509v3 Key Usage: critical
                Digital Signature
            X509v3 CRL Distribution Points: 

                Full Name:
                  URI:http://ants.gouv.fr/csca_crl

            X509v3 Certificate Policies: 
                Policy: 1.2.250.1.200.31.3.9.1.1

            Authority Information Access: 
                CA Issuers - URI:https://ant.gouv.fr/csca

    Signature Algorithm: sha256WithRSAEncryption
         92:31:15:b7:33:d2:c4:55:4c:4d:47:9c:7b:7c:3b:3d:e3:38:
         43:67:ce:9f:e3:27:68:de:b4:83:a0:2e:b3:19:d4:51:91:87:
         12:b3:67:9a:3c:55:79:4e:a2:b0:b6:0f:07:d8:02:1c:1d:db:
         db:26:58:5c:78:7c:22:33:2c:7f:9e:f4:ca:20:e1:b1:60:73:
         c1:18:d0:73:c6:ba:b9:0a:19:4a:b0:97:17:25:6e:bc:01:99:
         fe:15:d6:0d:ff:40:20:a4:2b:6e:b8:3f:62:5b:0d:d2:a9:e1:
         b3:bc:77:56:c1:99:eb:65:c7:09:00:81:ba:9d:b0:31:d5:b8:
         54:e6:bb:e9:81:60:b2:42:88:4e:65:41:f1:13:44:fe:be:ec:
         42:7f:6d:46:61:96:ed:11:42:d9:fe:fc:bf:bb:e6:f2:bb:21:
         a8:1f:fa:2c:5b:70:45:ef:24:70:19:91:4b:0e:65:f6:95:4c:
         28:76:0b:3d:6f:35:35:a1:18:37:50:41:dc:13:47:f8:11:f7:
         f6:b8:3c:f4:53:ee:b8:b3:1c:3b:bd:0e:c3:ed:60:ed:e6:c3:
         f9:41:f8:55:b8:1f:85:2a:f1:f5:72:8f:e7:e1:6d:41:64:ec:
         6a:d1:dd:56:0e:af:61:83:4f:6b:d4:d1:f7:ff:5e:e1:0d:e3:
         dc:10:1f:9c:87:66:86:c4:f8:0e:e4:72:f4:ff:84:9f:d5:99:
         9a:0e:0d:34:55:15:af:c6:9d:95:22:a4:89:93:a8:24:a4:90:
         87:d4:ce:6a:f1:78:22:4b:dd:fc:10:f4:4b:55:1d:8e:9a:c0:
         a4:dd:d7:6a:e0:d1:aa:f8:ca:9f:88:ad:b0:b7:34:9b:47:2d:
         50:4e:5e:db:7e:02:2c:c6:dd:34:93:3a:13:13:c6:fa:e9:00:
         76:d2:b9:57:d1:57:c1:dc:af:97:4f:b1:54:80:58:f6:72:38:
         df:3e:74:28:ee:59:7b:23:96:9e:ac:11:58:23:ea:67:5d:45:
         2e:ea:85:be:81:29:40:fa:71:dd:dd:8d:73:f2:25:42:86:a5:
         2d:65:ed:65:83:ce:88:49:25:86:a0:02:ee:9d:50:6b:e0:06:
         d9:18:2c:4f:1c:88:68:cc:c2:00:d8:c2:0c:81:4c:07:37:0e:
         e8:46:e7:1c:33:d1:f4:be:57:cb:8c:2a:88:b7:90:d3:ac:de:
         53:46:11:d9:61:7e:f4:35:4c:0d:1e:63:e6:55:11:e5:05:85:
         08:34:ca:fc:1f:0e:6e:37:6c:66:5f:d8:f5:07:7b:46:84:13:
         f7:06:ed:01:ad:7e:32:90:97:93:b4:e7:a1:11:86:d4:74:9d:
         86:2f:f2:79:ee:ba:d4:fd
-----BEGIN CERTIFICATE-----
MIIEGzCCAgOgAwIBAgIUHHuaV60Jmxj0/Safb44HGezp2U8wDQYJKoZIhvcNAQEL
BQAwMjELMAkGA1UEBhMCRlIxDTALBgNVBAoMBEdvdXYxFDASBgNVBAMMC0NTQ0Et
RlJBTkNFMB4XDTIxMDkxNDIyMDAwMFoXDTIzMDkxNDIyMDAwMFowRTELMAkGA1UE
BhMCRlIxDTALBgNVBAoMBENOQU0xEjAQBgNVBAsMCTE4MDAzNTAyNDETMBEGA1UE
AwwKRFNDX0ZSXzAyMjBZMBMGByqGSM49AgEGCCqGSM49AwEHA0IABMdh7SlGJ0sS
cP24BA/tiyUDACI8gPiNqZZ1UudCQl2iACyrLWnN+8AdZVL2rH3b2xPpzWwrzJBj
3TIy5bjH096jgeAwgd0wHQYDVR0OBBYEFG+4PXS0sdtKNozOKQXcYVDA1Hn1MB8G
A1UdIwQYMBaAFL6KLtbJ+SBOOicDCJdN7P3ZfcXmMAwGA1UdEwEB/wQCMAAwDgYD
VR0PAQH/BAQDAgeAMC0GA1UdHwQmMCQwIqAgoB6GHGh0dHA6Ly9hbnRzLmdvdXYu
ZnIvY3NjYV9jcmwwGAYDVR0gBBEwDzANBgsqgXoBgUgfAwkBATA0BggrBgEFBQcB
AQQoMCYwJAYIKwYBBQUHMAKGGGh0dHBzOi8vYW50LmdvdXYuZnIvY3NjYTANBgkq
hkiG9w0BAQsFAAOCAgEAkjEVtzPSxFVMTUece3w7PeM4Q2fOn+MnaN60g6AusxnU
UZGHErNnmjxVeU6isLYPB9gCHB3b2yZYXHh8IjMsf570yiDhsWBzwRjQc8a6uQoZ
SrCXFyVuvAGZ/hXWDf9AIKQrbrg/YlsN0qnhs7x3VsGZ62XHCQCBup2wMdW4VOa7
6YFgskKITmVB8RNE/r7sQn9tRmGW7RFC2f78v7vm8rshqB/6LFtwRe8kcBmRSw5l
9pVMKHYLPW81NaEYN1BB3BNH+BH39rg89FPuuLMcO70Ow+1g7ebD+UH4VbgfhSrx
9XKP5+FtQWTsatHdVg6vYYNPa9TR9/9e4Q3j3BAfnIdmhsT4DuRy9P+En9WZmg4N
NFUVr8adlSKkiZOoJKSQh9TOavF4Ikvd/BD0S1UdjprApN3XauDRqvjKn4itsLc0
m0ctUE5e234CLMbdNJM6ExPG+ukAdtK5V9FXwdyvl0+xVIBY9nI43z50KO5ZeyOW
nqwRWCPqZ11FLuqFvoEpQPpx3d2Nc/IlQoalLWXtZYPOiEklhqAC7p1Qa+AG2Rgs
TxyIaMzCANjCDIFMBzcO6EbnHDPR9L5Xy4wqiLeQ06zeU0YR2WF+9DVMDR5j5lUR
5QWFCDTK/B8ObjdsZl/Y9Qd7RoQT9wbtAa1+MpCXk7TnoRGG1HSdhi/yee661P0=
-----END CERTIFICATE-----
