Certificate:
    Data:
        Version: 3 (0x2)
        Serial Number: 3716072551804350432 (0x3392244c19e0afe0)
    Signature Algorithm: rsassaPss
         Hash Algorithm: sha256
         Mask Algorithm: mgf1 with sha256
         Salt Length: 0x20
         Trailer Field: 0xBC (default)
        Issuer: C = LU, O = INCERT public agency, CN = Grand Duchy of Luxembourg CSCA
        Validity
            Not Before: Jun  9 09:48:55 2021 GMT
            Not After : Jun  9 09:48:55 2023 GMT
        Subject: C = LU, O = Ministry of Health, CN = Grand Duchy of Luxembourg DS DCC 1
        Subject Public Key Info:
            Public Key Algorithm: id-ecPublicKey
                Public-Key: (256 bit)
                pub:
                    04:13:15:d0:6a:ea:2e:dd:fd:e0:ef:ba:8e:b1:9d:
                    2b:48:f1:63:a1:30:e2:29:00:e1:1b:e0:69:7f:7e:
                    18:ca:87:85:91:83:01:30:bf:3d:d0:a6:aa:99:92:
                    f8:b9:ec:c1:73:cc:71:83:57:f5:ef:4a:9c:65:61:
                    c8:2e:3a:78:ab
                ASN1 OID: prime256v1
                NIST CURVE: P-256
        X509v3 extensions:
            X509v3 Subject Key Identifier: 
                5F:8B:53:BB:81:C5:2A:0E:E4:87:BF:FB:14:27:8F:F3:EE:C3:E4:2C
            X509v3 Authority Key Identifier: 
                keyid:1A:CF:47:C7:98:E5:35:4C:8F:9F:55:AB:A8:9A:F9:E3:C7:3C:9D:7B

            X509v3 Issuer Alternative Name: 
                email:csca@incert.lu, DirName:/L=LUX
            X509v3 Private Key Usage Period: 
                Not Before: Jun  9 09:48:55 2021 GMT, Not After: Dec  6 09:48:55 2021 GMT
            X509v3 CRL Distribution Points: 

                Full Name:
                  URI:http://repository.incert.lu/csca.crl

            X509v3 Key Usage: critical
                Digital Signature
            X509v3 Subject Alternative Name: 
                email:csca@incert.lu, DirName:/L=LUX
    Signature Algorithm: rsassaPss
         Hash Algorithm: sha256
         Mask Algorithm: mgf1 with sha256
         Salt Length: 0x20
         Trailer Field: 0xBC (default)

         4e:47:43:53:88:78:9c:f7:82:41:f6:5a:ba:24:a5:bd:a7:2c:
         2f:f2:b6:87:b9:b7:dc:e4:2b:62:d8:f9:49:95:bd:33:f9:f6:
         e1:b5:77:22:16:57:9a:6f:da:1c:18:9c:28:92:38:e1:bc:d9:
         82:51:7d:db:2d:b3:78:bf:d0:d1:e5:11:23:c2:86:fc:a8:1b:
         f1:3d:ee:db:dd:8c:1f:1d:a1:38:f8:80:20:93:c7:52:66:46:
         9a:76:bc:e4:19:b9:0b:0e:07:94:1e:4d:8e:e7:2f:7c:82:1d:
         91:7b:ca:78:85:0c:f4:29:93:65:a9:13:8b:58:e2:0c:71:b7:
         4f:21:96:14:6c:e0:2d:a2:67:c8:e2:37:60:dc:32:a2:70:8a:
         9a:6e:d0:e7:40:71:af:66:44:53:e7:56:cf:ed:1a:30:53:ef:
         64:2b:12:73:cf:5d:6b:b5:a7:3d:71:74:85:ba:b0:36:c2:d8:
         e8:42:90:03:0f:0b:8a:9e:85:68:74:d0:3b:a1:c5:e6:20:90:
         91:7a:72:0e:4d:38:b4:f6:8a:20:1e:12:fd:3f:0c:67:58:b3:
         2d:65:33:92:71:13:80:66:59:a6:7d:99:1b:af:36:fc:df:de:
         50:ba:0d:51:47:4e:bd:d1:ef:ff:3c:45:b9:71:7d:60:3f:4c:
         7e:c4:d9:34:13:e3:42:70:85:0d:18:ca:1a:96:60:2f:96:d1:
         3d:9c:4d:6d:8d:20:27:9d:b4:8a:40:bf:ca:04:09:17:a7:b7:
         1c:ef:71:ea:2f:b9:0c:3f:07:16:9c:65:46:ec:f1:61:09:15:
         6f:96:28:62:6f:01:ec:9a:16:b9:0b:af:37:b7:53:95:07:de:
         4b:ab:0f:7b:46:f7:b1:3b:ef:06:c5:bb:7d:62:8a:f0:e6:7e:
         da:ef:5a:ff:ce:48:31:56:a4:58:8f:90:43:f4:a5:ee:3a:79:
         8f:b1:fc:a1:a2:05:93:58:8f:ab:31:78:2d:b5:5b:b0:b1:01:
         fb:50:76:0a:0e:00:f5:3d:d6:3f:68:b4:8f:f4:9f:fe:d7:2d:
         5e:f5:63:57:e7:b7:4d:a7:67:00:ce:bb:b6:a3:2c:77:9b:a6:
         35:2d:9e:70:ec:1e:88:ce:02:bd:cd:40:a1:32:f3:7e:97:83:
         61:37:26:d1:82:59:60:4a:9e:4b:e0:8f:5f:ec:c1:80:4b:69:
         9c:44:f4:51:06:a3:79:d3:b2:df:53:a7:04:bc:1a:98:17:16:
         84:04:a1:33:52:57:95:01:54:2c:13:d9:d8:dc:64:21:26:84:
         6e:06:3c:2a:ea:7a:88:75:73:a6:df:4d:16:ed:39:15:ef:d8:
         76:6a:62:0b:fb:c3:a7:a8
-----BEGIN CERTIFICATE-----
MIIE3zCCApOgAwIBAgIIM5IkTBngr+AwQQYJKoZIhvcNAQEKMDSgDzANBglghkgB
ZQMEAgEFAKEcMBoGCSqGSIb3DQEBCDANBglghkgBZQMEAgEFAKIDAgEgMFUxCzAJ
BgNVBAYTAkxVMR0wGwYDVQQKDBRJTkNFUlQgcHVibGljIGFnZW5jeTEnMCUGA1UE
AwweR3JhbmQgRHVjaHkgb2YgTHV4ZW1ib3VyZyBDU0NBMB4XDTIxMDYwOTA5NDg1
NVoXDTIzMDYwOTA5NDg1NVowVzELMAkGA1UEBhMCTFUxGzAZBgNVBAoMEk1pbmlz
dHJ5IG9mIEhlYWx0aDErMCkGA1UEAwwiR3JhbmQgRHVjaHkgb2YgTHV4ZW1ib3Vy
ZyBEUyBEQ0MgMTBZMBMGByqGSM49AgEGCCqGSM49AwEHA0IABBMV0GrqLt394O+6
jrGdK0jxY6Ew4ikA4RvgaX9+GMqHhZGDATC/PdCmqpmS+LnswXPMcYNX9e9KnGVh
yC46eKujggESMIIBDjAdBgNVHQ4EFgQUX4tTu4HFKg7kh7/7FCeP8+7D5CwwHwYD
VR0jBBgwFoAUGs9Hx5jlNUyPn1WrqJr548c8nXswKwYDVR0SBCQwIoEOY3NjYUBp
bmNlcnQubHWkEDAOMQwwCgYDVQQHDANMVVgwKwYDVR0QBCQwIoAPMjAyMTA2MDkw
OTQ4NTVagQ8yMDIxMTIwNjA5NDg1NVowNQYDVR0fBC4wLDAqoCigJoYkaHR0cDov
L3JlcG9zaXRvcnkuaW5jZXJ0Lmx1L2NzY2EuY3JsMA4GA1UdDwEB/wQEAwIHgDAr
BgNVHREEJDAigQ5jc2NhQGluY2VydC5sdaQQMA4xDDAKBgNVBAcMA0xVWDBBBgkq
hkiG9w0BAQowNKAPMA0GCWCGSAFlAwQCAQUAoRwwGgYJKoZIhvcNAQEIMA0GCWCG
SAFlAwQCAQUAogMCASADggIBAE5HQ1OIeJz3gkH2Wrokpb2nLC/ytoe5t9zkK2LY
+UmVvTP59uG1dyIWV5pv2hwYnCiSOOG82YJRfdsts3i/0NHlESPChvyoG/E97tvd
jB8doTj4gCCTx1JmRpp2vOQZuQsOB5QeTY7nL3yCHZF7yniFDPQpk2WpE4tY4gxx
t08hlhRs4C2iZ8jiN2DcMqJwippu0OdAca9mRFPnVs/tGjBT72QrEnPPXWu1pz1x
dIW6sDbC2OhCkAMPC4qehWh00DuhxeYgkJF6cg5NOLT2iiAeEv0/DGdYsy1lM5Jx
E4BmWaZ9mRuvNvzf3lC6DVFHTr3R7/88RblxfWA/TH7E2TQT40JwhQ0YyhqWYC+W
0T2cTW2NICedtIpAv8oECRentxzvceovuQw/BxacZUbs8WEJFW+WKGJvAeyaFrkL
rze3U5UH3kurD3tG97E77wbFu31iivDmftrvWv/OSDFWpFiPkEP0pe46eY+x/KGi
BZNYj6sxeC21W7CxAftQdgoOAPU91j9otI/0n/7XLV71Y1fnt02nZwDOu7ajLHeb
pjUtnnDsHojOAr3NQKEy836Xg2E3JtGCWWBKnkvgj1/swYBLaZxE9FEGo3nTst9T
pwS8GpgXFoQEoTNSV5UBVCwT2djcZCEmhG4GPCrqeoh1c6bfTRbtORXv2HZqYgv7
w6eo
-----END CERTIFICATE-----
