Certificate:
    Data:
        Version: 3 (0x2)
        Serial Number: 22 (0x16)
    Signature Algorithm: rsassaPss
         Hash Algorithm: sha256
         Mask Algorithm: mgf1 with sha256
         Salt Length: 0x20
         Trailer Field: 0xBC (default)
        Issuer: C = EE, O = Estonia, OU = Police and Border Guard Board, serialNumber = 01-2020, CN = CSCA_Estonia
        Validity
            Not Before: Jun  8 11:39:22 2021 GMT
            Not After : Dec  5 11:39:22 2023 GMT
        Subject: CN = 02-2021_DCC, serialNumber = 02-2021, C = EE, O = Estonia, OU = Health and Welfare Information Systems Centre
        Subject Public Key Info:
            Public Key Algorithm: id-ecPublicKey
                Public-Key: (256 bit)
                pub:
                    04:bd:6f:10:78:69:34:61:03:06:43:fc:06:da:fa:
                    4f:6a:54:5d:a0:a3:5f:77:8f:0e:da:a5:b9:b8:fe:
                    a0:9a:04:66:d4:e9:eb:42:bd:a0:b4:7d:d7:2b:13:
                    5f:54:37:ae:36:ea:9e:a2:6b:12:46:40:d6:6b:70:
                    d7:ab:02:dc:e0
                ASN1 OID: prime256v1
                NIST CURVE: P-256
        X509v3 extensions:
            X509v3 Subject Key Identifier: 
                AF:3E:2E:26:00:EE:27:ED:5F:01:68:41:3D:0A:66:58:93:AA:BD:43
            X509v3 Private Key Usage Period: 
                Not Before: Jun  8 11:39:22 2021 GMT, Not After: Dec  5 11:39:22 2021 GMT
            X509v3 Key Usage: critical
                Digital Signature
            X509v3 CRL Distribution Points: 

                Full Name:
                  URI:https://www.pki.politsei.ee/csca.crl

            X509v3 Authority Key Identifier: 
                keyid:55:AB:D2:6F:85:7E:EE:40:E0:61:4A:DF:98:3E:2B:B6:93:6C:55:BC

    Signature Algorithm: rsassaPss
         Hash Algorithm: sha256
         Mask Algorithm: mgf1 with sha256
         Salt Length: 0x20
         Trailer Field: 0xBC (default)

         27:f3:88:25:ac:35:1e:0f:b2:0f:b4:c7:dd:83:c6:ee:ec:7a:
         23:81:69:c7:54:02:d5:43:dd:22:8b:86:d0:77:07:9b:c2:dd:
         7b:e7:01:d4:81:e5:1d:cf:c2:d3:78:ef:55:69:e4:6d:e1:f4:
         9a:5a:47:2d:c4:ad:34:80:88:81:cf:30:7e:13:8b:4b:fc:83:
         be:8a:ff:b1:84:8d:35:7d:af:f4:e7:09:bb:15:a6:2f:a6:b6:
         6f:70:b9:be:e4:09:36:bd:3d:1e:b4:aa:bf:ed:4c:0c:cf:d0:
         8f:ba:91:4a:b6:8e:f4:94:a6:e7:d4:ad:c9:aa:04:75:95:e0:
         2b:8d:1e:36:74:b1:7d:10:f6:1c:54:69:aa:be:9a:63:e1:41:
         ec:e3:47:e7:7f:e7:0a:2f:cf:4f:e7:d6:e8:b0:76:85:2f:95:
         b4:15:1a:5a:dd:69:4a:1b:36:5b:c7:1a:84:d2:7f:3b:aa:2e:
         8e:ab:8a:0e:14:e3:f2:ea:9d:6e:15:7d:96:e8:36:24:9d:bf:
         78:bc:56:6b:01:18:54:60:b6:d0:73:2b:83:da:b0:5b:de:f5:
         99:1d:d4:78:66:66:6c:96:f4:2b:21:eb:e1:bd:4b:ba:90:be:
         b0:df:3c:fc:0d:02:c0:2c:9b:4b:7c:76:0e:56:bf:3a:f3:df:
         7f:b5:b5:06:a1:72:84:4c:c1:80:32:f5:8c:1f:62:54:5e:7b:
         7a:b6:06:92:83:dd:f6:81:ca:4c:84:1d:67:ce:2e:ec:92:8b:
         be:2d:77:c4:91:80:47:82:80:b2:bc:ab:7c:fd:16:71:cd:bd:
         f9:34:09:3d:9c:1e:75:a6:ae:cf:de:8e:52:90:bd:da:17:2e:
         db:57:08:e5:da:e2:91:21:7f:63:d5:3d:ea:01:9a:cb:40:16:
         1c:cf:83:69:f0:3a:34:45:22:59:13:08:14:2d:c8:68:c8:cc:
         af:a1:45:c3:3e:2e:ab:a2:93:2b:4f:18:66:83:7f:0e:7d:3d:
         79:58:2b:05:c5:ea:1d:1e:bd:15:22:74:d2:5c:1d:b8:30:da:
         98:df:49:1e:6c:b9:c2:e2:f0:db:6a:c3:69:78:b2:99:46:00:
         91:96:42:73:53:d2:db:22:46:f1:b2:0e:7f:36:04:00:70:1b:
         11:29:49:43:ae:f5:32:6b:9d:54:34:4c:dc:fb:af:54:80:91:
         a7:48:d7:66:0f:ec:37:34:f4:e7:7a:c3:a6:4d:19:da:7c:4a:
         2d:c0:15:cc:fa:34:c1:18:27:a6:28:75:cd:57:21:55:36:a4:
         35:b5:b1:c2:c3:8f:7e:d0:92:56:76:63:12:10:07:be:af:c6:
         67:7c:ac:b2:c3:0d:45:47
-----BEGIN CERTIFICATE-----
MIIEtzCCAm+gAwIBAgIBFjA9BgkqhkiG9w0BAQowMKANMAsGCWCGSAFlAwQCAaEa
MBgGCSqGSIb3DQEBCDALBglghkgBZQMEAgGiAwIBIDBwMQswCQYDVQQGEwJFRTEQ
MA4GA1UECgwHRXN0b25pYTEmMCQGA1UECwwdUG9saWNlIGFuZCBCb3JkZXIgR3Vh
cmQgQm9hcmQxEDAOBgNVBAUTBzAxLTIwMjAxFTATBgNVBAMMDENTQ0FfRXN0b25p
YTAeFw0yMTA2MDgxMTM5MjJaFw0yMzEyMDUxMTM5MjJaMH8xFDASBgNVBAMWCzAy
LTIwMjFfRENDMRAwDgYDVQQFEwcwMi0yMDIxMQswCQYDVQQGEwJFRTEQMA4GA1UE
ChMHRXN0b25pYTE2MDQGA1UECxMtSGVhbHRoIGFuZCBXZWxmYXJlIEluZm9ybWF0
aW9uIFN5c3RlbXMgQ2VudHJlMFkwEwYHKoZIzj0CAQYIKoZIzj0DAQcDQgAEvW8Q
eGk0YQMGQ/wG2vpPalRdoKNfd48O2qW5uP6gmgRm1OnrQr2gtH3XKxNfVDeuNuqe
omsSRkDWa3DXqwLc4KOBtzCBtDAdBgNVHQ4EFgQUrz4uJgDuJ+1fAWhBPQpmWJOq
vUMwKwYDVR0QBCQwIoAPMjAyMTA2MDgxMTM5MjJagQ8yMDIxMTIwNTExMzkyMlow
DgYDVR0PAQH/BAQDAgeAMDUGA1UdHwQuMCwwKqAooCaGJGh0dHBzOi8vd3d3LnBr
aS5wb2xpdHNlaS5lZS9jc2NhLmNybDAfBgNVHSMEGDAWgBRVq9JvhX7uQOBhSt+Y
Piu2k2xVvDA9BgkqhkiG9w0BAQowMKANMAsGCWCGSAFlAwQCAaEaMBgGCSqGSIb3
DQEBCDALBglghkgBZQMEAgGiAwIBIAOCAgEAJ/OIJaw1Hg+yD7TH3YPG7ux6I4Fp
x1QC1UPdIouG0HcHm8Lde+cB1IHlHc/C03jvVWnkbeH0mlpHLcStNICIgc8wfhOL
S/yDvor/sYSNNX2v9OcJuxWmL6a2b3C5vuQJNr09HrSqv+1MDM/Qj7qRSraO9JSm
59StyaoEdZXgK40eNnSxfRD2HFRpqr6aY+FB7ONH53/nCi/PT+fW6LB2hS+VtBUa
Wt1pShs2W8cahNJ/O6oujquKDhTj8uqdbhV9lug2JJ2/eLxWawEYVGC20HMrg9qw
W971mR3UeGZmbJb0KyHr4b1LupC+sN88/A0CwCybS3x2Dla/OvPff7W1BqFyhEzB
gDL1jB9iVF57erYGkoPd9oHKTIQdZ84u7JKLvi13xJGAR4KAsryrfP0Wcc29+TQJ
PZwedaauz96OUpC92hcu21cI5drikSF/Y9U96gGay0AWHM+DafA6NEUiWRMIFC3I
aMjMr6FFwz4uq6KTK08YZoN/Dn09eVgrBcXqHR69FSJ00lwduDDamN9JHmy5wuLw
22rDaXiymUYAkZZCc1PS2yJG8bIOfzYEAHAbESlJQ671MmudVDRM3PuvVICRp0jX
Zg/sNzT053rDpk0Z2nxKLcAVzPo0wRgnpih1zVchVTakNbWxwsOPftCSVnZjEhAH
vq/GZ3ysssMNRUc=
-----END CERTIFICATE-----
