Certificate:
    Data:
        Version: 3 (0x2)
        Serial Number:
            68:10:72:ed:77:81:d6:bb:d9:91:95:1a:31:89:45:0f
    Signature Algorithm: rsassaPss
         Hash Algorithm: sha512
         Mask Algorithm: mgf1 with sha512
         Salt Length: 0x40
         Trailer Field: 0xBC (default)
        Issuer: C = DE, O = D-Trust GmbH, CN = D-TRUST CA 2-2 2019, 2.5.4.97 = NTRDE-HRB74346
        Validity
            Not Before: Jun  7 09:57:23 2021 GMT
            Not After : Jun 11 09:57:23 2023 GMT
        Subject: C = DE, O = Robert Koch-Institut, OU = Elektronischer Impfnachweis, CN = Robert Koch-Institut, L = Berlin, postalCode = 13353, street = Nordufer 20, 2.5.4.97 = DT:DE-3023531445, serialNumber = CSM026413541, ST = Berlin
        Subject Public Key Info:
            Public Key Algorithm: id-ecPublicKey
                Public-Key: (256 bit)
                pub:
                    04:fd:e1:96:b8:a7:0d:57:fa:1d:ec:48:78:10:9b:
                    a2:a8:13:ef:fb:4c:8f:e2:af:aa:ce:13:a5:34:57:
                    64:ce:eb:96:cb:a9:7e:86:18:d5:1f:17:5f:c6:9e:
                    17:0d:5b:ce:51:5d:83:f7:07:df:f3:5f:ed:35:f0:
                    6e:73:8a:42:98
                ASN1 OID: prime256v1
                NIST CURVE: P-256
        X509v3 extensions:
            X509v3 Authority Key Identifier: 
                keyid:71:10:32:AE:74:71:7B:54:8E:F1:D6:AB:62:54:AE:FC:3E:C0:BB:16

            qcStatements: 
                0.0......F..0......F..0......F...
            Authority Information Access: 
                OCSP - URI:http://d-trust-ca-2-2-2019.ocsp.d-trust.net
                CA Issuers - URI:http://www.d-trust.net/cgi-bin/D-TRUST_CA_2-2_2019.crt
                CA Issuers - URI:ldap://directory.d-trust.net/CN=D-TRUST%20CA%202-2%202019,O=D-Trust%20GmbH,C=DE?cACertificate?base?

            X509v3 Certificate Policies: 
                Policy: 0.4.0.194112.1.1
                Policy: 1.3.6.1.4.1.4788.2.150.5
                  CPS: http://www.d-trust.net/internet/files/D-TRUST_CSM_PKI_CPS.pdf

            X509v3 CRL Distribution Points: 

                Full Name:
                  URI:ldap://directory.d-trust.net/CN=D-TRUST%20CA%202-2%202019,O=D-Trust%20GmbH,C=DE?certificaterevocationlist
                  URI:http://crl.d-trust.net/crl/d-trust_ca_2-2_2019.crl
                  URI:http://cdn.d-trust-cloudcrl.net/crl/d-trust_ca_2-2_2019.crl

            X509v3 Subject Key Identifier: 
                4F:4E:E1:D0:38:8B:9B:B7:D1:F9:A1:94:FA:25:BE:3E:3B:34:67:00
            X509v3 Key Usage: critical
                Digital Signature, Non Repudiation
    Signature Algorithm: rsassaPss
         Hash Algorithm: sha512
         Mask Algorithm: mgf1 with sha512
         Salt Length: 0x40
         Trailer Field: 0xBC (default)

         50:7a:2e:5f:76:a2:3e:bd:5e:21:e3:73:00:4d:49:55:23:a1:
         c7:2e:08:e7:a3:fb:45:a5:1f:a4:16:1a:25:e5:68:b7:b8:cf:
         94:d5:aa:eb:6f:be:38:23:aa:51:6b:8b:bf:0f:db:4e:45:8d:
         3f:15:a1:56:1d:41:a1:0a:4b:f5:f1:0d:9a:10:81:04:2b:e9:
         52:fd:a5:98:70:6d:bd:61:61:01:29:d3:e1:34:12:0f:73:91:
         2d:77:c8:81:70:6f:a7:71:05:e9:3d:98:02:b8:c7:a1:bc:cb:
         7b:10:07:87:84:23:8e:69:a3:4c:a5:90:c3:4b:64:54:5c:0d:
         bb:90:bc:1a:4b:0a:ca:84:5a:39:4b:91:f1:d5:3f:64:d4:df:
         e9:50:0c:21:7b:f6:a2:c4:73:1b:5c:16:ac:bc:5c:12:c7:bc:
         5c:30:0f:c4:14:8e:6c:c2:f7:0d:b7:4b:5d:7c:6d:11:f0:26:
         a8:2e:b7:89:08:61:e2:4e:25:da:49:12:d3:cb:7a:a5:c9:e8:
         9f:17:7d:f9:92:6a:b4:5b:65:4e:03:df:9e:03:23:9e:5e:00:
         74:9c:ef:0c:91:5b:79:cd:4e:7f:aa:2e:30:c5:88:2d:c1:aa:
         4f:61:0a:5f:ca:3d:a6:31:75:96:e3:54:7a:f2:e0:14:5e:7b:
         e7:51:23:42:ca:c5:fc:42:78:53:c1:5d:fd:f4:55:bb:e3:e3:
         e9:b4:41:16:64:83:bd:c6:e0:c1:ef:c3:0b:f2:50:a2:60:90:
         7a:74:82:ed:a6:28:1f:3c:f9:e6:ca:87:f7:41:db:0e:30:6f:
         c2:71:2a:df:5c:d0:bb:2b:ca:22:d6:1b:ea:29:0f:a7:3c:ea:
         5c:78:61:9b:80:fd:58:33:7c:3c:6d:b4:3d:3a:c7:78:1c:2d:
         82:16:07:61:9f:c1:fc:41:15:a7:e3:07:6e:40:a2:96:60:66:
         90:7a:7c:f1:8d:d8:17:6e:ac:52:6e:94:93:0a:aa:2c:38:ed:
         e2:89:4d:62:d3:cc:a6:fd:43:be:ec:59:52:14:61:51:e5:f9:
         d7:c5:e2:f4:12:b9:17:89:81:91:aa:6b:7d:88:d9:32:5a:56:
         cc:ca:6f:15:1c:fd:42:f2:3d:48:4f:3c:88:9b:bd:6c:52:89:
         e6:60:25:6f:2d:44:2d:1e:a2:fe:66:0d:be:8a:07:d0:e3:3f:
         f4:e5:a1:0c:19:40:e7:17:b6:90:8b:09:86:b8:31:91:32:8b:
         37:32:88:91:fb:c5:f7:a8:0b:2e:41:47:8d:2f:60:46:25:61:
         22:4e:11:df:c8:0e:e3:84:8b:54:9a:e0:d9:4c:2b:ac:3d:cb:
         b2:b8:5e:5a:4f:39:95:91
-----BEGIN CERTIFICATE-----
MIIHUTCCBQmgAwIBAgIQaBBy7XeB1rvZkZUaMYlFDzA9BgkqhkiG9w0BAQowMKAN
MAsGCWCGSAFlAwQCA6EaMBgGCSqGSIb3DQEBCDALBglghkgBZQMEAgOiAwIBQDBb
MQswCQYDVQQGEwJERTEVMBMGA1UEChMMRC1UcnVzdCBHbWJIMRwwGgYDVQQDExNE
LVRSVVNUIENBIDItMiAyMDE5MRcwFQYDVQRhEw5OVFJERS1IUkI3NDM0NjAeFw0y
MTA2MDcwOTU3MjNaFw0yMzA2MTEwOTU3MjNaMIHrMQswCQYDVQQGEwJERTEdMBsG
A1UEChMUUm9iZXJ0IEtvY2gtSW5zdGl0dXQxJDAiBgNVBAsTG0VsZWt0cm9uaXNj
aGVyIEltcGZuYWNod2VpczEdMBsGA1UEAxMUUm9iZXJ0IEtvY2gtSW5zdGl0dXQx
DzANBgNVBAcTBkJlcmxpbjEOMAwGA1UEEQwFMTMzNTMxFDASBgNVBAkTC05vcmR1
ZmVyIDIwMRkwFwYDVQRhExBEVDpERS0zMDIzNTMxNDQ1MRUwEwYDVQQFEwxDU00w
MjY0MTM1NDExDzANBgNVBAgTBkJlcmxpbjBZMBMGByqGSM49AgEGCCqGSM49AwEH
A0IABP3hlrinDVf6HexIeBCboqgT7/tMj+Kvqs4TpTRXZM7rlsupfoYY1R8XX8ae
Fw1bzlFdg/cH3/Nf7TXwbnOKQpijggLpMIIC5TAfBgNVHSMEGDAWgBRxEDKudHF7
VI7x1qtiVK78PsC7FjAtBggrBgEFBQcBAwQhMB8wCAYGBACORgEBMBMGBgQAjkYB
BjAJBgcEAI5GAQYCMIH+BggrBgEFBQcBAQSB8TCB7jA3BggrBgEFBQcwAYYraHR0
cDovL2QtdHJ1c3QtY2EtMi0yLTIwMTkub2NzcC5kLXRydXN0Lm5ldDBCBggrBgEF
BQcwAoY2aHR0cDovL3d3dy5kLXRydXN0Lm5ldC9jZ2ktYmluL0QtVFJVU1RfQ0Ff
Mi0yXzIwMTkuY3J0MG8GCCsGAQUFBzAChmNsZGFwOi8vZGlyZWN0b3J5LmQtdHJ1
c3QubmV0L0NOPUQtVFJVU1QlMjBDQSUyMDItMiUyMDIwMTksTz1ELVRydXN0JTIw
R21iSCxDPURFP2NBQ2VydGlmaWNhdGU/YmFzZT8wcAYDVR0gBGkwZzAJBgcEAIvs
QAEBMFoGCysGAQQBpTQCgRYFMEswSQYIKwYBBQUHAgEWPWh0dHA6Ly93d3cuZC10
cnVzdC5uZXQvaW50ZXJuZXQvZmlsZXMvRC1UUlVTVF9DU01fUEtJX0NQUy5wZGYw
gfAGA1UdHwSB6DCB5TCB4qCB36CB3IZpbGRhcDovL2RpcmVjdG9yeS5kLXRydXN0
Lm5ldC9DTj1ELVRSVVNUJTIwQ0ElMjAyLTIlMjAyMDE5LE89RC1UcnVzdCUyMEdt
YkgsQz1ERT9jZXJ0aWZpY2F0ZXJldm9jYXRpb25saXN0hjJodHRwOi8vY3JsLmQt
dHJ1c3QubmV0L2NybC9kLXRydXN0X2NhXzItMl8yMDE5LmNybIY7aHR0cDovL2Nk
bi5kLXRydXN0LWNsb3VkY3JsLm5ldC9jcmwvZC10cnVzdF9jYV8yLTJfMjAxOS5j
cmwwHQYDVR0OBBYEFE9O4dA4i5u30fmhlPolvj47NGcAMA4GA1UdDwEB/wQEAwIG
wDA9BgkqhkiG9w0BAQowMKANMAsGCWCGSAFlAwQCA6EaMBgGCSqGSIb3DQEBCDAL
BglghkgBZQMEAgOiAwIBQAOCAgEAUHouX3aiPr1eIeNzAE1JVSOhxy4I56P7RaUf
pBYaJeVot7jPlNWq62++OCOqUWuLvw/bTkWNPxWhVh1BoQpL9fENmhCBBCvpUv2l
mHBtvWFhASnT4TQSD3ORLXfIgXBvp3EF6T2YArjHobzLexAHh4QjjmmjTKWQw0tk
VFwNu5C8GksKyoRaOUuR8dU/ZNTf6VAMIXv2osRzG1wWrLxcEse8XDAPxBSObML3
DbdLXXxtEfAmqC63iQhh4k4l2kkS08t6pcnonxd9+ZJqtFtlTgPfngMjnl4AdJzv
DJFbec1Of6ouMMWILcGqT2EKX8o9pjF1luNUevLgFF5751EjQsrF/EJ4U8Fd/fRV
u+Pj6bRBFmSDvcbgwe/DC/JQomCQenSC7aYoHzz55sqH90HbDjBvwnEq31zQuyvK
ItYb6ikPpzzqXHhhm4D9WDN8PG20PTrHeBwtghYHYZ/B/EEVp+MHbkCilmBmkHp8
8Y3YF26sUm6UkwqqLDjt4olNYtPMpv1DvuxZUhRhUeX518Xi9BK5F4mBkaprfYjZ
MlpWzMpvFRz9QvI9SE88iJu9bFKJ5mAlby1ELR6i/mYNvooH0OM/9OWhDBlA5xe2
kIsJhrgxkTKLNzKIkfvF96gLLkFHjS9gRiVhIk4R38gO44SLVJrg2UwrrD3Lsrhe
Wk85lZE=
-----END CERTIFICATE-----
