Certificate:
    Data:
        Version: 3 (0x2)
        Serial Number:
            03:ec:e5:6b:6d:fc:e8:8c:bf
    Signature Algorithm: ecdsa-with-SHA256
        Issuer: CN = EADTrust ECC 256 SubCA For Qualified Certificates 2019, O = "European Agency of Digital Trust, S.L.", C = ES, 2.5.4.97 = VATES-B85626240, OU = Legal Person
        Validity
            Not Before: May 24 14:50:00 2021 GMT
            Not After : May 24 14:50:00 2023 GMT
        Subject: CN = DIRECCI\C3\93N GENERAL DE SALUD P\C3\9ABLICA Y ADICCIONES, serialNumber = S3011001l, OU = SELLO ELECTRONICO, OU = DIRECCION GENERAL INFORMATICA CORPORATIVA, 2.5.4.97 = VATES- S3011001l, O = COMUNIDAD AUTONOMA DE LA REGION DE MURCIA, C = ES
        Subject Public Key Info:
            Public Key Algorithm: id-ecPublicKey
                Public-Key: (256 bit)
                pub:
                    04:96:2f:1e:2a:d8:62:a2:6f:44:c9:d2:af:86:0e:
                    cb:1d:78:ff:7f:cf:3f:65:e3:54:a5:f1:05:9b:a9:
                    08:02:bd:ca:d4:d0:91:4a:fd:60:ac:99:cd:88:17:
                    3d:96:f8:20:b4:08:ea:14:74:12:19:3a:2f:b5:17:
                    06:1d:c5:6e:44
                ASN1 OID: prime256v1
                NIST CURVE: P-256
        X509v3 extensions:
            X509v3 Basic Constraints: critical
                CA:FALSE
            X509v3 Authority Key Identifier: 
                keyid:D3:4C:6C:3A:BD:36:FE:70:87:23:87:3A:EE:3D:90:CF:CB:9B:F7:21

            Authority Information Access: 
                CA Issuers - URI:http://ca.eadtrust.eu/eadtrust-subca-ecc256eadlp2019.crt
                OCSP - URI:http://ocsp.eadtrust.eu

            X509v3 Issuer Alternative Name: 
                email:ca@eadtrust.eu, URI:http://www.eadtrust.eu, URI:http://ca.eadtrust.eu, URI:http://policy.eadtrust.eu
            X509v3 Subject Alternative Name: 
                DirName:/2.16.724.1.3.5.6.2.1=SELLO ELECTRONICO DE NIVEL MEDIO/2.16.724.1.3.5.6.2.2=COMUNIDAD AUTONOMA DE LA REGION DE MURCIA/2.16.724.1.3.5.6.2.3=S3011001l
            X509v3 Certificate Policies: 
                Policy: 2.16.724.1.3.5.6.2
                Policy: 0.4.0.194112.1.1
                  User Notice:
                    Explicit Text: European Telecommunications Standards Institute. eIDAS European Regulation Compliant
                Policy: 1.3.6.1.4.1.501.2.1.1.0.41233
                  CPS: http://policy.eadtrust.eu
                  User Notice:
                    Explicit Text: Certificado cualificado de sello electrónico de Administración, órgano o entidad de derecho público, nivel Medio/Sustancial. Consulte las condiciones de uso en http://policy.eadtrust.eu

            X509v3 Extended Key Usage: 
                TLS Web Client Authentication, E-mail Protection
            qcStatements: 
                0..0...+.......0.......I..0......F..0......F.....0......F..0......F...0l.....F..0b00.*https://eadtrust.eu/en/documents-in-force/..en0..(https://eadtrust.eu/documentos-vigentes/..es
            X509v3 CRL Distribution Points: 

                Full Name:
                  URI:http://crl.eadtrust.eu/eadtrust-subca-ecc256eadlp2019.crl

            X509v3 Subject Key Identifier: 
                01:CE:AB:CA:5F:C0:18:F8:85:49:88:7C:A4:3E:3E:70:C3:0E:B8:25
            X509v3 Key Usage: critical
                Digital Signature, Non Repudiation, Key Encipherment
    Signature Algorithm: ecdsa-with-SHA256
         30:44:02:20:6f:9d:a1:b0:39:16:4a:15:a8:76:0e:a6:ce:70:
         55:e1:4b:7f:be:bd:02:da:b8:11:2f:25:74:af:31:d6:ab:71:
         02:20:3f:de:95:95:2b:67:23:f2:d1:5e:82:76:b9:59:c5:a0:
         94:21:00:7a:8e:c1:64:02:5d:bf:c0:54:c7:0b:9a:54
-----BEGIN CERTIFICATE-----
MIIHTDCCBvOgAwIBAgIJA+zla2386Iy/MAoGCCqGSM49BAMCMIGwMT8wPQYDVQQD
DDZFQURUcnVzdCBFQ0MgMjU2IFN1YkNBIEZvciBRdWFsaWZpZWQgQ2VydGlmaWNh
dGVzIDIwMTkxLzAtBgNVBAoMJkV1cm9wZWFuIEFnZW5jeSBvZiBEaWdpdGFsIFRy
dXN0LCBTLkwuMQswCQYDVQQGEwJFUzEYMBYGA1UEYQwPVkFURVMtQjg1NjI2MjQw
MRUwEwYDVQQLDAxMZWdhbCBQZXJzb24wHhcNMjEwNTI0MTQ1MDAwWhcNMjMwNTI0
MTQ1MDAwWjCB/DE6MDgGA1UEAwwxRElSRUNDScOTTiBHRU5FUkFMIERFIFNBTFVE
IFDDmkJMSUNBIFkgQURJQ0NJT05FUzESMBAGA1UEBRMJUzMwMTEwMDFsMRowGAYD
VQQLDBFTRUxMTyBFTEVDVFJPTklDTzEyMDAGA1UECwwpRElSRUNDSU9OIEdFTkVS
QUwgSU5GT1JNQVRJQ0EgQ09SUE9SQVRJVkExGTAXBgNVBGEMEFZBVEVTLSBTMzAx
MTAwMWwxMjAwBgNVBAoMKUNPTVVOSURBRCBBVVRPTk9NQSBERSBMQSBSRUdJT04g
REUgTVVSQ0lBMQswCQYDVQQGEwJFUzBZMBMGByqGSM49AgEGCCqGSM49AwEHA0IA
BJYvHirYYqJvRMnSr4YOyx14/3/PP2XjVKXxBZupCAK9ytTQkUr9YKyZzYgXPZb4
ILQI6hR0Ehk6L7UXBh3FbkSjggSmMIIEojAMBgNVHRMBAf8EAjAAMB8GA1UdIwQY
MBaAFNNMbDq9Nv5whyOHOu49kM/Lm/chMHkGCCsGAQUFBwEBBG0wazBEBggrBgEF
BQcwAoY4aHR0cDovL2NhLmVhZHRydXN0LmV1L2VhZHRydXN0LXN1YmNhLWVjYzI1
NmVhZGxwMjAxOS5jcnQwIwYIKwYBBQUHMAGGF2h0dHA6Ly9vY3NwLmVhZHRydXN0
LmV1MGMGA1UdEgRcMFqBDmNhQGVhZHRydXN0LmV1hhZodHRwOi8vd3d3LmVhZHRy
dXN0LmV1hhVodHRwOi8vY2EuZWFkdHJ1c3QuZXWGGWh0dHA6Ly9wb2xpY3kuZWFk
dHJ1c3QuZXUwgZYGA1UdEQSBjjCBi6SBiDCBhTEvMC0GCWCFVAEDBQYCAQwgU0VM
TE8gRUxFQ1RST05JQ08gREUgTklWRUwgTUVESU8xODA2BglghVQBAwUGAgIMKUNP
TVVOSURBRCBBVVRPTk9NQSBERSBMQSBSRUdJT04gREUgTVVSQ0lBMRgwFgYJYIVU
AQMFBgIDDAlTMzAxMTAwMWwwggGYBgNVHSAEggGPMIIBizAKBghghVQBAwUGAjBv
BgcEAIvsQAEBMGQwYgYIKwYBBQUHAgIwVgxURXVyb3BlYW4gVGVsZWNvbW11bmlj
YXRpb25zIFN0YW5kYXJkcyBJbnN0aXR1dGUuIGVJREFTIEV1cm9wZWFuIFJlZ3Vs
YXRpb24gQ29tcGxpYW50MIIBCgYOKwYBBAGDdQIBAQCCwhEwgfcwJQYIKwYBBQUH
AgEWGWh0dHA6Ly9wb2xpY3kuZWFkdHJ1c3QuZXUwgc0GCCsGAQUFBwICMIHADIG9
Q2VydGlmaWNhZG8gY3VhbGlmaWNhZG8gZGUgc2VsbG8gZWxlY3Ryw7NuaWNvIGRl
IEFkbWluaXN0cmFjacOzbiwgw7NyZ2FubyBvIGVudGlkYWQgZGUgZGVyZWNobyBw
w7pibGljbywgbml2ZWwgTWVkaW8vU3VzdGFuY2lhbC4gQ29uc3VsdGUgbGFzIGNv
bmRpY2lvbmVzIGRlIHVzbyBlbiBodHRwOi8vcG9saWN5LmVhZHRydXN0LmV1MB0G
A1UdJQQWMBQGCCsGAQUFBwMCBggrBgEFBQcDBDCBwQYIKwYBBQUHAQMEgbQwgbEw
FQYIKwYBBQUHCwIwCQYHBACL7EkBAjAIBgYEAI5GAQEwCwYGBACORgEDAgEPMBMG
BgQAjkYBBjAJBgcEAI5GAQYCMGwGBgQAjkYBBTBiMDAWKmh0dHBzOi8vZWFkdHJ1
c3QuZXUvZW4vZG9jdW1lbnRzLWluLWZvcmNlLxMCZW4wLhYoaHR0cHM6Ly9lYWR0
cnVzdC5ldS9kb2N1bWVudG9zLXZpZ2VudGVzLxMCZXMwSgYDVR0fBEMwQTA/oD2g
O4Y5aHR0cDovL2NybC5lYWR0cnVzdC5ldS9lYWR0cnVzdC1zdWJjYS1lY2MyNTZl
YWRscDIwMTkuY3JsMB0GA1UdDgQWBBQBzqvKX8AY+IVJiHykPj5www64JTAOBgNV
HQ8BAf8EBAMCBeAwCgYIKoZIzj0EAwIDRwAwRAIgb52hsDkWShWodg6mznBV4Ut/
vr0C2rgRLyV0rzHWq3ECID/elZUrZyPy0V6CdrlZxaCUIQB6jsFkAl2/wFTHC5pU
-----END CERTIFICATE-----
