Certificate:
    Data:
        Version: 3 (0x2)
        Serial Number: 3005324884183122183 (0x29b50f0f2c608107)
    Signature Algorithm: rsassaPss
         Hash Algorithm: sha256
         Mask Algorithm: mgf1 with sha256
         Salt Length: 0x20
         Trailer Field: 0xBC (default)
        Issuer: C = LU, O = INCERT public agency, CN = Grand Duchy of Luxembourg CSCA
        Validity
            Not Before: Jun  9 09:51:04 2021 GMT
            Not After : Jun  9 09:51:04 2023 GMT
        Subject: C = LU, O = Ministry of Health, CN = Grand Duchy of Luxembourg DS DCC 3
        Subject Public Key Info:
            Public Key Algorithm: id-ecPublicKey
                Public-Key: (256 bit)
                pub:
                    04:e4:4b:58:6c:eb:be:46:e5:1c:14:0b:b5:34:dd:
                    6b:aa:cb:8a:a8:dc:e9:97:46:3a:6e:08:3d:c0:d2:
                    9c:99:52:f3:7c:13:bc:d6:31:f6:75:cb:a9:1e:d2:
                    a5:a7:b3:32:e4:a1:a3:0b:20:40:2a:f8:c9:51:21:
                    3f:7e:70:dd:e6
                ASN1 OID: prime256v1
                NIST CURVE: P-256
        X509v3 extensions:
            X509v3 Subject Key Identifier: 
                42:2C:F6:B9:E0:91:E0:E7:98:DB:F7:50:6C:84:88:3B:34:11:87:6D
            X509v3 Authority Key Identifier: 
                keyid:1A:CF:47:C7:98:E5:35:4C:8F:9F:55:AB:A8:9A:F9:E3:C7:3C:9D:7B

            X509v3 Issuer Alternative Name: 
                email:csca@incert.lu, DirName:/L=LUX
            X509v3 Private Key Usage Period: 
                Not Before: Jun  9 09:51:04 2021 GMT, Not After: Dec  6 09:51:04 2021 GMT
            X509v3 CRL Distribution Points: 

                Full Name:
                  URI:http://repository.incert.lu/csca.crl

            X509v3 Key Usage: critical
                Digital Signature
            X509v3 Subject Alternative Name: 
                email:csca@incert.lu, DirName:/L=LUX
    Signature Algorithm: rsassaPss
         Hash Algorithm: sha256
         Mask Algorithm: mgf1 with sha256
         Salt Length: 0x20
         Trailer Field: 0xBC (default)

         35:70:1c:5f:f7:7d:c9:a6:91:08:14:f8:72:db:d4:b1:a1:8f:
         84:6f:b1:1f:4d:52:4a:e4:60:7c:96:44:eb:77:ed:de:43:dc:
         4c:aa:36:33:48:a5:67:9b:7c:35:cb:9d:03:69:11:00:dd:ff:
         61:f2:68:45:bb:d1:c8:ad:71:be:1a:77:fe:51:5c:3f:e1:af:
         70:63:56:ca:a7:6d:11:ce:72:db:f5:f9:3c:32:f5:77:c3:33:
         b3:9c:0e:08:f6:b4:4e:ec:96:c6:76:74:a0:0f:12:0d:3d:76:
         ae:cc:a0:29:57:0e:e4:dc:22:40:6a:10:7b:99:f9:dc:c0:f0:
         f6:03:bc:84:cb:8c:7b:49:a8:c2:81:8f:7d:f9:b5:15:3e:66:
         5f:16:4f:41:86:5f:34:30:ef:f9:51:0f:8c:84:f0:19:dd:2b:
         b0:ba:30:ee:f1:0b:8b:48:50:68:07:3f:73:fe:90:89:91:88:
         f0:aa:fa:94:1b:b7:bf:17:18:90:73:12:00:a9:05:b7:bc:1e:
         e5:e0:8d:ae:72:4e:4d:80:18:b7:42:1f:91:b1:6d:24:0c:8c:
         60:38:89:c7:9f:44:ea:0f:3b:ce:ae:37:00:9e:90:02:86:15:
         de:3a:2e:2e:7f:f8:97:c8:8b:d9:c9:09:dd:b1:ec:fb:14:cc:
         0a:f5:e5:fc:f0:71:39:2c:d0:79:3e:ed:d6:6a:8f:a8:17:b8:
         9a:59:17:0a:02:ce:f6:38:67:43:b5:07:df:4b:d5:20:b0:64:
         d5:ec:08:47:af:a9:0e:5a:9f:72:d4:59:45:84:fb:b2:61:92:
         41:ad:a9:e7:5d:a1:c9:2d:e4:cf:10:ee:89:b0:f0:ee:20:bd:
         5f:56:f5:8e:02:6e:fb:21:c7:2f:51:ae:84:d2:53:5d:f9:34:
         13:26:dc:8b:b4:b3:61:5d:b0:a8:f7:24:c6:84:ff:1b:a5:44:
         22:78:6f:16:84:70:a4:dd:ae:31:9a:25:23:d3:e5:13:a0:3d:
         64:23:d3:20:fb:cb:0e:63:d2:54:46:ce:98:77:3e:ed:68:e6:
         ae:89:e2:ff:b0:dd:c7:d6:56:ef:4a:6b:51:f8:c2:94:18:de:
         2a:78:7a:65:5a:5e:9b:2d:83:43:4d:3c:c1:fe:24:44:4b:17:
         2f:01:83:de:09:d2:e3:82:28:05:40:3c:c8:e9:af:d0:d6:ef:
         fa:f5:3a:87:b2:e1:ae:e9:7d:d1:aa:09:bd:90:c5:49:2e:2e:
         bd:58:39:07:1a:8a:b9:ef:3a:98:e3:11:f1:db:bd:69:8a:57:
         81:06:a4:43:69:23:6d:6a:63:9e:14:44:ab:68:62:c7:bb:b6:
         79:15:b7:3f:51:ae:cc:98
-----BEGIN CERTIFICATE-----
MIIE3zCCApOgAwIBAgIIKbUPDyxggQcwQQYJKoZIhvcNAQEKMDSgDzANBglghkgB
ZQMEAgEFAKEcMBoGCSqGSIb3DQEBCDANBglghkgBZQMEAgEFAKIDAgEgMFUxCzAJ
BgNVBAYTAkxVMR0wGwYDVQQKDBRJTkNFUlQgcHVibGljIGFnZW5jeTEnMCUGA1UE
AwweR3JhbmQgRHVjaHkgb2YgTHV4ZW1ib3VyZyBDU0NBMB4XDTIxMDYwOTA5NTEw
NFoXDTIzMDYwOTA5NTEwNFowVzELMAkGA1UEBhMCTFUxGzAZBgNVBAoMEk1pbmlz
dHJ5IG9mIEhlYWx0aDErMCkGA1UEAwwiR3JhbmQgRHVjaHkgb2YgTHV4ZW1ib3Vy
ZyBEUyBEQ0MgMzBZMBMGByqGSM49AgEGCCqGSM49AwEHA0IABORLWGzrvkblHBQL
tTTda6rLiqjc6ZdGOm4IPcDSnJlS83wTvNYx9nXLqR7SpaezMuShowsgQCr4yVEh
P35w3eajggESMIIBDjAdBgNVHQ4EFgQUQiz2ueCR4OeY2/dQbISIOzQRh20wHwYD
VR0jBBgwFoAUGs9Hx5jlNUyPn1WrqJr548c8nXswKwYDVR0SBCQwIoEOY3NjYUBp
bmNlcnQubHWkEDAOMQwwCgYDVQQHDANMVVgwKwYDVR0QBCQwIoAPMjAyMTA2MDkw
OTUxMDRagQ8yMDIxMTIwNjA5NTEwNFowNQYDVR0fBC4wLDAqoCigJoYkaHR0cDov
L3JlcG9zaXRvcnkuaW5jZXJ0Lmx1L2NzY2EuY3JsMA4GA1UdDwEB/wQEAwIHgDAr
BgNVHREEJDAigQ5jc2NhQGluY2VydC5sdaQQMA4xDDAKBgNVBAcMA0xVWDBBBgkq
hkiG9w0BAQowNKAPMA0GCWCGSAFlAwQCAQUAoRwwGgYJKoZIhvcNAQEIMA0GCWCG
SAFlAwQCAQUAogMCASADggIBADVwHF/3fcmmkQgU+HLb1LGhj4RvsR9NUkrkYHyW
ROt37d5D3EyqNjNIpWebfDXLnQNpEQDd/2HyaEW70citcb4ad/5RXD/hr3BjVsqn
bRHOctv1+Twy9XfDM7OcDgj2tE7slsZ2dKAPEg09dq7MoClXDuTcIkBqEHuZ+dzA
8PYDvITLjHtJqMKBj335tRU+Zl8WT0GGXzQw7/lRD4yE8BndK7C6MO7xC4tIUGgH
P3P+kImRiPCq+pQbt78XGJBzEgCpBbe8HuXgja5yTk2AGLdCH5GxbSQMjGA4icef
ROoPO86uNwCekAKGFd46Li5/+JfIi9nJCd2x7PsUzAr15fzwcTks0Hk+7dZqj6gX
uJpZFwoCzvY4Z0O1B99L1SCwZNXsCEevqQ5an3LUWUWE+7JhkkGtqeddockt5M8Q
7omw8O4gvV9W9Y4Cbvshxy9RroTSU135NBMm3Iu0s2FdsKj3JMaE/xulRCJ4bxaE
cKTdrjGaJSPT5ROgPWQj0yD7yw5j0lRGzph3Pu1o5q6J4v+w3cfWVu9Ka1H4wpQY
3ip4emVaXpstg0NNPMH+JERLFy8Bg94J0uOCKAVAPMjpr9DW7/r1Ooey4a7pfdGq
Cb2QxUkuLr1YOQcairnvOpjjEfHbvWmKV4EGpENpI21qY54URKtoYse7tnkVtz9R
rsyY
-----END CERTIFICATE-----
