Certificate:
    Data:
        Version: 3 (0x2)
        Serial Number:
            62:4d:7e:04:9e:13:17:05:59:9f:55:d4:41:42:f1:2c
    Signature Algorithm: rsassaPss
         Hash Algorithm: sha512
         Mask Algorithm: mgf1 with sha512
         Salt Length: 0x40
         Trailer Field: 0xBC (default)
        Issuer: C = DE, O = D-Trust GmbH, CN = D-TRUST CA 2-2 2019, 2.5.4.97 = NTRDE-HRB74346
        Validity
            Not Before: Jun  3 10:54:30 2021 GMT
            Not After : Jun  7 10:54:30 2023 GMT
        Subject: C = DE, O = Robert Koch-Institut, OU = Elektronischer Impfnachweis, CN = Robert Koch-Institut, L = Berlin, postalCode = 13353, street = Nordufer 20, 2.5.4.97 = DT:DE-3023531445, serialNumber = CSM026382995, ST = Berlin
        Subject Public Key Info:
            Public Key Algorithm: id-ecPublicKey
                Public-Key: (256 bit)
                pub:
                    04:f3:18:21:a8:da:c4:db:5b:2e:b2:f4:d0:1d:5f:
                    5f:c0:dd:d1:5a:10:48:74:26:01:bb:79:5a:0b:3e:
                    ba:35:ab:2a:ca:ab:93:e3:b3:c9:5e:e3:a2:7d:25:
                    22:35:8d:bf:a8:ec:83:ba:ed:00:7b:c3:0a:20:77:
                    94:98:de:70:74
                ASN1 OID: prime256v1
                NIST CURVE: P-256
        X509v3 extensions:
            X509v3 Authority Key Identifier: 
                keyid:71:10:32:AE:74:71:7B:54:8E:F1:D6:AB:62:54:AE:FC:3E:C0:BB:16

            qcStatements: 
                0.0......F..0......F..0......F...
            Authority Information Access: 
                OCSP - URI:http://d-trust-ca-2-2-2019.ocsp.d-trust.net
                CA Issuers - URI:http://www.d-trust.net/cgi-bin/D-TRUST_CA_2-2_2019.crt
                CA Issuers - URI:ldap://directory.d-trust.net/CN=D-TRUST%20CA%202-2%202019,O=D-Trust%20GmbH,C=DE?cACertificate?base?

            X509v3 Certificate Policies: 
                Policy: 0.4.0.194112.1.1
                Policy: 1.3.6.1.4.1.4788.2.150.5
                  CPS: http://www.d-trust.net/internet/files/D-TRUST_CSM_PKI_CPS.pdf

            X509v3 CRL Distribution Points: 

                Full Name:
                  URI:ldap://directory.d-trust.net/CN=D-TRUST%20CA%202-2%202019,O=D-Trust%20GmbH,C=DE?certificaterevocationlist
                  URI:http://crl.d-trust.net/crl/d-trust_ca_2-2_2019.crl
                  URI:http://cdn.d-trust-cloudcrl.net/crl/d-trust_ca_2-2_2019.crl

            X509v3 Subject Key Identifier: 
                1B:CC:65:16:4D:74:37:E6:7B:6D:06:CD:66:BB:93:70:D5:1B:E2:07
            X509v3 Key Usage: critical
                Digital Signature, Non Repudiation
    Signature Algorithm: rsassaPss
         Hash Algorithm: sha512
         Mask Algorithm: mgf1 with sha512
         Salt Length: 0x40
         Trailer Field: 0xBC (default)

         bd:6c:dc:a0:8c:65:a1:41:7f:fb:de:1a:bb:e2:83:93:18:46:
         2f:c0:ee:10:ec:67:f6:6a:d1:0e:df:33:bd:7e:f1:d5:72:6f:
         10:f7:3a:c0:ef:ef:d9:8c:bf:ab:77:69:be:3a:7a:48:a3:24:
         1b:71:2c:27:db:d8:59:c7:28:cb:17:0f:f9:c8:1c:75:d5:f1:
         57:97:60:25:73:1e:86:0a:f5:a7:07:fd:b0:b6:30:07:0a:79:
         39:f6:c6:7d:f0:3d:9e:ac:24:b3:e9:7c:1e:93:41:86:db:c9:
         60:ac:61:c3:90:95:4c:43:fa:8c:28:02:91:fa:43:76:ee:a0:
         12:a6:d7:b2:df:0d:ea:08:cb:be:44:92:f3:71:ac:dd:e9:af:
         b8:71:de:e0:80:05:79:09:1c:4a:14:ed:41:f6:95:12:24:8c:
         99:b5:32:df:ee:f1:93:a1:2e:1a:67:0e:39:98:a1:83:fc:84:
         8d:7a:9a:03:b3:0d:e9:b9:d1:66:e7:21:c2:7a:a7:fb:7e:fc:
         b5:ec:e8:10:cf:9b:8d:46:96:c0:a2:26:6f:f3:5d:cb:74:74:
         76:d9:b0:8f:af:89:1f:82:f1:4f:33:63:c3:fd:8a:a6:4f:f5:
         6c:47:58:3f:6c:7f:42:0d:14:14:06:b3:4f:6e:9b:f0:d4:b8:
         26:92:bf:d8:e8:5b:cb:ef:30:5e:23:d0:14:e3:d7:ae:1b:a3:
         c5:ca:19:52:6d:b8:7f:74:39:4f:4f:2e:b4:76:a4:cd:16:77:
         9e:e4:b7:d5:f2:62:08:80:f7:b3:35:d2:e5:6b:aa:27:73:e8:
         84:08:e2:ec:2c:cc:59:d5:36:ea:04:56:01:ee:5b:36:1d:50:
         c8:a7:25:78:a2:e6:2f:fd:6c:53:f6:e9:48:80:c8:92:af:88:
         af:d3:e7:0d:07:8b:6e:a5:e9:b8:56:84:39:1b:a0:6a:b3:aa:
         71:29:2b:9c:db:c1:69:d0:d4:ed:27:a5:72:85:d1:8b:37:54:
         1c:b5:c3:ac:3a:b0:7f:2b:91:4e:dd:05:13:e9:9b:fe:55:e4:
         fe:b9:13:d2:69:65:ac:32:82:c9:87:a3:19:03:c7:49:dd:96:
         0b:82:27:43:ab:05:78:05:19:7d:59:95:cf:25:7f:01:8f:47:
         6d:4f:a2:10:d6:15:59:9f:b3:73:a6:19:65:08:6f:98:3e:68:
         36:4e:0f:87:5c:76:8c:86:64:b7:02:df:4b:f8:49:9d:dd:fd:
         b1:22:10:8d:c2:25:d2:08:80:d8:48:97:f0:fa:dd:7a:6c:32:
         b8:42:3f:e4:07:51:af:79:6f:f0:88:2d:cf:a1:5b:e1:35:d1:
         84:28:bf:d5:3a:9a:86:a9
-----BEGIN CERTIFICATE-----
MIIHUTCCBQmgAwIBAgIQYk1+BJ4TFwVZn1XUQULxLDA9BgkqhkiG9w0BAQowMKAN
MAsGCWCGSAFlAwQCA6EaMBgGCSqGSIb3DQEBCDALBglghkgBZQMEAgOiAwIBQDBb
MQswCQYDVQQGEwJERTEVMBMGA1UEChMMRC1UcnVzdCBHbWJIMRwwGgYDVQQDExNE
LVRSVVNUIENBIDItMiAyMDE5MRcwFQYDVQRhEw5OVFJERS1IUkI3NDM0NjAeFw0y
MTA2MDMxMDU0MzBaFw0yMzA2MDcxMDU0MzBaMIHrMQswCQYDVQQGEwJERTEdMBsG
A1UEChMUUm9iZXJ0IEtvY2gtSW5zdGl0dXQxJDAiBgNVBAsTG0VsZWt0cm9uaXNj
aGVyIEltcGZuYWNod2VpczEdMBsGA1UEAxMUUm9iZXJ0IEtvY2gtSW5zdGl0dXQx
DzANBgNVBAcTBkJlcmxpbjEOMAwGA1UEEQwFMTMzNTMxFDASBgNVBAkTC05vcmR1
ZmVyIDIwMRkwFwYDVQRhExBEVDpERS0zMDIzNTMxNDQ1MRUwEwYDVQQFEwxDU00w
MjYzODI5OTUxDzANBgNVBAgTBkJlcmxpbjBZMBMGByqGSM49AgEGCCqGSM49AwEH
A0IABPMYIajaxNtbLrL00B1fX8Dd0VoQSHQmAbt5Wgs+ujWrKsqrk+OzyV7jon0l
IjWNv6jsg7rtAHvDCiB3lJjecHSjggLpMIIC5TAfBgNVHSMEGDAWgBRxEDKudHF7
VI7x1qtiVK78PsC7FjAtBggrBgEFBQcBAwQhMB8wCAYGBACORgEBMBMGBgQAjkYB
BjAJBgcEAI5GAQYCMIH+BggrBgEFBQcBAQSB8TCB7jA3BggrBgEFBQcwAYYraHR0
cDovL2QtdHJ1c3QtY2EtMi0yLTIwMTkub2NzcC5kLXRydXN0Lm5ldDBCBggrBgEF
BQcwAoY2aHR0cDovL3d3dy5kLXRydXN0Lm5ldC9jZ2ktYmluL0QtVFJVU1RfQ0Ff
Mi0yXzIwMTkuY3J0MG8GCCsGAQUFBzAChmNsZGFwOi8vZGlyZWN0b3J5LmQtdHJ1
c3QubmV0L0NOPUQtVFJVU1QlMjBDQSUyMDItMiUyMDIwMTksTz1ELVRydXN0JTIw
R21iSCxDPURFP2NBQ2VydGlmaWNhdGU/YmFzZT8wcAYDVR0gBGkwZzAJBgcEAIvs
QAEBMFoGCysGAQQBpTQCgRYFMEswSQYIKwYBBQUHAgEWPWh0dHA6Ly93d3cuZC10
cnVzdC5uZXQvaW50ZXJuZXQvZmlsZXMvRC1UUlVTVF9DU01fUEtJX0NQUy5wZGYw
gfAGA1UdHwSB6DCB5TCB4qCB36CB3IZpbGRhcDovL2RpcmVjdG9yeS5kLXRydXN0
Lm5ldC9DTj1ELVRSVVNUJTIwQ0ElMjAyLTIlMjAyMDE5LE89RC1UcnVzdCUyMEdt
YkgsQz1ERT9jZXJ0aWZpY2F0ZXJldm9jYXRpb25saXN0hjJodHRwOi8vY3JsLmQt
dHJ1c3QubmV0L2NybC9kLXRydXN0X2NhXzItMl8yMDE5LmNybIY7aHR0cDovL2Nk
bi5kLXRydXN0LWNsb3VkY3JsLm5ldC9jcmwvZC10cnVzdF9jYV8yLTJfMjAxOS5j
cmwwHQYDVR0OBBYEFBvMZRZNdDfme20GzWa7k3DVG+IHMA4GA1UdDwEB/wQEAwIG
wDA9BgkqhkiG9w0BAQowMKANMAsGCWCGSAFlAwQCA6EaMBgGCSqGSIb3DQEBCDAL
BglghkgBZQMEAgOiAwIBQAOCAgEAvWzcoIxloUF/+94au+KDkxhGL8DuEOxn9mrR
Dt8zvX7x1XJvEPc6wO/v2Yy/q3dpvjp6SKMkG3EsJ9vYWccoyxcP+cgcddXxV5dg
JXMehgr1pwf9sLYwBwp5OfbGffA9nqwks+l8HpNBhtvJYKxhw5CVTEP6jCgCkfpD
du6gEqbXst8N6gjLvkSS83Gs3emvuHHe4IAFeQkcShTtQfaVEiSMmbUy3+7xk6Eu
GmcOOZihg/yEjXqaA7MN6bnRZuchwnqn+378tezoEM+bjUaWwKImb/Ndy3R0dtmw
j6+JH4LxTzNjw/2Kpk/1bEdYP2x/Qg0UFAazT26b8NS4JpK/2Ohby+8wXiPQFOPX
rhujxcoZUm24f3Q5T08utHakzRZ3nuS31fJiCID3szXS5WuqJ3PohAji7CzMWdU2
6gRWAe5bNh1QyKcleKLmL/1sU/bpSIDIkq+Ir9PnDQeLbqXpuFaEORugarOqcSkr
nNvBadDU7SelcoXRizdUHLXDrDqwfyuRTt0FE+mb/lXk/rkT0mllrDKCyYejGQPH
Sd2WC4InQ6sFeAUZfVmVzyV/AY9HbU+iENYVWZ+zc6YZZQhvmD5oNk4Ph1x2jIZk
twLfS/hJnd39sSIQjcIl0giA2EiX8PrdemwyuEI/5AdRr3lv8Igtz6Fb4TXRhCi/
1Tqahqk=
-----END CERTIFICATE-----
