Certificate:
    Data:
        Version: 3 (0x2)
        Serial Number:
            7d:cb:45:cc:3b:a5:25:09:1a:5d:7b:1a:c0:97:42:3a
    Signature Algorithm: rsassaPss
         Hash Algorithm: sha512
         Mask Algorithm: mgf1 with sha512
         Salt Length: 0x40
         Trailer Field: 0xBC (default)
        Issuer: C = DE, O = D-Trust GmbH, CN = D-TRUST CA 2-2 2019, 2.5.4.97 = NTRDE-HRB74346
        Validity
            Not Before: Jun 11 14:54:54 2021 GMT
            Not After : Jun 15 14:54:54 2023 GMT
        Subject: C = DE, O = Robert Koch-Institut, OU = Elektronischer Impfnachweis, CN = Robert Koch-Institut, L = Berlin, postalCode = 13353, street = Nordufer 20, 2.5.4.97 = DT:DE-3023531445, serialNumber = CSM026460123, ST = Berlin
        Subject Public Key Info:
            Public Key Algorithm: id-ecPublicKey
                Public-Key: (256 bit)
                pub:
                    04:87:85:0c:97:c3:ec:41:4b:2e:df:a1:ea:ef:12:
                    be:77:21:96:1a:b1:0b:c6:c7:f3:54:e9:f2:db:46:
                    67:90:78:72:05:8c:41:50:81:a8:1c:46:25:ef:46:
                    e9:ce:31:41:24:de:16:2c:6b:62:95:90:ff:d1:a2:
                    d6:13:ff:b2:93
                ASN1 OID: prime256v1
                NIST CURVE: P-256
        X509v3 extensions:
            X509v3 Authority Key Identifier: 
                keyid:71:10:32:AE:74:71:7B:54:8E:F1:D6:AB:62:54:AE:FC:3E:C0:BB:16

            qcStatements: 
                0.0......F..0......F..0......F...
            Authority Information Access: 
                OCSP - URI:http://d-trust-ca-2-2-2019.ocsp.d-trust.net
                CA Issuers - URI:http://www.d-trust.net/cgi-bin/D-TRUST_CA_2-2_2019.crt
                CA Issuers - URI:ldap://directory.d-trust.net/CN=D-TRUST%20CA%202-2%202019,O=D-Trust%20GmbH,C=DE?cACertificate?base?

            X509v3 Certificate Policies: 
                Policy: 0.4.0.194112.1.1
                Policy: 1.3.6.1.4.1.4788.2.150.5
                  CPS: http://www.d-trust.net/internet/files/D-TRUST_CSM_PKI_CPS.pdf

            X509v3 CRL Distribution Points: 

                Full Name:
                  URI:ldap://directory.d-trust.net/CN=D-TRUST%20CA%202-2%202019,O=D-Trust%20GmbH,C=DE?certificaterevocationlist
                  URI:http://crl.d-trust.net/crl/d-trust_ca_2-2_2019.crl
                  URI:http://cdn.d-trust-cloudcrl.net/crl/d-trust_ca_2-2_2019.crl

            X509v3 Subject Key Identifier: 
                CF:38:B1:A1:C3:60:9D:F2:60:B5:D0:B7:43:8C:39:31:F0:2E:D2:9D
            X509v3 Key Usage: critical
                Digital Signature, Non Repudiation
    Signature Algorithm: rsassaPss
         Hash Algorithm: sha512
         Mask Algorithm: mgf1 with sha512
         Salt Length: 0x40
         Trailer Field: 0xBC (default)

         ce:c3:8c:a2:cd:4a:53:75:3a:05:b6:85:10:08:c9:a9:ce:fd:
         0e:0c:8c:fa:e1:12:f6:f3:d1:68:92:9c:4f:2b:a2:d7:33:e8:
         43:23:a6:67:30:e0:16:92:b9:79:ee:14:b2:e7:95:67:28:d0:
         e8:93:ba:0c:22:9f:ca:28:71:3e:50:3d:2f:25:f0:e5:98:42:
         e9:b2:ea:7f:d6:7b:34:5d:2e:cf:98:42:d7:47:4f:78:8e:0a:
         18:02:91:39:c1:8c:8f:9e:ec:93:33:f5:fd:3f:6a:c7:1a:2c:
         7a:b8:d3:13:37:16:85:1b:36:a4:2a:4c:dd:a0:65:35:c0:df:
         55:88:f6:17:44:b2:e8:76:e8:ce:67:16:84:ee:02:d9:59:c8:
         8e:3f:ac:2e:d2:57:e4:ef:2d:df:5a:7f:bd:aa:1c:d5:19:d9:
         77:7a:4d:92:bc:70:65:74:6e:aa:2d:17:0f:27:43:e5:f6:42:
         19:4c:7d:68:09:a7:71:a7:c3:0e:f1:f6:61:43:f3:0f:63:e6:
         ca:cb:81:cf:f7:e4:f2:cb:bf:a0:76:e8:b5:97:1e:cc:64:2c:
         bb:f1:ea:12:8d:a6:aa:b2:42:31:8d:a5:a2:fd:e7:c3:ca:77:
         75:5d:13:bc:55:5a:1e:12:ae:50:6a:e1:ca:0d:f5:06:33:4c:
         e8:ea:6d:db:b6:79:48:b8:ff:e4:cd:09:54:dd:fa:77:d8:5e:
         4d:be:a5:df:06:ee:61:b7:28:6e:6d:e6:f6:b5:c0:9d:a7:47:
         73:96:89:1f:a9:b6:42:32:1f:0d:be:0a:7d:38:cf:d3:60:7f:
         36:dc:5b:27:38:c7:9c:80:2f:2d:6c:e5:78:fd:e1:ee:45:a2:
         1f:03:0a:e9:b7:69:97:45:ec:c5:60:be:a6:ef:a5:cc:7a:e2:
         c5:7e:af:84:2b:41:50:68:a2:32:23:a5:b6:be:76:c1:b2:c6:
         b2:35:4c:0b:04:e0:71:09:fd:ab:c1:c8:b7:4b:11:99:5b:3c:
         cb:fa:d8:81:3f:24:f0:80:10:4b:48:e1:36:c1:6f:5b:81:f9:
         6d:4b:d3:fd:a4:ae:20:1a:13:79:64:4e:ae:5b:a4:46:56:6a:
         bc:b2:a8:ae:94:73:df:46:7b:3f:fa:3a:04:86:fb:05:87:2e:
         6e:bc:ce:7b:fa:90:11:fc:8d:0f:29:c1:75:da:49:1c:b8:ae:
         75:6d:5e:02:76:ad:18:d1:6d:a7:fb:3b:43:fb:67:40:c9:b9:
         46:20:fd:a8:e9:4e:36:d7:e2:de:4b:54:f8:82:82:78:03:1c:
         87:7b:44:e0:4a:e9:85:b2:3b:75:f9:04:e6:47:19:e8:b2:87:
         bf:e8:29:56:b6:73:fd:34
-----BEGIN CERTIFICATE-----
MIIHUTCCBQmgAwIBAgIQfctFzDulJQkaXXsawJdCOjA9BgkqhkiG9w0BAQowMKAN
MAsGCWCGSAFlAwQCA6EaMBgGCSqGSIb3DQEBCDALBglghkgBZQMEAgOiAwIBQDBb
MQswCQYDVQQGEwJERTEVMBMGA1UEChMMRC1UcnVzdCBHbWJIMRwwGgYDVQQDExNE
LVRSVVNUIENBIDItMiAyMDE5MRcwFQYDVQRhEw5OVFJERS1IUkI3NDM0NjAeFw0y
MTA2MTExNDU0NTRaFw0yMzA2MTUxNDU0NTRaMIHrMQswCQYDVQQGEwJERTEdMBsG
A1UEChMUUm9iZXJ0IEtvY2gtSW5zdGl0dXQxJDAiBgNVBAsTG0VsZWt0cm9uaXNj
aGVyIEltcGZuYWNod2VpczEdMBsGA1UEAxMUUm9iZXJ0IEtvY2gtSW5zdGl0dXQx
DzANBgNVBAcTBkJlcmxpbjEOMAwGA1UEEQwFMTMzNTMxFDASBgNVBAkTC05vcmR1
ZmVyIDIwMRkwFwYDVQRhExBEVDpERS0zMDIzNTMxNDQ1MRUwEwYDVQQFEwxDU00w
MjY0NjAxMjMxDzANBgNVBAgTBkJlcmxpbjBZMBMGByqGSM49AgEGCCqGSM49AwEH
A0IABIeFDJfD7EFLLt+h6u8SvnchlhqxC8bH81Tp8ttGZ5B4cgWMQVCBqBxGJe9G
6c4xQSTeFixrYpWQ/9Gi1hP/spOjggLpMIIC5TAfBgNVHSMEGDAWgBRxEDKudHF7
VI7x1qtiVK78PsC7FjAtBggrBgEFBQcBAwQhMB8wCAYGBACORgEBMBMGBgQAjkYB
BjAJBgcEAI5GAQYCMIH+BggrBgEFBQcBAQSB8TCB7jA3BggrBgEFBQcwAYYraHR0
cDovL2QtdHJ1c3QtY2EtMi0yLTIwMTkub2NzcC5kLXRydXN0Lm5ldDBCBggrBgEF
BQcwAoY2aHR0cDovL3d3dy5kLXRydXN0Lm5ldC9jZ2ktYmluL0QtVFJVU1RfQ0Ff
Mi0yXzIwMTkuY3J0MG8GCCsGAQUFBzAChmNsZGFwOi8vZGlyZWN0b3J5LmQtdHJ1
c3QubmV0L0NOPUQtVFJVU1QlMjBDQSUyMDItMiUyMDIwMTksTz1ELVRydXN0JTIw
R21iSCxDPURFP2NBQ2VydGlmaWNhdGU/YmFzZT8wcAYDVR0gBGkwZzAJBgcEAIvs
QAEBMFoGCysGAQQBpTQCgRYFMEswSQYIKwYBBQUHAgEWPWh0dHA6Ly93d3cuZC10
cnVzdC5uZXQvaW50ZXJuZXQvZmlsZXMvRC1UUlVTVF9DU01fUEtJX0NQUy5wZGYw
gfAGA1UdHwSB6DCB5TCB4qCB36CB3IZpbGRhcDovL2RpcmVjdG9yeS5kLXRydXN0
Lm5ldC9DTj1ELVRSVVNUJTIwQ0ElMjAyLTIlMjAyMDE5LE89RC1UcnVzdCUyMEdt
YkgsQz1ERT9jZXJ0aWZpY2F0ZXJldm9jYXRpb25saXN0hjJodHRwOi8vY3JsLmQt
dHJ1c3QubmV0L2NybC9kLXRydXN0X2NhXzItMl8yMDE5LmNybIY7aHR0cDovL2Nk
bi5kLXRydXN0LWNsb3VkY3JsLm5ldC9jcmwvZC10cnVzdF9jYV8yLTJfMjAxOS5j
cmwwHQYDVR0OBBYEFM84saHDYJ3yYLXQt0OMOTHwLtKdMA4GA1UdDwEB/wQEAwIG
wDA9BgkqhkiG9w0BAQowMKANMAsGCWCGSAFlAwQCA6EaMBgGCSqGSIb3DQEBCDAL
BglghkgBZQMEAgOiAwIBQAOCAgEAzsOMos1KU3U6BbaFEAjJqc79DgyM+uES9vPR
aJKcTyui1zPoQyOmZzDgFpK5ee4UsueVZyjQ6JO6DCKfyihxPlA9LyXw5ZhC6bLq
f9Z7NF0uz5hC10dPeI4KGAKROcGMj57skzP1/T9qxxoserjTEzcWhRs2pCpM3aBl
NcDfVYj2F0Sy6HbozmcWhO4C2VnIjj+sLtJX5O8t31p/vaoc1RnZd3pNkrxwZXRu
qi0XDydD5fZCGUx9aAmncafDDvH2YUPzD2PmysuBz/fk8su/oHbotZcezGQsu/Hq
Eo2mqrJCMY2lov3nw8p3dV0TvFVaHhKuUGrhyg31BjNM6Opt27Z5SLj/5M0JVN36
d9heTb6l3wbuYbcobm3m9rXAnadHc5aJH6m2QjIfDb4KfTjP02B/NtxbJzjHnIAv
LWzleP3h7kWiHwMK6bdpl0XsxWC+pu+lzHrixX6vhCtBUGiiMiOltr52wbLGsjVM
CwTgcQn9q8HIt0sRmVs8y/rYgT8k8IAQS0jhNsFvW4H5bUvT/aSuIBoTeWROrluk
RlZqvLKorpRz30Z7P/o6BIb7BYcubrzOe/qQEfyNDynBddpJHLiudW1eAnatGNFt
p/s7Q/tnQMm5RiD9qOlONtfi3ktU+IKCeAMch3tE4ErphbI7dfkE5kcZ6LKHv+gp
VrZz/TQ=
-----END CERTIFICATE-----
