Certificate:
    Data:
        Version: 3 (0x2)
        Serial Number:
            39:c9:28:ce:90:6e:97:ae:99
    Signature Algorithm: ecdsa-with-SHA256
        Issuer: CN = EADTrust ECC 256 SubCA For Qualified Certificates 2019, O = "European Agency of Digital Trust, S.L.", C = ES, 2.5.4.97 = VATES-B85626240, OU = Legal Person
        Validity
            Not Before: Apr 30 13:10:00 2021 GMT
            Not After : Apr 30 13:10:00 2023 GMT
        Subject: CN = Secretar\C3\ADa General del Servicio Canario de la Salud, serialNumber = Q8555011I, OU = SELLO ELECTRONICO, OU = Secretar\C3\ADa General del Servicio Canario de la Salud, 2.5.4.97 = VATES-Q8555011I, O = Servicio Canario de la Salud, C = ES
        Subject Public Key Info:
            Public Key Algorithm: id-ecPublicKey
                Public-Key: (256 bit)
                pub:
                    04:6e:58:ac:f1:14:78:39:ce:17:aa:ae:11:65:d8:
                    6b:27:40:e7:90:0b:ca:e2:f6:3c:01:a9:96:6c:58:
                    3d:4f:b3:86:d7:b2:da:f1:32:58:4e:ad:c5:a8:92:
                    5d:e4:ab:6d:4c:fe:f5:1a:88:f1:44:5d:11:10:aa:
                    45:fa:ec:00:b7
                ASN1 OID: prime256v1
                NIST CURVE: P-256
        X509v3 extensions:
            X509v3 Basic Constraints: critical
                CA:FALSE
            X509v3 Authority Key Identifier: 
                keyid:D3:4C:6C:3A:BD:36:FE:70:87:23:87:3A:EE:3D:90:CF:CB:9B:F7:21

            Authority Information Access: 
                CA Issuers - URI:http://ca.eadtrust.eu/eadtrust-subca-ecc256eadlp2019.crt
                OCSP - URI:http://ocsp.eadtrust.eu

            X509v3 Issuer Alternative Name: 
                email:ca@eadtrust.eu, URI:http://www.eadtrust.eu, URI:http://ca.eadtrust.eu, URI:http://policy.eadtrust.eu
            X509v3 Subject Alternative Name: 
                DirName:/2.16.724.1.3.5.6.2.1=SELLO ELECTRONICO DE NIVEL MEDIO/2.16.724.1.3.5.6.2.2=Servicio Canario de la Salud/2.16.724.1.3.5.6.2.3=Q8555011I
            X509v3 Certificate Policies: 
                Policy: 2.16.724.1.3.5.6.2
                Policy: 0.4.0.194112.1.1
                  User Notice:
                    Explicit Text: European Telecommunications Standards Institute. eIDAS European Regulation Compliant
                Policy: 1.3.6.1.4.1.501.2.1.1.0.41233
                  CPS: http://policy.eadtrust.eu
                  User Notice:
                    Explicit Text: Certificado cualificado de sello electrónico de Administración, órgano o entidad de derecho público, nivel Medio/Sustancial. Consulte las condiciones de uso en http://policy.eadtrust.eu

            X509v3 Extended Key Usage: 
                TLS Web Client Authentication, E-mail Protection
            qcStatements: 
                0..0...+.......0.......I..0......F..0......F.....0......F..0......F...0l.....F..0b00.*https://eadtrust.eu/en/documents-in-force/..en0..(https://eadtrust.eu/documentos-vigentes/..es
            X509v3 CRL Distribution Points: 

                Full Name:
                  URI:http://crl.eadtrust.eu/eadtrust-subca-ecc256eadlp2019.crl

            X509v3 Subject Key Identifier: 
                CF:0B:69:20:E3:37:C0:2B:E0:53:A8:AB:92:F9:8C:B0:BC:97:89:AE
            X509v3 Key Usage: critical
                Digital Signature, Non Repudiation, Key Encipherment
    Signature Algorithm: ecdsa-with-SHA256
         30:45:02:20:0e:60:27:6c:cf:6a:f1:69:4e:4a:8f:86:6d:c7:
         e9:e0:b4:63:96:96:83:79:49:81:3e:96:1b:05:99:08:03:c3:
         02:21:00:97:88:32:0a:0e:32:90:e5:55:2f:0d:26:c1:b6:bc:
         22:57:aa:be:a2:e8:7f:66:78:df:d4:4f:20:bd:b6:66:5b
-----BEGIN CERTIFICATE-----
MIIHPDCCBuKgAwIBAgIJOckozpBul66ZMAoGCCqGSM49BAMCMIGwMT8wPQYDVQQD
DDZFQURUcnVzdCBFQ0MgMjU2IFN1YkNBIEZvciBRdWFsaWZpZWQgQ2VydGlmaWNh
dGVzIDIwMTkxLzAtBgNVBAoMJkV1cm9wZWFuIEFnZW5jeSBvZiBEaWdpdGFsIFRy
dXN0LCBTLkwuMQswCQYDVQQGEwJFUzEYMBYGA1UEYQwPVkFURVMtQjg1NjI2MjQw
MRUwEwYDVQQLDAxMZWdhbCBQZXJzb24wHhcNMjEwNDMwMTMxMDAwWhcNMjMwNDMw
MTMxMDAwWjCB/DE9MDsGA1UEAww0U2VjcmV0YXLDrWEgR2VuZXJhbCBkZWwgU2Vy
dmljaW8gQ2FuYXJpbyBkZSBsYSBTYWx1ZDESMBAGA1UEBRMJUTg1NTUwMTFJMRow
GAYDVQQLDBFTRUxMTyBFTEVDVFJPTklDTzE9MDsGA1UECww0U2VjcmV0YXLDrWEg
R2VuZXJhbCBkZWwgU2VydmljaW8gQ2FuYXJpbyBkZSBsYSBTYWx1ZDEYMBYGA1UE
YQwPVkFURVMtUTg1NTUwMTFJMSUwIwYDVQQKDBxTZXJ2aWNpbyBDYW5hcmlvIGRl
IGxhIFNhbHVkMQswCQYDVQQGEwJFUzBZMBMGByqGSM49AgEGCCqGSM49AwEHA0IA
BG5YrPEUeDnOF6quEWXYaydA55ALyuL2PAGplmxYPU+zhtey2vEyWE6txaiSXeSr
bUz+9RqI8URdERCqRfrsALejggSVMIIEkTAMBgNVHRMBAf8EAjAAMB8GA1UdIwQY
MBaAFNNMbDq9Nv5whyOHOu49kM/Lm/chMHkGCCsGAQUFBwEBBG0wazBEBggrBgEF
BQcwAoY4aHR0cDovL2NhLmVhZHRydXN0LmV1L2VhZHRydXN0LXN1YmNhLWVjYzI1
NmVhZGxwMjAxOS5jcnQwIwYIKwYBBQUHMAGGF2h0dHA6Ly9vY3NwLmVhZHRydXN0
LmV1MGMGA1UdEgRcMFqBDmNhQGVhZHRydXN0LmV1hhZodHRwOi8vd3d3LmVhZHRy
dXN0LmV1hhVodHRwOi8vY2EuZWFkdHJ1c3QuZXWGGWh0dHA6Ly9wb2xpY3kuZWFk
dHJ1c3QuZXUwgYUGA1UdEQR+MHykejB4MS8wLQYJYIVUAQMFBgIBDCBTRUxMTyBF
TEVDVFJPTklDTyBERSBOSVZFTCBNRURJTzErMCkGCWCFVAEDBQYCAgwcU2Vydmlj
aW8gQ2FuYXJpbyBkZSBsYSBTYWx1ZDEYMBYGCWCFVAEDBQYCAwwJUTg1NTUwMTFJ
MIIBmAYDVR0gBIIBjzCCAYswCgYIYIVUAQMFBgIwbwYHBACL7EABATBkMGIGCCsG
AQUFBwICMFYMVEV1cm9wZWFuIFRlbGVjb21tdW5pY2F0aW9ucyBTdGFuZGFyZHMg
SW5zdGl0dXRlLiBlSURBUyBFdXJvcGVhbiBSZWd1bGF0aW9uIENvbXBsaWFudDCC
AQoGDisGAQQBg3UCAQEAgsIRMIH3MCUGCCsGAQUFBwIBFhlodHRwOi8vcG9saWN5
LmVhZHRydXN0LmV1MIHNBggrBgEFBQcCAjCBwAyBvUNlcnRpZmljYWRvIGN1YWxp
ZmljYWRvIGRlIHNlbGxvIGVsZWN0csOzbmljbyBkZSBBZG1pbmlzdHJhY2nDs24s
IMOzcmdhbm8gbyBlbnRpZGFkIGRlIGRlcmVjaG8gcMO6YmxpY28sIG5pdmVsIE1l
ZGlvL1N1c3RhbmNpYWwuIENvbnN1bHRlIGxhcyBjb25kaWNpb25lcyBkZSB1c28g
ZW4gaHR0cDovL3BvbGljeS5lYWR0cnVzdC5ldTAdBgNVHSUEFjAUBggrBgEFBQcD
AgYIKwYBBQUHAwQwgcEGCCsGAQUFBwEDBIG0MIGxMBUGCCsGAQUFBwsCMAkGBwQA
i+xJAQIwCAYGBACORgEBMAsGBgQAjkYBAwIBDzATBgYEAI5GAQYwCQYHBACORgEG
AjBsBgYEAI5GAQUwYjAwFipodHRwczovL2VhZHRydXN0LmV1L2VuL2RvY3VtZW50
cy1pbi1mb3JjZS8TAmVuMC4WKGh0dHBzOi8vZWFkdHJ1c3QuZXUvZG9jdW1lbnRv
cy12aWdlbnRlcy8TAmVzMEoGA1UdHwRDMEEwP6A9oDuGOWh0dHA6Ly9jcmwuZWFk
dHJ1c3QuZXUvZWFkdHJ1c3Qtc3ViY2EtZWNjMjU2ZWFkbHAyMDE5LmNybDAdBgNV
HQ4EFgQUzwtpIOM3wCvgU6irkvmMsLyXia4wDgYDVR0PAQH/BAQDAgXgMAoGCCqG
SM49BAMCA0gAMEUCIA5gJ2zPavFpTkqPhm3H6eC0Y5aWg3lJgT6WGwWZCAPDAiEA
l4gyCg4ykOVVLw0mwba8IleqvqLof2Z439RPIL22Zls=
-----END CERTIFICATE-----
