Certificate:
    Data:
        Version: 3 (0x2)
        Serial Number:
            77:7a:43:8c:90:c1:17:91:fd:73:b9:da:35:3d:2e:de
    Signature Algorithm: rsassaPss
         Hash Algorithm: sha512
         Mask Algorithm: mgf1 with sha512
         Salt Length: 0x40
         Trailer Field: 0xBC (default)
        Issuer: C = DE, O = D-Trust GmbH, CN = D-TRUST CA 2-2 2019, 2.5.4.97 = NTRDE-HRB74346
        Validity
            Not Before: Jun 24 13:24:35 2021 GMT
            Not After : Jun 28 13:24:35 2023 GMT
        Subject: C = DE, O = Robert Koch-Institut, OU = Elektronischer Impfnachweis, CN = Robert Koch-Institut, L = Berlin, postalCode = 13353, street = Nordufer 20, 2.5.4.97 = DT:DE-3023531445, serialNumber = CSM026571377, ST = Berlin
        Subject Public Key Info:
            Public Key Algorithm: id-ecPublicKey
                Public-Key: (256 bit)
                pub:
                    04:eb:94:09:94:6e:0d:43:55:0a:33:7f:f9:61:fe:
                    a7:f6:ee:37:d1:2d:20:b4:46:ab:38:5e:1e:f9:6a:
                    c8:2f:05:1a:9a:4b:0e:db:32:5f:4a:00:30:5c:95:
                    76:67:3c:de:9c:d4:66:97:58:85:7d:f7:5f:e1:5e:
                    f2:c7:38:0b:53
                ASN1 OID: prime256v1
                NIST CURVE: P-256
        X509v3 extensions:
            X509v3 Authority Key Identifier: 
                keyid:71:10:32:AE:74:71:7B:54:8E:F1:D6:AB:62:54:AE:FC:3E:C0:BB:16

            qcStatements: 
                0.0......F..0......F..0......F...
            Authority Information Access: 
                OCSP - URI:http://d-trust-ca-2-2-2019.ocsp.d-trust.net
                CA Issuers - URI:http://www.d-trust.net/cgi-bin/D-TRUST_CA_2-2_2019.crt
                CA Issuers - URI:ldap://directory.d-trust.net/CN=D-TRUST%20CA%202-2%202019,O=D-Trust%20GmbH,C=DE?cACertificate?base?

            X509v3 Certificate Policies: 
                Policy: 0.4.0.194112.1.1
                Policy: 1.3.6.1.4.1.4788.2.150.5
                  CPS: http://www.d-trust.net/internet/files/D-TRUST_CSM_PKI_CPS.pdf

            X509v3 CRL Distribution Points: 

                Full Name:
                  URI:http://crl.d-trust.net/crl/d-trust_ca_2-2_2019.crl
                  URI:http://cdn.d-trust-cloudcrl.net/crl/d-trust_ca_2-2_2019.crl
                  URI:ldap://directory.d-trust.net/CN=D-TRUST%20CA%202-2%202019,O=D-Trust%20GmbH,C=DE?certificaterevocationlist

            X509v3 Subject Key Identifier: 
                A8:46:F3:74:9E:03:12:69:04:85:45:91:47:7C:34:1E:4E:CD:61:A5
            X509v3 Key Usage: critical
                Digital Signature, Non Repudiation
    Signature Algorithm: rsassaPss
         Hash Algorithm: sha512
         Mask Algorithm: mgf1 with sha512
         Salt Length: 0x40
         Trailer Field: 0xBC (default)

         78:18:5a:3d:18:a9:c4:04:fd:41:39:4c:1c:2b:4b:cc:7a:5d:
         1f:00:ea:a4:9d:7c:d8:8e:b9:43:1c:0f:47:16:01:67:5b:40:
         65:43:62:ef:dc:03:49:df:11:85:e5:60:e5:10:09:cd:7f:0c:
         26:26:b2:a7:44:67:3e:4d:be:5c:7b:97:f1:f4:b5:2d:2f:74:
         e2:7e:19:99:e3:c0:4a:3a:21:47:a5:07:47:e0:5e:a6:d3:c8:
         2e:7f:84:15:52:ba:53:1a:46:12:6d:73:2b:c9:45:22:2c:08:
         78:e7:57:8c:d4:83:b4:e6:cd:46:e9:b6:83:38:4e:4f:34:8a:
         f9:a2:e4:2f:83:38:27:07:80:de:72:9d:76:e6:b7:f5:95:5f:
         7d:6f:4b:cc:43:4e:2e:c0:ab:b2:68:f8:1b:29:da:3e:91:77:
         5e:45:85:3d:0e:3e:3e:77:d1:de:de:2c:9c:c3:b2:fb:54:28:
         b5:e0:84:6e:3b:18:84:2d:61:45:35:93:72:7f:85:13:45:6d:
         a8:3b:bf:40:fa:9e:4c:18:9d:be:fe:a7:f2:f4:4c:a7:d2:87:
         9a:1d:d8:ed:46:dd:2d:e1:6b:f0:18:bc:95:5c:70:1a:a1:4b:
         e4:8e:a7:d3:f6:ab:26:23:41:ab:69:fd:91:2d:3b:f3:11:2b:
         29:b3:8c:c7:fb:24:55:31:18:33:f4:d2:00:67:ca:7b:f5:24:
         7c:10:cb:5a:83:0e:0d:f2:ab:a0:c5:98:6d:da:a4:a8:b0:03:
         82:2a:b2:31:1b:d6:87:4a:95:cf:00:fe:96:cb:27:48:a7:a4:
         36:70:52:39:4a:b2:f9:66:82:77:b4:68:1e:24:94:e5:23:08:
         16:18:53:87:b2:fd:77:97:26:92:97:f3:46:f1:99:0e:ec:5b:
         d6:e7:f0:6c:da:68:5e:a8:2a:4a:49:8f:db:ff:3e:dd:d4:50:
         d8:13:b0:98:c1:f2:be:cd:ad:52:0b:33:74:08:e6:88:26:34:
         23:51:10:8b:39:57:0a:57:a8:c6:52:a3:b8:15:b7:76:97:49:
         af:6f:b0:1c:6e:fd:d3:eb:23:93:06:75:c8:40:29:ff:de:d5:
         d9:1b:bb:58:96:88:6d:4e:16:72:b6:94:37:ab:f0:ce:84:f1:
         3c:db:f1:56:09:65:0c:e4:28:bd:a2:7b:89:6c:c9:5a:fd:de:
         30:18:6b:65:54:f3:71:f8:ad:6e:b0:0f:02:8e:6f:b3:a2:e8:
         28:d1:1c:46:35:8a:51:a1:41:c5:49:9e:54:de:6d:23:2c:b7:
         8e:34:04:fa:e1:c0:8d:38:b1:a9:cf:97:d3:8f:b7:ae:7b:04:
         99:a1:ec:8e:77:fa:64:ba
-----BEGIN CERTIFICATE-----
MIIHUTCCBQmgAwIBAgIQd3pDjJDBF5H9c7naNT0u3jA9BgkqhkiG9w0BAQowMKAN
MAsGCWCGSAFlAwQCA6EaMBgGCSqGSIb3DQEBCDALBglghkgBZQMEAgOiAwIBQDBb
MQswCQYDVQQGEwJERTEVMBMGA1UEChMMRC1UcnVzdCBHbWJIMRwwGgYDVQQDExNE
LVRSVVNUIENBIDItMiAyMDE5MRcwFQYDVQRhEw5OVFJERS1IUkI3NDM0NjAeFw0y
MTA2MjQxMzI0MzVaFw0yMzA2MjgxMzI0MzVaMIHrMQswCQYDVQQGEwJERTEdMBsG
A1UEChMUUm9iZXJ0IEtvY2gtSW5zdGl0dXQxJDAiBgNVBAsTG0VsZWt0cm9uaXNj
aGVyIEltcGZuYWNod2VpczEdMBsGA1UEAxMUUm9iZXJ0IEtvY2gtSW5zdGl0dXQx
DzANBgNVBAcTBkJlcmxpbjEOMAwGA1UEEQwFMTMzNTMxFDASBgNVBAkTC05vcmR1
ZmVyIDIwMRkwFwYDVQRhExBEVDpERS0zMDIzNTMxNDQ1MRUwEwYDVQQFEwxDU00w
MjY1NzEzNzcxDzANBgNVBAgTBkJlcmxpbjBZMBMGByqGSM49AgEGCCqGSM49AwEH
A0IABOuUCZRuDUNVCjN/+WH+p/buN9EtILRGqzheHvlqyC8FGppLDtsyX0oAMFyV
dmc83pzUZpdYhX33X+Fe8sc4C1OjggLpMIIC5TAfBgNVHSMEGDAWgBRxEDKudHF7
VI7x1qtiVK78PsC7FjAtBggrBgEFBQcBAwQhMB8wCAYGBACORgEBMBMGBgQAjkYB
BjAJBgcEAI5GAQYCMIH+BggrBgEFBQcBAQSB8TCB7jA3BggrBgEFBQcwAYYraHR0
cDovL2QtdHJ1c3QtY2EtMi0yLTIwMTkub2NzcC5kLXRydXN0Lm5ldDBCBggrBgEF
BQcwAoY2aHR0cDovL3d3dy5kLXRydXN0Lm5ldC9jZ2ktYmluL0QtVFJVU1RfQ0Ff
Mi0yXzIwMTkuY3J0MG8GCCsGAQUFBzAChmNsZGFwOi8vZGlyZWN0b3J5LmQtdHJ1
c3QubmV0L0NOPUQtVFJVU1QlMjBDQSUyMDItMiUyMDIwMTksTz1ELVRydXN0JTIw
R21iSCxDPURFP2NBQ2VydGlmaWNhdGU/YmFzZT8wcAYDVR0gBGkwZzAJBgcEAIvs
QAEBMFoGCysGAQQBpTQCgRYFMEswSQYIKwYBBQUHAgEWPWh0dHA6Ly93d3cuZC10
cnVzdC5uZXQvaW50ZXJuZXQvZmlsZXMvRC1UUlVTVF9DU01fUEtJX0NQUy5wZGYw
gfAGA1UdHwSB6DCB5TCB4qCB36CB3IYyaHR0cDovL2NybC5kLXRydXN0Lm5ldC9j
cmwvZC10cnVzdF9jYV8yLTJfMjAxOS5jcmyGO2h0dHA6Ly9jZG4uZC10cnVzdC1j
bG91ZGNybC5uZXQvY3JsL2QtdHJ1c3RfY2FfMi0yXzIwMTkuY3JshmlsZGFwOi8v
ZGlyZWN0b3J5LmQtdHJ1c3QubmV0L0NOPUQtVFJVU1QlMjBDQSUyMDItMiUyMDIw
MTksTz1ELVRydXN0JTIwR21iSCxDPURFP2NlcnRpZmljYXRlcmV2b2NhdGlvbmxp
c3QwHQYDVR0OBBYEFKhG83SeAxJpBIVFkUd8NB5OzWGlMA4GA1UdDwEB/wQEAwIG
wDA9BgkqhkiG9w0BAQowMKANMAsGCWCGSAFlAwQCA6EaMBgGCSqGSIb3DQEBCDAL
BglghkgBZQMEAgOiAwIBQAOCAgEAeBhaPRipxAT9QTlMHCtLzHpdHwDqpJ182I65
QxwPRxYBZ1tAZUNi79wDSd8RheVg5RAJzX8MJiayp0RnPk2+XHuX8fS1LS904n4Z
mePASjohR6UHR+BeptPILn+EFVK6UxpGEm1zK8lFIiwIeOdXjNSDtObNRum2gzhO
TzSK+aLkL4M4JweA3nKddua39ZVffW9LzENOLsCrsmj4GynaPpF3XkWFPQ4+PnfR
3t4snMOy+1QoteCEbjsYhC1hRTWTcn+FE0VtqDu/QPqeTBidvv6n8vRMp9KHmh3Y
7UbdLeFr8Bi8lVxwGqFL5I6n0/arJiNBq2n9kS078xErKbOMx/skVTEYM/TSAGfK
e/UkfBDLWoMODfKroMWYbdqkqLADgiqyMRvWh0qVzwD+lssnSKekNnBSOUqy+WaC
d7RoHiSU5SMIFhhTh7L9d5cmkpfzRvGZDuxb1ufwbNpoXqgqSkmP2/8+3dRQ2BOw
mMHyvs2tUgszdAjmiCY0I1EQizlXCleoxlKjuBW3dpdJr2+wHG790+sjkwZ1yEAp
/97V2Ru7WJaIbU4WcraUN6vwzoTxPNvxVgllDOQovaJ7iWzJWv3eMBhrZVTzcfit
brAPAo5vs6LoKNEcRjWKUaFBxUmeVN5tIyy3jjQE+uHAjTixqc+X04+3rnsEmaHs
jnf6ZLo=
-----END CERTIFICATE-----
