Certificate:
    Data:
        Version: 3 (0x2)
        Serial Number:
            45:75:55:fc:6a:b6:22:b9:fa:83:f3:6a:84:15:16:f8:af:74:6d:0a
    Signature Algorithm: ecdsa-with-SHA256
        Issuer: C = BG, O = Ministry of Health, OU = Health Information System, CN = Bulgaria DGC CSCA 1
        Validity
            Not Before: May 28 12:41:51 2021 GMT
            Not After : May 28 12:41:51 2023 GMT
        Subject: C = BG, L = Sofia, O = Ministry of Health, OU = Health Information System, CN = DGC DSC 1
        Subject Public Key Info:
            Public Key Algorithm: id-ecPublicKey
                Public-Key: (256 bit)
                pub:
                    04:9b:2c:65:b0:4d:a2:9c:1b:ac:6a:9c:58:ec:bb:
                    d1:88:f3:74:b3:e7:6c:1e:76:a4:69:a6:bd:33:fe:
                    4d:0d:96:53:96:34:99:0b:37:8a:ef:b7:d6:3b:d3:
                    05:45:c1:82:5e:b4:d0:69:73:44:dc:58:64:57:8f:
                    9a:f7:68:51:6b
                ASN1 OID: prime256v1
                NIST CURVE: P-256
        X509v3 extensions:
            X509v3 Basic Constraints: critical
                CA:FALSE
            X509v3 CRL Distribution Points: 

                Full Name:
                  URI:http://crl.his.bg/csca1.crl

            X509v3 Authority Key Identifier: 
                keyid:57:8C:1C:F9:66:7B:E2:78:B6:FC:22:F2:BD:EE:E1:90:A6:3F:B1:56

            X509v3 Subject Key Identifier: 
                BE:66:4D:EE:CA:74:D3:1E:F0:74:31:BF:5E:02:05:85:D2:F0:3A:0C
            X509v3 Key Usage: critical
                Digital Signature
            X509v3 Extended Key Usage: 
                1.3.6.1.4.1.0.1847.2021.1.1, 1.3.6.1.4.1.0.1847.2021.1.2, 1.3.6.1.4.1.0.1847.2021.1.3
    Signature Algorithm: ecdsa-with-SHA256
         30:44:02:20:63:49:e0:6f:8c:fd:8b:e5:44:8f:0a:40:80:66:
         08:29:fd:de:0c:c3:f3:d4:1a:dd:7b:8d:07:44:7a:de:df:d4:
         02:20:14:8d:06:28:02:96:c1:d3:16:fb:10:df:66:63:78:5c:
         0b:f6:ed:9d:b4:af:28:fa:90:56:34:f2:37:48:96:8d
-----BEGIN CERTIFICATE-----
MIICpDCCAkugAwIBAgIURXVV/Gq2Irn6g/NqhBUW+K90bQowCgYIKoZIzj0EAwIw
bDELMAkGA1UEBhMCQkcxGzAZBgNVBAoMEk1pbmlzdHJ5IG9mIEhlYWx0aDEiMCAG
A1UECwwZSGVhbHRoIEluZm9ybWF0aW9uIFN5c3RlbTEcMBoGA1UEAwwTQnVsZ2Fy
aWEgREdDIENTQ0EgMTAeFw0yMTA1MjgxMjQxNTFaFw0yMzA1MjgxMjQxNTFaMHIx
CzAJBgNVBAYTAkJHMQ4wDAYDVQQHDAVTb2ZpYTEbMBkGA1UECgwSTWluaXN0cnkg
b2YgSGVhbHRoMSIwIAYDVQQLDBlIZWFsdGggSW5mb3JtYXRpb24gU3lzdGVtMRIw
EAYDVQQDDAlER0MgRFNDIDEwWTATBgcqhkjOPQIBBggqhkjOPQMBBwNCAASbLGWw
TaKcG6xqnFjsu9GI83Sz52wedqRppr0z/k0NllOWNJkLN4rvt9Y70wVFwYJetNBp
c0TcWGRXj5r3aFFro4HEMIHBMAwGA1UdEwEB/wQCMAAwLAYDVR0fBCUwIzAhoB+g
HYYbaHR0cDovL2NybC5oaXMuYmcvY3NjYTEuY3JsMB8GA1UdIwQYMBaAFFeMHPlm
e+J4tvwi8r3u4ZCmP7FWMB0GA1UdDgQWBBS+Zk3uynTTHvB0Mb9eAgWF0vA6DDAO
BgNVHQ8BAf8EBAMCB4AwMwYDVR0lBCwwKgYMKwYBBAEAjjePZQEBBgwrBgEEAQCO
N49lAQIGDCsGAQQBAI43j2UBAzAKBggqhkjOPQQDAgNHADBEAiBjSeBvjP2L5USP
CkCAZggp/d4Mw/PUGt17jQdEet7f1AIgFI0GKAKWwdMW+xDfZmN4XAv27Z20ryj6
kFY08jdIlo0=
-----END CERTIFICATE-----
