Certificate:
    Data:
        Version: 3 (0x2)
        Serial Number:
            6a:dc:00:eb:9c:92:ce:e2:7a:e2:30:a3:72:62:fc:76
    Signature Algorithm: rsassaPss
         Hash Algorithm: sha512
         Mask Algorithm: mgf1 with sha512
         Salt Length: 0x40
         Trailer Field: 0xBC (default)
        Issuer: C = DE, O = D-Trust GmbH, CN = D-TRUST CA 2-2 2019, 2.5.4.97 = NTRDE-HRB74346
        Validity
            Not Before: Jun  3 11:03:07 2021 GMT
            Not After : Jun  7 11:03:07 2023 GMT
        Subject: C = DE, O = Robert Koch-Institut, OU = Elektronischer Impfnachweis, CN = Robert Koch-Institut, L = Berlin, postalCode = 13353, street = Nordufer 20, 2.5.4.97 = DT:DE-3023531445, serialNumber = CSM026383125, ST = Berlin
        Subject Public Key Info:
            Public Key Algorithm: id-ecPublicKey
                Public-Key: (256 bit)
                pub:
                    04:a6:86:f2:92:34:9c:39:7d:ae:cb:ee:42:fc:16:
                    01:5c:34:5c:55:45:4e:04:35:8b:52:05:1a:22:13:
                    f6:ab:41:a8:17:c1:41:04:36:01:8f:1d:69:79:68:
                    5f:e0:d7:7e:ae:d8:c1:8a:fa:f9:58:37:05:9a:33:
                    15:9f:e1:55:ce
                ASN1 OID: prime256v1
                NIST CURVE: P-256
        X509v3 extensions:
            X509v3 Authority Key Identifier: 
                keyid:71:10:32:AE:74:71:7B:54:8E:F1:D6:AB:62:54:AE:FC:3E:C0:BB:16

            qcStatements: 
                0.0......F..0......F..0......F...
            Authority Information Access: 
                OCSP - URI:http://d-trust-ca-2-2-2019.ocsp.d-trust.net
                CA Issuers - URI:http://www.d-trust.net/cgi-bin/D-TRUST_CA_2-2_2019.crt
                CA Issuers - URI:ldap://directory.d-trust.net/CN=D-TRUST%20CA%202-2%202019,O=D-Trust%20GmbH,C=DE?cACertificate?base?

            X509v3 Certificate Policies: 
                Policy: 0.4.0.194112.1.1
                Policy: 1.3.6.1.4.1.4788.2.150.5
                  CPS: http://www.d-trust.net/internet/files/D-TRUST_CSM_PKI_CPS.pdf

            X509v3 CRL Distribution Points: 

                Full Name:
                  URI:ldap://directory.d-trust.net/CN=D-TRUST%20CA%202-2%202019,O=D-Trust%20GmbH,C=DE?certificaterevocationlist
                  URI:http://crl.d-trust.net/crl/d-trust_ca_2-2_2019.crl
                  URI:http://cdn.d-trust-cloudcrl.net/crl/d-trust_ca_2-2_2019.crl

            X509v3 Subject Key Identifier: 
                BE:ED:91:BC:42:9E:6D:C0:3F:88:B4:84:6A:A3:07:C9:1C:DA:CC:71
            X509v3 Key Usage: critical
                Digital Signature, Non Repudiation
    Signature Algorithm: rsassaPss
         Hash Algorithm: sha512
         Mask Algorithm: mgf1 with sha512
         Salt Length: 0x40
         Trailer Field: 0xBC (default)

         c9:5c:23:d1:15:f1:50:86:07:59:91:ae:da:26:b1:6a:3b:78:
         8b:3e:d6:21:ec:64:5b:4a:04:e0:f9:7d:4d:35:9a:ad:e0:d3:
         9e:d4:5e:d7:d5:cc:e9:e0:90:f0:f4:31:f2:05:3f:52:95:49:
         f5:dc:63:ae:81:5a:d8:7d:1e:b8:ec:d4:0b:d9:f1:80:25:ef:
         53:3b:6d:53:95:55:c3:6d:84:db:74:33:50:2c:87:b6:44:a7:
         cc:6a:df:77:64:40:54:47:7f:9d:da:2b:a0:38:16:eb:3f:22:
         12:e6:83:b0:66:90:83:53:63:f7:7c:54:5e:1a:70:d2:6b:c5:
         34:74:7f:7d:58:15:26:b0:93:06:6c:c4:84:c4:d6:41:d9:cc:
         05:d9:41:fa:23:a0:fc:cf:d1:06:fd:04:64:ef:59:5d:cc:d7:
         f3:1e:37:a2:4b:1d:4d:32:fc:95:c3:0b:4f:b9:f3:76:c2:8e:
         43:11:77:cc:6e:4f:45:7b:89:8c:88:86:00:46:22:56:a3:fb:
         57:38:a0:7b:63:51:46:ab:0f:b1:ee:1f:25:40:f9:f5:5d:26:
         a3:e9:2d:8a:72:1a:98:49:b2:13:e4:fb:74:6f:fe:fa:57:8f:
         da:b5:04:05:db:53:87:08:89:9c:fe:bc:23:e0:8f:93:a2:fc:
         c2:99:d1:75:1a:35:08:f9:02:82:9d:f4:7b:50:b0:f7:d3:ac:
         da:1c:ff:73:9d:55:62:ea:a4:e8:e1:9f:e5:5b:bb:9f:c5:5d:
         7f:4d:2b:f0:8c:b1:40:90:64:a7:ba:b9:c8:fc:b5:69:65:34:
         e9:c0:8b:fd:ff:f2:db:fa:01:2a:a5:79:ce:f1:67:5b:d8:db:
         e6:70:f1:a1:60:28:5e:59:4c:98:86:24:82:cf:f8:10:63:0a:
         d8:6a:73:86:aa:b1:b2:41:77:30:99:99:08:e3:e4:9c:75:c2:
         1f:e8:22:4d:b6:8c:d8:77:63:61:a9:77:e6:33:40:3d:66:c4:
         4b:d5:4d:b6:5e:e9:3f:63:01:94:68:6f:eb:8e:60:69:7c:16:
         bd:88:57:26:9e:8d:e7:28:d9:d9:87:02:4a:55:34:bb:55:95:
         b6:3b:0d:6f:be:57:57:49:fe:5e:ed:09:32:0a:8a:5c:a5:fa:
         9e:9d:7f:cf:b8:bf:eb:80:b2:32:d7:eb:96:92:b7:7d:ce:7b:
         36:62:d1:57:dd:93:79:55:e0:db:bb:f0:e2:04:c3:99:75:36:
         57:7d:c6:f0:22:a7:5e:b3:2c:84:07:ea:42:05:ac:bd:b9:91:
         79:f9:90:cd:5d:dc:88:84:53:f7:8c:78:60:e7:52:78:76:80:
         1d:57:f5:e7:80:a0:0c:ce
-----BEGIN CERTIFICATE-----
MIIHUTCCBQmgAwIBAgIQatwA65ySzuJ64jCjcmL8djA9BgkqhkiG9w0BAQowMKAN
MAsGCWCGSAFlAwQCA6EaMBgGCSqGSIb3DQEBCDALBglghkgBZQMEAgOiAwIBQDBb
MQswCQYDVQQGEwJERTEVMBMGA1UEChMMRC1UcnVzdCBHbWJIMRwwGgYDVQQDExNE
LVRSVVNUIENBIDItMiAyMDE5MRcwFQYDVQRhEw5OVFJERS1IUkI3NDM0NjAeFw0y
MTA2MDMxMTAzMDdaFw0yMzA2MDcxMTAzMDdaMIHrMQswCQYDVQQGEwJERTEdMBsG
A1UEChMUUm9iZXJ0IEtvY2gtSW5zdGl0dXQxJDAiBgNVBAsTG0VsZWt0cm9uaXNj
aGVyIEltcGZuYWNod2VpczEdMBsGA1UEAxMUUm9iZXJ0IEtvY2gtSW5zdGl0dXQx
DzANBgNVBAcTBkJlcmxpbjEOMAwGA1UEEQwFMTMzNTMxFDASBgNVBAkTC05vcmR1
ZmVyIDIwMRkwFwYDVQRhExBEVDpERS0zMDIzNTMxNDQ1MRUwEwYDVQQFEwxDU00w
MjYzODMxMjUxDzANBgNVBAgTBkJlcmxpbjBZMBMGByqGSM49AgEGCCqGSM49AwEH
A0IABKaG8pI0nDl9rsvuQvwWAVw0XFVFTgQ1i1IFGiIT9qtBqBfBQQQ2AY8daXlo
X+DXfq7YwYr6+Vg3BZozFZ/hVc6jggLpMIIC5TAfBgNVHSMEGDAWgBRxEDKudHF7
VI7x1qtiVK78PsC7FjAtBggrBgEFBQcBAwQhMB8wCAYGBACORgEBMBMGBgQAjkYB
BjAJBgcEAI5GAQYCMIH+BggrBgEFBQcBAQSB8TCB7jA3BggrBgEFBQcwAYYraHR0
cDovL2QtdHJ1c3QtY2EtMi0yLTIwMTkub2NzcC5kLXRydXN0Lm5ldDBCBggrBgEF
BQcwAoY2aHR0cDovL3d3dy5kLXRydXN0Lm5ldC9jZ2ktYmluL0QtVFJVU1RfQ0Ff
Mi0yXzIwMTkuY3J0MG8GCCsGAQUFBzAChmNsZGFwOi8vZGlyZWN0b3J5LmQtdHJ1
c3QubmV0L0NOPUQtVFJVU1QlMjBDQSUyMDItMiUyMDIwMTksTz1ELVRydXN0JTIw
R21iSCxDPURFP2NBQ2VydGlmaWNhdGU/YmFzZT8wcAYDVR0gBGkwZzAJBgcEAIvs
QAEBMFoGCysGAQQBpTQCgRYFMEswSQYIKwYBBQUHAgEWPWh0dHA6Ly93d3cuZC10
cnVzdC5uZXQvaW50ZXJuZXQvZmlsZXMvRC1UUlVTVF9DU01fUEtJX0NQUy5wZGYw
gfAGA1UdHwSB6DCB5TCB4qCB36CB3IZpbGRhcDovL2RpcmVjdG9yeS5kLXRydXN0
Lm5ldC9DTj1ELVRSVVNUJTIwQ0ElMjAyLTIlMjAyMDE5LE89RC1UcnVzdCUyMEdt
YkgsQz1ERT9jZXJ0aWZpY2F0ZXJldm9jYXRpb25saXN0hjJodHRwOi8vY3JsLmQt
dHJ1c3QubmV0L2NybC9kLXRydXN0X2NhXzItMl8yMDE5LmNybIY7aHR0cDovL2Nk
bi5kLXRydXN0LWNsb3VkY3JsLm5ldC9jcmwvZC10cnVzdF9jYV8yLTJfMjAxOS5j
cmwwHQYDVR0OBBYEFL7tkbxCnm3AP4i0hGqjB8kc2sxxMA4GA1UdDwEB/wQEAwIG
wDA9BgkqhkiG9w0BAQowMKANMAsGCWCGSAFlAwQCA6EaMBgGCSqGSIb3DQEBCDAL
BglghkgBZQMEAgOiAwIBQAOCAgEAyVwj0RXxUIYHWZGu2iaxajt4iz7WIexkW0oE
4Pl9TTWareDTntRe19XM6eCQ8PQx8gU/UpVJ9dxjroFa2H0euOzUC9nxgCXvUztt
U5VVw22E23QzUCyHtkSnzGrfd2RAVEd/ndoroDgW6z8iEuaDsGaQg1Nj93xUXhpw
0mvFNHR/fVgVJrCTBmzEhMTWQdnMBdlB+iOg/M/RBv0EZO9ZXczX8x43oksdTTL8
lcMLT7nzdsKOQxF3zG5PRXuJjIiGAEYiVqP7Vzige2NRRqsPse4fJUD59V0mo+kt
inIamEmyE+T7dG/++leP2rUEBdtThwiJnP68I+CPk6L8wpnRdRo1CPkCgp30e1Cw
99Os2hz/c51VYuqk6OGf5Vu7n8Vdf00r8IyxQJBkp7q5yPy1aWU06cCL/f/y2/oB
KqV5zvFnW9jb5nDxoWAoXllMmIYkgs/4EGMK2GpzhqqxskF3MJmZCOPknHXCH+gi
TbaM2HdjYal35jNAPWbES9VNtl7pP2MBlGhv645gaXwWvYhXJp6N5yjZ2YcCSlU0
u1WVtjsNb75XV0n+Xu0JMgqKXKX6np1/z7i/64CyMtfrlpK3fc57NmLRV92TeVXg
27vw4gTDmXU2V33G8CKnXrMshAfqQgWsvbmRefmQzV3ciIRT94x4YOdSeHaAHVf1
54CgDM4=
-----END CERTIFICATE-----
