Certificate:
    Data:
        Version: 3 (0x2)
        Serial Number:
            71:6d:0d:82:40:5a:da:56:9a
    Signature Algorithm: ecdsa-with-SHA256
        Issuer: CN = EADTrust ECC 256 SubCA For Qualified Certificates 2019, O = "European Agency of Digital Trust, S.L.", C = ES, 2.5.4.97 = VATES-B85626240, OU = Legal Person
        Validity
            Not Before: May 28 14:45:00 2021 GMT
            Not After : May 28 14:45:00 2023 GMT
        Subject: CN = SELLO ELECTRONICO DE LA CIUDAD AUT\C3\93NOMA DE MELILLA, serialNumber = S7900010E, OU = SELLO ELECTRONICO, OU = DIRECCI\C3\93N GENERAL DE LA SOCIEDAD DE LA INFORMACI\C3\93N, 2.5.4.97 = VATES-S7900010E, O = CIUDAD AUT\C3\93NOMA DE MELILLA, C = ES
        Subject Public Key Info:
            Public Key Algorithm: id-ecPublicKey
                Public-Key: (256 bit)
                pub:
                    04:7b:55:d4:4c:29:fa:0e:47:5b:48:e2:a5:cb:37:
                    33:15:64:1f:0e:fb:4f:df:5b:86:76:3c:d5:0b:30:
                    24:bb:1a:2b:35:e1:17:dc:5f:36:ee:09:f2:70:bf:
                    e6:4f:34:66:f2:57:c3:c7:3e:b8:94:45:1c:4f:0c:
                    34:23:bb:a7:c0
                ASN1 OID: prime256v1
                NIST CURVE: P-256
        X509v3 extensions:
            X509v3 Basic Constraints: critical
                CA:FALSE
            X509v3 Authority Key Identifier: 
                keyid:D3:4C:6C:3A:BD:36:FE:70:87:23:87:3A:EE:3D:90:CF:CB:9B:F7:21

            Authority Information Access: 
                CA Issuers - URI:http://ca.eadtrust.eu/eadtrust-subca-ecc256eadlp2019.crt
                OCSP - URI:http://ocsp.eadtrust.eu

            X509v3 Issuer Alternative Name: 
                email:ca@eadtrust.eu, URI:http://www.eadtrust.eu, URI:http://ca.eadtrust.eu, URI:http://policy.eadtrust.eu
            X509v3 Subject Alternative Name: 
                DirName:/2.16.724.1.3.5.6.2.1=SELLO ELECTRONICO DE NIVEL MEDIO/2.16.724.1.3.5.6.2.2=CIUDAD AUT\xC3\x93NOMA DE MELILLA/2.16.724.1.3.5.6.2.3=S7900010E
            X509v3 Certificate Policies: 
                Policy: 2.16.724.1.3.5.6.2
                Policy: 0.4.0.194112.1.1
                  User Notice:
                    Explicit Text: European Telecommunications Standards Institute. eIDAS European Regulation Compliant
                Policy: 1.3.6.1.4.1.501.2.1.1.0.41233
                  CPS: http://policy.eadtrust.eu
                  User Notice:
                    Explicit Text: Certificado cualificado de sello electrónico de Administración, órgano o entidad de derecho público, nivel Medio/Sustancial. Consulte las condiciones de uso en http://policy.eadtrust.eu

            X509v3 Extended Key Usage: 
                TLS Web Client Authentication, E-mail Protection
            qcStatements: 
                0..0...+.......0.......I..0......F..0......F.....0......F..0......F...0l.....F..0b00.*https://eadtrust.eu/en/documents-in-force/..en0..(https://eadtrust.eu/documentos-vigentes/..es
            X509v3 CRL Distribution Points: 

                Full Name:
                  URI:http://crl.eadtrust.eu/eadtrust-subca-ecc256eadlp2019.crl

            X509v3 Subject Key Identifier: 
                27:3F:8A:E1:3D:A2:64:E3:AB:2B:76:AC:0D:26:F3:56:4F:09:20:61
            X509v3 Key Usage: critical
                Digital Signature, Non Repudiation, Key Encipherment
    Signature Algorithm: ecdsa-with-SHA256
         30:46:02:21:00:fe:86:66:45:38:4a:17:29:1d:05:cf:f9:22:
         38:6a:56:0a:5f:f6:4b:70:a1:73:fa:3e:4d:fd:ae:23:44:f3:
         44:02:21:00:fa:30:a1:15:8c:11:23:9d:66:bf:98:4d:10:1d:
         f8:6b:dc:93:ec:9b:02:71:f3:71:3e:ea:76:97:27:fb:3b:97
-----BEGIN CERTIFICATE-----
MIIHOjCCBt+gAwIBAgIJcW0NgkBa2laaMAoGCCqGSM49BAMCMIGwMT8wPQYDVQQD
DDZFQURUcnVzdCBFQ0MgMjU2IFN1YkNBIEZvciBRdWFsaWZpZWQgQ2VydGlmaWNh
dGVzIDIwMTkxLzAtBgNVBAoMJkV1cm9wZWFuIEFnZW5jeSBvZiBEaWdpdGFsIFRy
dXN0LCBTLkwuMQswCQYDVQQGEwJFUzEYMBYGA1UEYQwPVkFURVMtQjg1NjI2MjQw
MRUwEwYDVQQLDAxMZWdhbCBQZXJzb24wHhcNMjEwNTI4MTQ0NTAwWhcNMjMwNTI4
MTQ0NTAwWjCB+jE8MDoGA1UEAwwzU0VMTE8gRUxFQ1RST05JQ08gREUgTEEgQ0lV
REFEIEFVVMOTTk9NQSBERSBNRUxJTExBMRIwEAYDVQQFEwlTNzkwMDAxMEUxGjAY
BgNVBAsMEVNFTExPIEVMRUNUUk9OSUNPMT0wOwYDVQQLDDRESVJFQ0NJw5NOIEdF
TkVSQUwgREUgTEEgU09DSUVEQUQgREUgTEEgSU5GT1JNQUNJw5NOMRgwFgYDVQRh
DA9WQVRFUy1TNzkwMDAxMEUxJDAiBgNVBAoMG0NJVURBRCBBVVTDk05PTUEgREUg
TUVMSUxMQTELMAkGA1UEBhMCRVMwWTATBgcqhkjOPQIBBggqhkjOPQMBBwNCAAR7
VdRMKfoOR1tI4qXLNzMVZB8O+0/fW4Z2PNULMCS7Gis14RfcXzbuCfJwv+ZPNGby
V8PHPriURRxPDDQju6fAo4IElDCCBJAwDAYDVR0TAQH/BAIwADAfBgNVHSMEGDAW
gBTTTGw6vTb+cIcjhzruPZDPy5v3ITB5BggrBgEFBQcBAQRtMGswRAYIKwYBBQUH
MAKGOGh0dHA6Ly9jYS5lYWR0cnVzdC5ldS9lYWR0cnVzdC1zdWJjYS1lY2MyNTZl
YWRscDIwMTkuY3J0MCMGCCsGAQUFBzABhhdodHRwOi8vb2NzcC5lYWR0cnVzdC5l
dTBjBgNVHRIEXDBagQ5jYUBlYWR0cnVzdC5ldYYWaHR0cDovL3d3dy5lYWR0cnVz
dC5ldYYVaHR0cDovL2NhLmVhZHRydXN0LmV1hhlodHRwOi8vcG9saWN5LmVhZHRy
dXN0LmV1MIGEBgNVHREEfTB7pHkwdzEvMC0GCWCFVAEDBQYCAQwgU0VMTE8gRUxF
Q1RST05JQ08gREUgTklWRUwgTUVESU8xKjAoBglghVQBAwUGAgIMG0NJVURBRCBB
VVTDk05PTUEgREUgTUVMSUxMQTEYMBYGCWCFVAEDBQYCAwwJUzc5MDAwMTBFMIIB
mAYDVR0gBIIBjzCCAYswCgYIYIVUAQMFBgIwbwYHBACL7EABATBkMGIGCCsGAQUF
BwICMFYMVEV1cm9wZWFuIFRlbGVjb21tdW5pY2F0aW9ucyBTdGFuZGFyZHMgSW5z
dGl0dXRlLiBlSURBUyBFdXJvcGVhbiBSZWd1bGF0aW9uIENvbXBsaWFudDCCAQoG
DisGAQQBg3UCAQEAgsIRMIH3MCUGCCsGAQUFBwIBFhlodHRwOi8vcG9saWN5LmVh
ZHRydXN0LmV1MIHNBggrBgEFBQcCAjCBwAyBvUNlcnRpZmljYWRvIGN1YWxpZmlj
YWRvIGRlIHNlbGxvIGVsZWN0csOzbmljbyBkZSBBZG1pbmlzdHJhY2nDs24sIMOz
cmdhbm8gbyBlbnRpZGFkIGRlIGRlcmVjaG8gcMO6YmxpY28sIG5pdmVsIE1lZGlv
L1N1c3RhbmNpYWwuIENvbnN1bHRlIGxhcyBjb25kaWNpb25lcyBkZSB1c28gZW4g
aHR0cDovL3BvbGljeS5lYWR0cnVzdC5ldTAdBgNVHSUEFjAUBggrBgEFBQcDAgYI
KwYBBQUHAwQwgcEGCCsGAQUFBwEDBIG0MIGxMBUGCCsGAQUFBwsCMAkGBwQAi+xJ
AQIwCAYGBACORgEBMAsGBgQAjkYBAwIBDzATBgYEAI5GAQYwCQYHBACORgEGAjBs
BgYEAI5GAQUwYjAwFipodHRwczovL2VhZHRydXN0LmV1L2VuL2RvY3VtZW50cy1p
bi1mb3JjZS8TAmVuMC4WKGh0dHBzOi8vZWFkdHJ1c3QuZXUvZG9jdW1lbnRvcy12
aWdlbnRlcy8TAmVzMEoGA1UdHwRDMEEwP6A9oDuGOWh0dHA6Ly9jcmwuZWFkdHJ1
c3QuZXUvZWFkdHJ1c3Qtc3ViY2EtZWNjMjU2ZWFkbHAyMDE5LmNybDAdBgNVHQ4E
FgQUJz+K4T2iZOOrK3asDSbzVk8JIGEwDgYDVR0PAQH/BAQDAgXgMAoGCCqGSM49
BAMCA0kAMEYCIQD+hmZFOEoXKR0Fz/kiOGpWCl/2S3Chc/o+Tf2uI0TzRAIhAPow
oRWMESOdZr+YTRAd+Gvck+ybAnHzcT7qdpcn+zuX
-----END CERTIFICATE-----
