Certificate:
    Data:
        Version: 3 (0x2)
        Serial Number:
            41:64:be:e1:f2:c2:bd:fc:71:2e:12:10:b7:65:b3:58
    Signature Algorithm: rsassaPss
         Hash Algorithm: sha512
         Mask Algorithm: mgf1 with sha512
         Salt Length: 0x40
         Trailer Field: 0xBC (default)
        Issuer: C = DE, O = D-Trust GmbH, CN = D-TRUST CA 2-2 2019, 2.5.4.97 = NTRDE-HRB74346
        Validity
            Not Before: Jun  3 10:57:42 2021 GMT
            Not After : Jun  7 10:57:42 2023 GMT
        Subject: C = DE, O = Robert Koch-Institut, OU = Elektronischer Impfnachweis, CN = Robert Koch-Institut, L = Berlin, postalCode = 13353, street = Nordufer 20, 2.5.4.97 = DT:DE-3023531445, serialNumber = CSM026383046, ST = Berlin
        Subject Public Key Info:
            Public Key Algorithm: id-ecPublicKey
                Public-Key: (256 bit)
                pub:
                    04:92:4c:4d:75:2d:04:66:f8:cf:f2:3d:7b:8f:69:
                    3d:da:f1:d9:a5:7d:ea:48:d3:03:6c:2a:81:60:fb:
                    e6:ab:38:f5:8e:73:44:aa:c0:19:4a:9f:2e:a6:9c:
                    28:4a:18:26:40:f7:54:4a:60:b9:8e:f4:9a:23:43:
                    e2:21:15:09:86
                ASN1 OID: prime256v1
                NIST CURVE: P-256
        X509v3 extensions:
            X509v3 Authority Key Identifier: 
                keyid:71:10:32:AE:74:71:7B:54:8E:F1:D6:AB:62:54:AE:FC:3E:C0:BB:16

            qcStatements: 
                0.0......F..0......F..0......F...
            Authority Information Access: 
                OCSP - URI:http://d-trust-ca-2-2-2019.ocsp.d-trust.net
                CA Issuers - URI:http://www.d-trust.net/cgi-bin/D-TRUST_CA_2-2_2019.crt
                CA Issuers - URI:ldap://directory.d-trust.net/CN=D-TRUST%20CA%202-2%202019,O=D-Trust%20GmbH,C=DE?cACertificate?base?

            X509v3 Certificate Policies: 
                Policy: 0.4.0.194112.1.1
                Policy: 1.3.6.1.4.1.4788.2.150.5
                  CPS: http://www.d-trust.net/internet/files/D-TRUST_CSM_PKI_CPS.pdf

            X509v3 CRL Distribution Points: 

                Full Name:
                  URI:ldap://directory.d-trust.net/CN=D-TRUST%20CA%202-2%202019,O=D-Trust%20GmbH,C=DE?certificaterevocationlist
                  URI:http://crl.d-trust.net/crl/d-trust_ca_2-2_2019.crl
                  URI:http://cdn.d-trust-cloudcrl.net/crl/d-trust_ca_2-2_2019.crl

            X509v3 Subject Key Identifier: 
                19:B5:EF:F6:E2:D7:2A:58:2D:AF:9D:C7:C8:6F:52:4B:A6:A8:86:6C
            X509v3 Key Usage: critical
                Digital Signature, Non Repudiation
    Signature Algorithm: rsassaPss
         Hash Algorithm: sha512
         Mask Algorithm: mgf1 with sha512
         Salt Length: 0x40
         Trailer Field: 0xBC (default)

         dc:08:3d:df:11:10:83:7a:16:41:58:49:36:bf:f8:0f:96:2c:
         b4:4e:8b:e8:5f:d4:8c:50:a3:e4:3a:a0:3d:e3:a6:b8:8f:e1:
         93:4a:7e:09:b8:fb:05:75:3a:0a:78:a4:50:15:67:a8:b3:f5:
         fe:b8:29:81:8c:79:18:75:41:97:fe:4c:ce:f4:6e:55:91:c8:
         29:4a:db:d0:fc:95:8d:70:5a:48:e9:d3:d8:08:57:10:af:63:
         63:f2:8e:78:04:1f:8f:4c:fe:60:72:00:c8:5a:fd:93:0c:2c:
         65:d6:a9:2e:26:df:34:d6:0e:b9:c7:04:7d:66:2e:23:50:a8:
         fe:c6:6c:60:33:a5:51:c2:69:10:ee:40:b0:f3:18:c1:85:ea:
         b0:46:9c:c2:38:c3:32:1a:1b:7d:72:88:94:7a:39:8d:2e:60:
         c1:4e:ce:31:1f:1f:e0:1c:51:12:fd:1e:bf:9b:6c:d5:37:6c:
         68:af:87:8a:4a:b4:df:78:0f:dc:41:20:94:08:87:73:86:df:
         be:75:f5:66:89:a0:ef:5b:4e:0e:45:47:80:1b:da:90:26:cf:
         01:39:f4:64:83:0a:3d:94:27:2a:21:1d:61:fc:92:b8:7e:6c:
         40:85:3f:7b:00:4f:be:30:c0:76:04:97:bf:c3:9d:2f:ad:9b:
         97:d3:81:6a:0c:c6:da:05:df:de:d6:6a:e1:cb:ff:58:97:54:
         2f:0f:bc:3a:61:55:92:d6:de:f3:ab:54:57:38:a0:31:f6:3e:
         df:d2:42:a1:aa:32:e0:d7:b0:48:3e:a3:87:db:3c:c1:01:89:
         89:65:a8:aa:ff:80:3a:06:31:c2:34:de:e4:52:f3:5c:12:6f:
         de:a5:84:33:a1:23:ed:b6:f9:7b:14:2d:22:20:4b:88:fe:63:
         74:b6:76:72:53:29:22:1a:d0:99:ba:e9:b5:b0:86:11:fd:9b:
         da:cf:a0:e6:f5:3e:17:9c:d8:e1:92:23:4c:31:c4:35:7d:ad:
         84:1a:75:5e:39:bc:f8:a9:ee:29:91:58:25:9c:71:5e:2a:79:
         95:cb:e5:e6:3c:55:20:dd:da:f3:97:7c:21:2c:8d:dd:ad:c5:
         01:00:fc:92:21:10:03:04:9a:3f:37:fd:dc:ab:e4:11:a4:e1:
         b5:4e:ea:9d:bd:d7:2c:6e:96:ca:1e:77:32:6d:6d:e2:88:bd:
         f6:6a:77:a5:b6:7d:7d:21:c8:00:a5:aa:93:d0:d8:dd:fc:c5:
         80:02:68:e4:03:4d:d7:55:19:35:1a:57:b8:ca:72:db:d8:d7:
         30:ba:1f:52:92:64:af:56:98:56:f4:da:3e:36:e2:80:03:c8:
         63:92:7d:bd:f5:f7:41:31
-----BEGIN CERTIFICATE-----
MIIHUTCCBQmgAwIBAgIQQWS+4fLCvfxxLhIQt2WzWDA9BgkqhkiG9w0BAQowMKAN
MAsGCWCGSAFlAwQCA6EaMBgGCSqGSIb3DQEBCDALBglghkgBZQMEAgOiAwIBQDBb
MQswCQYDVQQGEwJERTEVMBMGA1UEChMMRC1UcnVzdCBHbWJIMRwwGgYDVQQDExNE
LVRSVVNUIENBIDItMiAyMDE5MRcwFQYDVQRhEw5OVFJERS1IUkI3NDM0NjAeFw0y
MTA2MDMxMDU3NDJaFw0yMzA2MDcxMDU3NDJaMIHrMQswCQYDVQQGEwJERTEdMBsG
A1UEChMUUm9iZXJ0IEtvY2gtSW5zdGl0dXQxJDAiBgNVBAsTG0VsZWt0cm9uaXNj
aGVyIEltcGZuYWNod2VpczEdMBsGA1UEAxMUUm9iZXJ0IEtvY2gtSW5zdGl0dXQx
DzANBgNVBAcTBkJlcmxpbjEOMAwGA1UEEQwFMTMzNTMxFDASBgNVBAkTC05vcmR1
ZmVyIDIwMRkwFwYDVQRhExBEVDpERS0zMDIzNTMxNDQ1MRUwEwYDVQQFEwxDU00w
MjYzODMwNDYxDzANBgNVBAgTBkJlcmxpbjBZMBMGByqGSM49AgEGCCqGSM49AwEH
A0IABJJMTXUtBGb4z/I9e49pPdrx2aV96kjTA2wqgWD75qs49Y5zRKrAGUqfLqac
KEoYJkD3VEpguY70miND4iEVCYajggLpMIIC5TAfBgNVHSMEGDAWgBRxEDKudHF7
VI7x1qtiVK78PsC7FjAtBggrBgEFBQcBAwQhMB8wCAYGBACORgEBMBMGBgQAjkYB
BjAJBgcEAI5GAQYCMIH+BggrBgEFBQcBAQSB8TCB7jA3BggrBgEFBQcwAYYraHR0
cDovL2QtdHJ1c3QtY2EtMi0yLTIwMTkub2NzcC5kLXRydXN0Lm5ldDBCBggrBgEF
BQcwAoY2aHR0cDovL3d3dy5kLXRydXN0Lm5ldC9jZ2ktYmluL0QtVFJVU1RfQ0Ff
Mi0yXzIwMTkuY3J0MG8GCCsGAQUFBzAChmNsZGFwOi8vZGlyZWN0b3J5LmQtdHJ1
c3QubmV0L0NOPUQtVFJVU1QlMjBDQSUyMDItMiUyMDIwMTksTz1ELVRydXN0JTIw
R21iSCxDPURFP2NBQ2VydGlmaWNhdGU/YmFzZT8wcAYDVR0gBGkwZzAJBgcEAIvs
QAEBMFoGCysGAQQBpTQCgRYFMEswSQYIKwYBBQUHAgEWPWh0dHA6Ly93d3cuZC10
cnVzdC5uZXQvaW50ZXJuZXQvZmlsZXMvRC1UUlVTVF9DU01fUEtJX0NQUy5wZGYw
gfAGA1UdHwSB6DCB5TCB4qCB36CB3IZpbGRhcDovL2RpcmVjdG9yeS5kLXRydXN0
Lm5ldC9DTj1ELVRSVVNUJTIwQ0ElMjAyLTIlMjAyMDE5LE89RC1UcnVzdCUyMEdt
YkgsQz1ERT9jZXJ0aWZpY2F0ZXJldm9jYXRpb25saXN0hjJodHRwOi8vY3JsLmQt
dHJ1c3QubmV0L2NybC9kLXRydXN0X2NhXzItMl8yMDE5LmNybIY7aHR0cDovL2Nk
bi5kLXRydXN0LWNsb3VkY3JsLm5ldC9jcmwvZC10cnVzdF9jYV8yLTJfMjAxOS5j
cmwwHQYDVR0OBBYEFBm17/bi1ypYLa+dx8hvUkumqIZsMA4GA1UdDwEB/wQEAwIG
wDA9BgkqhkiG9w0BAQowMKANMAsGCWCGSAFlAwQCA6EaMBgGCSqGSIb3DQEBCDAL
BglghkgBZQMEAgOiAwIBQAOCAgEA3Ag93xEQg3oWQVhJNr/4D5YstE6L6F/UjFCj
5DqgPeOmuI/hk0p+Cbj7BXU6CnikUBVnqLP1/rgpgYx5GHVBl/5MzvRuVZHIKUrb
0PyVjXBaSOnT2AhXEK9jY/KOeAQfj0z+YHIAyFr9kwwsZdapLibfNNYOuccEfWYu
I1Co/sZsYDOlUcJpEO5AsPMYwYXqsEacwjjDMhobfXKIlHo5jS5gwU7OMR8f4BxR
Ev0ev5ts1TdsaK+Hikq033gP3EEglAiHc4bfvnX1Zomg71tODkVHgBvakCbPATn0
ZIMKPZQnKiEdYfySuH5sQIU/ewBPvjDAdgSXv8OdL62bl9OBagzG2gXf3tZq4cv/
WJdULw+8OmFVktbe86tUVzigMfY+39JCoaoy4NewSD6jh9s8wQGJiWWoqv+AOgYx
wjTe5FLzXBJv3qWEM6Ej7bb5exQtIiBLiP5jdLZ2clMpIhrQmbrptbCGEf2b2s+g
5vU+F5zY4ZIjTDHENX2thBp1Xjm8+KnuKZFYJZxxXip5lcvl5jxVIN3a85d8ISyN
3a3FAQD8kiEQAwSaPzf93KvkEaThtU7qnb3XLG6Wyh53Mm1t4oi99mp3pbZ9fSHI
AKWqk9DY3fzFgAJo5ANN11UZNRpXuMpy29jXMLofUpJkr1aYVvTaPjbigAPIY5J9
vfX3QTE=
-----END CERTIFICATE-----
