Certificate:
    Data:
        Version: 3 (0x2)
        Serial Number:
            45:06:99:f8:40:53:2f:e6:3a:c3:9d:aa:69:05:0d:67:c6:01:36:cf
    Signature Algorithm: sha256WithRSAEncryption
        Issuer: C = FR, O = Gouv, CN = CSCA-FRANCE
        Validity
            Not Before: Sep  2 22:00:00 2021 GMT
            Not After : Sep  2 22:00:00 2023 GMT
        Subject: C = FR, O = DGS, OU = 120036017, CN = DSC_FR_016
        Subject Public Key Info:
            Public Key Algorithm: id-ecPublicKey
                Public-Key: (256 bit)
                pub:
                    04:7f:8d:4d:50:0a:69:6f:2c:2c:31:d0:39:0d:04:
                    9f:fd:46:db:b4:64:c2:99:50:2f:d6:1e:65:14:a5:
                    a9:c6:fb:ac:0e:57:32:f5:ef:1a:89:d2:11:9e:13:
                    a4:a2:7e:97:df:12:60:e2:7e:5d:53:d5:24:82:ed:
                    21:10:f4:45:0f
                ASN1 OID: prime256v1
                NIST CURVE: P-256
        X509v3 extensions:
            X509v3 Subject Key Identifier: 
                EC:E1:BE:26:01:C9:65:FF:E6:68:31:A8:DA:24:A0:59:D1:73:97:B1
            X509v3 Authority Key Identifier: 
                keyid:BE:8A:2E:D6:C9:F9:20:4E:3A:27:03:08:97:4D:EC:FD:D9:7D:C5:E6

            X509v3 Basic Constraints: critical
                CA:FALSE
            X509v3 Key Usage: critical
                Digital Signature
            X509v3 CRL Distribution Points: 

                Full Name:
                  URI:http://ants.gouv.fr/csca_crl

            X509v3 Certificate Policies: 
                Policy: 1.2.250.1.200.31.3.9.1.1

            Authority Information Access: 
                CA Issuers - URI:https://ant.gouv.fr/csca

    Signature Algorithm: sha256WithRSAEncryption
         95:59:db:16:ff:31:26:90:9e:2e:45:05:68:61:3c:5d:0c:79:
         66:4b:e9:9b:0e:f1:06:bf:77:a6:df:0b:45:55:65:ff:d0:56:
         4a:45:1c:47:65:b6:b8:c0:49:51:ec:38:c4:bf:80:3f:77:ab:
         18:3e:7f:fd:32:9e:4f:84:10:d2:fe:5a:1f:17:35:0c:35:80:
         2e:98:7e:2e:96:cf:8c:4f:a6:bd:7b:36:45:0a:d7:00:4c:a8:
         fd:a4:fd:a1:33:24:9f:4a:7d:ab:7d:0c:ce:47:dc:97:4b:a2:
         3f:19:ca:ee:cd:e8:6a:79:d0:66:cf:17:39:b8:a8:db:49:ec:
         8b:03:bb:20:b2:09:7f:24:1d:83:5b:91:b8:b4:8a:a3:c4:86:
         3c:2b:2b:4c:4e:4a:eb:94:96:1a:1b:fb:cf:a2:4a:52:d9:a8:
         d4:35:98:ac:05:b2:c7:24:01:8b:c7:85:ca:9e:39:4b:be:24:
         c1:4a:9d:e2:02:ca:02:87:f1:45:1c:9c:6d:40:9d:a9:16:f9:
         a0:46:65:5a:41:42:a9:4d:a0:2e:1c:7e:69:3e:6c:38:43:ca:
         e0:5e:af:aa:5f:4b:c5:68:f7:ba:2d:a5:02:a4:99:04:82:e6:
         39:97:11:ad:1e:a6:46:a2:aa:15:68:a1:b7:fc:b5:fd:aa:4b:
         b3:c8:9e:62:8c:8f:ff:7b:e5:33:6a:1f:f3:08:19:96:e2:42:
         bd:1c:b1:d4:55:63:72:38:3f:5f:6d:58:56:1c:97:d7:2a:43:
         49:d1:d1:f9:25:5d:db:28:3d:86:fc:cb:cc:f3:54:79:43:8d:
         45:f4:f5:23:39:76:28:0a:b0:e7:63:6b:66:04:fb:97:8a:c4:
         78:98:2b:a5:ad:6c:8c:e8:18:f4:fe:bf:02:90:c9:30:30:d7:
         2b:ec:0a:13:11:f5:e9:6b:c3:31:24:03:55:58:50:11:1b:be:
         88:62:24:2d:9f:c3:35:76:d0:71:9b:2f:9b:7f:8f:fe:9f:f9:
         3a:4b:a6:78:c3:7d:6d:4e:5d:18:b0:d5:90:e9:39:e5:1d:2d:
         8f:43:e5:22:57:5c:dc:84:97:19:e5:15:b6:63:09:56:8c:b4:
         61:24:73:b3:ad:cb:f6:9b:58:d1:22:ca:8f:01:2b:d1:2c:98:
         de:02:cf:bb:ed:90:f2:06:60:45:03:7a:62:ba:d9:65:66:3e:
         52:04:30:8b:cd:2b:72:22:99:6b:b8:95:87:84:29:e1:1a:3f:
         74:6f:e7:c6:41:43:c0:86:3f:17:c6:14:6e:0a:74:6d:5c:1c:
         16:10:3f:21:0b:a7:50:87:c4:1a:88:a0:7b:b1:3a:e5:53:d2:
         ff:f3:09:f9:98:21:a7:b9
-----BEGIN CERTIFICATE-----
MIIEGjCCAgKgAwIBAgIURQaZ+EBTL+Y6w52qaQUNZ8YBNs8wDQYJKoZIhvcNAQEL
BQAwMjELMAkGA1UEBhMCRlIxDTALBgNVBAoMBEdvdXYxFDASBgNVBAMMC0NTQ0Et
RlJBTkNFMB4XDTIxMDkwMjIyMDAwMFoXDTIzMDkwMjIyMDAwMFowRDELMAkGA1UE
BhMCRlIxDDAKBgNVBAoMA0RHUzESMBAGA1UECwwJMTIwMDM2MDE3MRMwEQYDVQQD
DApEU0NfRlJfMDE2MFkwEwYHKoZIzj0CAQYIKoZIzj0DAQcDQgAEf41NUAppbyws
MdA5DQSf/UbbtGTCmVAv1h5lFKWpxvusDlcy9e8aidIRnhOkon6X3xJg4n5dU9Uk
gu0hEPRFD6OB4DCB3TAdBgNVHQ4EFgQU7OG+JgHJZf/maDGo2iSgWdFzl7EwHwYD
VR0jBBgwFoAUvoou1sn5IE46JwMIl03s/dl9xeYwDAYDVR0TAQH/BAIwADAOBgNV
HQ8BAf8EBAMCB4AwLQYDVR0fBCYwJDAioCCgHoYcaHR0cDovL2FudHMuZ291di5m
ci9jc2NhX2NybDAYBgNVHSAEETAPMA0GCyqBegGBSB8DCQEBMDQGCCsGAQUFBwEB
BCgwJjAkBggrBgEFBQcwAoYYaHR0cHM6Ly9hbnQuZ291di5mci9jc2NhMA0GCSqG
SIb3DQEBCwUAA4ICAQCVWdsW/zEmkJ4uRQVoYTxdDHlmS+mbDvEGv3em3wtFVWX/
0FZKRRxHZba4wElR7DjEv4A/d6sYPn/9Mp5PhBDS/lofFzUMNYAumH4uls+MT6a9
ezZFCtcATKj9pP2hMySfSn2rfQzOR9yXS6I/GcruzehqedBmzxc5uKjbSeyLA7sg
sgl/JB2DW5G4tIqjxIY8KytMTkrrlJYaG/vPokpS2ajUNZisBbLHJAGLx4XKnjlL
viTBSp3iAsoCh/FFHJxtQJ2pFvmgRmVaQUKpTaAuHH5pPmw4Q8rgXq+qX0vFaPe6
LaUCpJkEguY5lxGtHqZGoqoVaKG3/LX9qkuzyJ5ijI//e+Uzah/zCBmW4kK9HLHU
VWNyOD9fbVhWHJfXKkNJ0dH5JV3bKD2G/MvM81R5Q41F9PUjOXYoCrDnY2tmBPuX
isR4mCulrWyM6Bj0/r8CkMkwMNcr7AoTEfXpa8MxJANVWFARG76IYiQtn8M1dtBx
my+bf4/+n/k6S6Z4w31tTl0YsNWQ6TnlHS2PQ+UiV1zchJcZ5RW2YwlWjLRhJHOz
rcv2m1jRIsqPASvRLJjeAs+77ZDyBmBFA3piutllZj5SBDCLzStyIplruJWHhCnh
Gj90b+fGQUPAhj8XxhRuCnRtXBwWED8hC6dQh8QaiKB7sTrlU9L/8wn5mCGnuQ==
-----END CERTIFICATE-----
