Certificate:
    Data:
        Version: 3 (0x2)
        Serial Number:
            0d:6c:2e:ea:b5:89:18:5d:33:21:09:3f:68:a8:dd:53:44:d7:a1:0a
    Signature Algorithm: ecdsa-with-SHA256
        Issuer: CN = CSCA Health NL, serialNumber = 1, OU = Ministry of Health Welfare and Sport, O = Kingdom of the Netherlands, C = NL
        Validity
            Not Before: May 31 14:19:43 2021 GMT
            Not After : May 28 14:19:43 2032 GMT
        Subject: C = NL, O = Kingdom of the Netherlands, OU = Ministry of Health Welfare and Sport, serialNumber = 1, CN = Health DSC for test
        Subject Public Key Info:
            Public Key Algorithm: id-ecPublicKey
                Public-Key: (256 bit)
                pub:
                    04:47:23:ad:3e:18:ac:e0:cf:af:39:23:3e:e0:0a:
                    2a:b4:1a:2d:de:ce:c0:1a:ba:90:39:20:36:65:8d:
                    da:db:9c:f9:7b:84:25:46:91:31:77:54:b7:f7:d0:
                    80:0e:fa:39:8f:43:72:aa:b9:bf:6b:3a:e1:14:8b:
                    12:01:cf:05:22
                ASN1 OID: prime256v1
                NIST CURVE: P-256
        X509v3 extensions:
            2.23.136.1.1.6.2: 
                0....1...H
            X509v3 Authority Key Identifier: 
                keyid:22:4D:F8:C3:8D:29:73:53:83:77:86:9A:F7:52:C1:1A:EC:A1:A1:1F

            X509v3 Issuer Alternative Name: 
                DirName:/L=NLD
            X509v3 Subject Alternative Name: 
                DirName:/L=NLD
            X509v3 Extended Key Usage: 
                1.3.6.1.4.1.0.1847.2021.1.1
            X509v3 CRL Distribution Points: 

                Full Name:
                  URI:http://crl.npkd.nl/CRLs/NL-Health.crl

            X509v3 Subject Key Identifier: 
                27:AA:F0:C5:AB:BE:DA:45:AA:8C:0F:9F:D5:FF:2F:50:94:A4:88:39
            X509v3 Private Key Usage Period: 
                Not Before: May 31 14:19:43 2021 GMT, Not After: Dec 27 14:19:43 2021 GMT
            X509v3 Key Usage: critical
                Digital Signature
    Signature Algorithm: ecdsa-with-SHA256
         30:44:02:20:5b:9e:bc:11:e3:6a:1b:8b:60:27:b5:6c:e1:42:
         9b:2e:95:e4:54:9f:c8:9a:d5:a3:9f:a1:77:41:82:48:34:4c:
         02:20:5d:44:ae:b5:f5:53:27:5c:d1:9f:e7:bd:eb:fc:f1:ba:
         9d:5a:5e:27:d6:8f:fe:aa:64:99:91:b7:4d:51:90:0e
-----BEGIN CERTIFICATE-----
MIIDOTCCAuCgAwIBAgIUDWwu6rWJGF0zIQk/aKjdU0TXoQowCgYIKoZIzj0EAwIw
gYYxFzAVBgNVBAMMDkNTQ0EgSGVhbHRoIE5MMQowCAYDVQQFEwExMS0wKwYDVQQL
DCRNaW5pc3RyeSBvZiBIZWFsdGggV2VsZmFyZSBhbmQgU3BvcnQxIzAhBgNVBAoM
Gktpbmdkb20gb2YgdGhlIE5ldGhlcmxhbmRzMQswCQYDVQQGEwJOTDAeFw0yMTA1
MzExNDE5NDNaFw0zMjA1MjgxNDE5NDNaMIGLMQswCQYDVQQGEwJOTDEjMCEGA1UE
CgwaS2luZ2RvbSBvZiB0aGUgTmV0aGVybGFuZHMxLTArBgNVBAsMJE1pbmlzdHJ5
IG9mIEhlYWx0aCBXZWxmYXJlIGFuZCBTcG9ydDEKMAgGA1UEBRMBMTEcMBoGA1UE
AwwTSGVhbHRoIERTQyBmb3IgdGVzdDBZMBMGByqGSM49AgEGCCqGSM49AwEHA0IA
BEcjrT4YrODPrzkjPuAKKrQaLd7OwBq6kDkgNmWN2tuc+XuEJUaRMXdUt/fQgA76
OY9Dcqq5v2s64RSLEgHPBSKjggEjMIIBHzAVBgdngQgBAQYCBAowCAIBADEDEwFI
MB8GA1UdIwQYMBaAFCJN+MONKXNTg3eGmvdSwRrsoaEfMBsGA1UdEgQUMBKkEDAO
MQwwCgYDVQQHDANOTEQwGwYDVR0RBBQwEqQQMA4xDDAKBgNVBAcMA05MRDAXBgNV
HSUEEDAOBgwrBgEEAQCON49lAQEwNgYDVR0fBC8wLTAroCmgJ4YlaHR0cDovL2Ny
bC5ucGtkLm5sL0NSTHMvTkwtSGVhbHRoLmNybDAdBgNVHQ4EFgQUJ6rwxau+2kWq
jA+f1f8vUJSkiDkwKwYDVR0QBCQwIoAPMjAyMTA1MzExNDE5NDNagQ8yMDIxMTIy
NzE0MTk0M1owDgYDVR0PAQH/BAQDAgeAMAoGCCqGSM49BAMCA0cAMEQCIFuevBHj
ahuLYCe1bOFCmy6V5FSfyJrVo5+hd0GCSDRMAiBdRK619VMnXNGf573r/PG6nVpe
J9aP/qpkmZG3TVGQDg==
-----END CERTIFICATE-----
