Certificate:
    Data:
        Version: 3 (0x2)
        Serial Number:
            76:dc:20:fc:0b:ec:41:14:18:35:e9:9b:cf:17:44:4d
    Signature Algorithm: rsassaPss
         Hash Algorithm: sha512
         Mask Algorithm: mgf1 with sha512
         Salt Length: 0x40
         Trailer Field: 0xBC (default)
        Issuer: C = DE, O = D-Trust GmbH, CN = D-TRUST CA 2-2 2019, 2.5.4.97 = NTRDE-HRB74346
        Validity
            Not Before: Jun  7 10:15:11 2021 GMT
            Not After : Jun 11 10:15:11 2023 GMT
        Subject: C = DE, O = Robert Koch-Institut, OU = Elektronischer Impfnachweis, CN = Robert Koch-Institut, L = Berlin, postalCode = 13353, street = Nordufer 20, 2.5.4.97 = DT:DE-3023531445, serialNumber = CSM026413860, ST = Berlin
        Subject Public Key Info:
            Public Key Algorithm: id-ecPublicKey
                Public-Key: (256 bit)
                pub:
                    04:b3:be:c3:af:dd:b3:6f:e1:ce:04:bf:60:75:f0:
                    96:3b:09:27:6b:ef:43:dc:a7:6a:d0:78:14:aa:95:
                    41:ca:2e:e4:ab:29:11:3c:01:4a:3d:90:40:ef:bd:
                    6a:ca:80:72:d2:e1:c5:85:d6:08:cc:d0:0f:cd:d1:
                    e3:ec:aa:cf:b0
                ASN1 OID: prime256v1
                NIST CURVE: P-256
        X509v3 extensions:
            X509v3 Authority Key Identifier: 
                keyid:71:10:32:AE:74:71:7B:54:8E:F1:D6:AB:62:54:AE:FC:3E:C0:BB:16

            qcStatements: 
                0.0......F..0......F..0......F...
            Authority Information Access: 
                OCSP - URI:http://d-trust-ca-2-2-2019.ocsp.d-trust.net
                CA Issuers - URI:http://www.d-trust.net/cgi-bin/D-TRUST_CA_2-2_2019.crt
                CA Issuers - URI:ldap://directory.d-trust.net/CN=D-TRUST%20CA%202-2%202019,O=D-Trust%20GmbH,C=DE?cACertificate?base?

            X509v3 Certificate Policies: 
                Policy: 0.4.0.194112.1.1
                Policy: 1.3.6.1.4.1.4788.2.150.5
                  CPS: http://www.d-trust.net/internet/files/D-TRUST_CSM_PKI_CPS.pdf

            X509v3 CRL Distribution Points: 

                Full Name:
                  URI:ldap://directory.d-trust.net/CN=D-TRUST%20CA%202-2%202019,O=D-Trust%20GmbH,C=DE?certificaterevocationlist
                  URI:http://crl.d-trust.net/crl/d-trust_ca_2-2_2019.crl
                  URI:http://cdn.d-trust-cloudcrl.net/crl/d-trust_ca_2-2_2019.crl

            X509v3 Subject Key Identifier: 
                8D:A4:5D:54:B0:D0:60:AD:B3:ED:9A:E8:84:74:95:11:78:B0:74:41
            X509v3 Key Usage: critical
                Digital Signature, Non Repudiation
    Signature Algorithm: rsassaPss
         Hash Algorithm: sha512
         Mask Algorithm: mgf1 with sha512
         Salt Length: 0x40
         Trailer Field: 0xBC (default)

         42:72:ec:0b:12:e5:2d:2d:70:89:fa:ed:00:fe:11:ff:88:37:
         54:54:d5:96:72:e4:6e:09:16:6b:a3:50:a9:9f:04:f6:56:5b:
         65:1c:58:35:44:83:1d:b8:15:d2:ed:7c:75:67:85:91:e1:25:
         87:16:5c:47:93:37:98:e1:41:b8:49:8a:e4:f2:75:42:42:ff:
         2d:39:36:3b:cf:c5:c9:5f:c5:eb:d0:26:8c:b3:d6:5e:49:64:
         a0:a7:ca:e8:2a:fd:af:f7:b0:94:7a:1c:07:2b:cb:0f:ec:04:
         07:ef:f4:cc:80:64:41:ad:4e:bc:b8:4d:63:82:e5:c2:25:8a:
         aa:72:a2:17:d1:8d:09:ac:39:6f:01:db:26:f0:b2:9b:77:99:
         cb:22:99:95:8e:43:7a:bd:91:5c:c4:94:1c:fd:a4:e4:d3:52:
         a1:1c:84:e9:12:57:b5:3c:50:e2:23:22:81:dd:e6:ba:6a:42:
         1f:07:83:b4:2b:bc:c2:b8:ab:4c:c5:c5:09:f9:79:94:1b:c6:
         f1:5d:bd:bc:42:34:5e:63:01:e4:05:ec:58:96:ee:d4:c4:75:
         5a:c1:82:99:af:b1:6f:70:c7:9e:27:b1:f9:aa:ed:d6:df:25:
         de:83:3d:e8:33:06:84:6e:5e:42:1c:62:49:71:97:87:34:a5:
         e7:bb:c8:49:35:1a:8d:3a:c2:a4:9b:84:0a:57:20:1b:a9:68:
         82:9a:d9:0e:91:39:98:0c:2b:94:3b:95:70:ed:88:2d:80:f3:
         95:93:76:22:5a:b9:04:a6:2e:d9:dd:b1:59:fa:c9:c2:e6:f1:
         e4:25:f9:4f:21:11:22:b1:7d:cf:89:1b:38:9a:ac:6d:5f:31:
         df:87:77:38:11:54:ff:25:b7:51:47:1f:f0:5d:6d:4b:8d:00:
         1e:25:02:3f:f9:95:99:b7:a5:9b:62:a8:51:b8:07:4b:88:3d:
         b5:7c:ba:47:c1:69:29:f0:b5:8b:f2:6f:d8:49:18:a2:73:2c:
         80:df:18:d4:e7:31:76:1e:d2:9b:40:90:0b:4d:1b:10:50:e3:
         62:5b:28:31:27:25:ae:80:da:44:b6:92:34:eb:d1:b5:14:80:
         80:f3:3a:ca:88:fd:3b:69:31:8e:64:02:9e:84:d9:91:1f:e3:
         9a:1b:14:9a:f0:37:c4:e3:2d:11:0b:71:2d:10:ed:d3:62:d5:
         7d:ce:d1:e0:17:b0:64:1e:4d:74:80:b5:41:8a:fd:8a:ed:12:
         cb:34:24:89:fc:83:2d:e9:e4:3e:fc:82:82:c9:af:a8:9b:69:
         ac:a3:83:1d:23:fc:f6:2c:c9:98:6a:6d:70:f3:f8:63:84:7c:
         fe:96:90:2a:d8:cc:ff:57
-----BEGIN CERTIFICATE-----
MIIHUTCCBQmgAwIBAgIQdtwg/AvsQRQYNembzxdETTA9BgkqhkiG9w0BAQowMKAN
MAsGCWCGSAFlAwQCA6EaMBgGCSqGSIb3DQEBCDALBglghkgBZQMEAgOiAwIBQDBb
MQswCQYDVQQGEwJERTEVMBMGA1UEChMMRC1UcnVzdCBHbWJIMRwwGgYDVQQDExNE
LVRSVVNUIENBIDItMiAyMDE5MRcwFQYDVQRhEw5OVFJERS1IUkI3NDM0NjAeFw0y
MTA2MDcxMDE1MTFaFw0yMzA2MTExMDE1MTFaMIHrMQswCQYDVQQGEwJERTEdMBsG
A1UEChMUUm9iZXJ0IEtvY2gtSW5zdGl0dXQxJDAiBgNVBAsTG0VsZWt0cm9uaXNj
aGVyIEltcGZuYWNod2VpczEdMBsGA1UEAxMUUm9iZXJ0IEtvY2gtSW5zdGl0dXQx
DzANBgNVBAcTBkJlcmxpbjEOMAwGA1UEEQwFMTMzNTMxFDASBgNVBAkTC05vcmR1
ZmVyIDIwMRkwFwYDVQRhExBEVDpERS0zMDIzNTMxNDQ1MRUwEwYDVQQFEwxDU00w
MjY0MTM4NjAxDzANBgNVBAgTBkJlcmxpbjBZMBMGByqGSM49AgEGCCqGSM49AwEH
A0IABLO+w6/ds2/hzgS/YHXwljsJJ2vvQ9ynatB4FKqVQcou5KspETwBSj2QQO+9
asqActLhxYXWCMzQD83R4+yqz7CjggLpMIIC5TAfBgNVHSMEGDAWgBRxEDKudHF7
VI7x1qtiVK78PsC7FjAtBggrBgEFBQcBAwQhMB8wCAYGBACORgEBMBMGBgQAjkYB
BjAJBgcEAI5GAQYCMIH+BggrBgEFBQcBAQSB8TCB7jA3BggrBgEFBQcwAYYraHR0
cDovL2QtdHJ1c3QtY2EtMi0yLTIwMTkub2NzcC5kLXRydXN0Lm5ldDBCBggrBgEF
BQcwAoY2aHR0cDovL3d3dy5kLXRydXN0Lm5ldC9jZ2ktYmluL0QtVFJVU1RfQ0Ff
Mi0yXzIwMTkuY3J0MG8GCCsGAQUFBzAChmNsZGFwOi8vZGlyZWN0b3J5LmQtdHJ1
c3QubmV0L0NOPUQtVFJVU1QlMjBDQSUyMDItMiUyMDIwMTksTz1ELVRydXN0JTIw
R21iSCxDPURFP2NBQ2VydGlmaWNhdGU/YmFzZT8wcAYDVR0gBGkwZzAJBgcEAIvs
QAEBMFoGCysGAQQBpTQCgRYFMEswSQYIKwYBBQUHAgEWPWh0dHA6Ly93d3cuZC10
cnVzdC5uZXQvaW50ZXJuZXQvZmlsZXMvRC1UUlVTVF9DU01fUEtJX0NQUy5wZGYw
gfAGA1UdHwSB6DCB5TCB4qCB36CB3IZpbGRhcDovL2RpcmVjdG9yeS5kLXRydXN0
Lm5ldC9DTj1ELVRSVVNUJTIwQ0ElMjAyLTIlMjAyMDE5LE89RC1UcnVzdCUyMEdt
YkgsQz1ERT9jZXJ0aWZpY2F0ZXJldm9jYXRpb25saXN0hjJodHRwOi8vY3JsLmQt
dHJ1c3QubmV0L2NybC9kLXRydXN0X2NhXzItMl8yMDE5LmNybIY7aHR0cDovL2Nk
bi5kLXRydXN0LWNsb3VkY3JsLm5ldC9jcmwvZC10cnVzdF9jYV8yLTJfMjAxOS5j
cmwwHQYDVR0OBBYEFI2kXVSw0GCts+2a6IR0lRF4sHRBMA4GA1UdDwEB/wQEAwIG
wDA9BgkqhkiG9w0BAQowMKANMAsGCWCGSAFlAwQCA6EaMBgGCSqGSIb3DQEBCDAL
BglghkgBZQMEAgOiAwIBQAOCAgEAQnLsCxLlLS1wifrtAP4R/4g3VFTVlnLkbgkW
a6NQqZ8E9lZbZRxYNUSDHbgV0u18dWeFkeElhxZcR5M3mOFBuEmK5PJ1QkL/LTk2
O8/FyV/F69AmjLPWXklkoKfK6Cr9r/ewlHocByvLD+wEB+/0zIBkQa1OvLhNY4Ll
wiWKqnKiF9GNCaw5bwHbJvCym3eZyyKZlY5Der2RXMSUHP2k5NNSoRyE6RJXtTxQ
4iMigd3mumpCHweDtCu8wrirTMXFCfl5lBvG8V29vEI0XmMB5AXsWJbu1MR1WsGC
ma+xb3DHniex+art1t8l3oM96DMGhG5eQhxiSXGXhzSl57vISTUajTrCpJuEClcg
G6logprZDpE5mAwrlDuVcO2ILYDzlZN2Ilq5BKYu2d2xWfrJwubx5CX5TyERIrF9
z4kbOJqsbV8x34d3OBFU/yW3UUcf8F1tS40AHiUCP/mVmbelm2KoUbgHS4g9tXy6
R8FpKfC1i/Jv2EkYonMsgN8Y1Ocxdh7Sm0CQC00bEFDjYlsoMSclroDaRLaSNOvR
tRSAgPM6yoj9O2kxjmQCnoTZkR/jmhsUmvA3xOMtEQtxLRDt02LVfc7R4BewZB5N
dIC1QYr9iu0SyzQkifyDLenkPvyCgsmvqJtprKODHSP89izJmGptcPP4Y4R8/paQ
KtjM/1c=
-----END CERTIFICATE-----
