Certificate:
    Data:
        Version: 3 (0x2)
        Serial Number:
            7e:10:b9:c7:76:ff:d1:83:f7
    Signature Algorithm: ecdsa-with-SHA256
        Issuer: CN = EADTrust ECC 256 SubCA For Qualified Certificates 2019, O = "European Agency of Digital Trust, S.L.", C = ES, 2.5.4.97 = VATES-B85626240, OU = Legal Person
        Validity
            Not Before: May  7 11:15:00 2021 GMT
            Not After : May  7 11:15:00 2023 GMT
        Subject: CN = DEPARTAMENTO DE SANIDAD DEL GOBIERNO DE ARAGON, serialNumber = S5011001D, OU = SELLO ELECTRONICO, OU = DEPARTAMENTO DE SANIDAD, 2.5.4.97 = VATES-S5011001D, O = GOBIERNO DE ARAGON, C = ES
        Subject Public Key Info:
            Public Key Algorithm: id-ecPublicKey
                Public-Key: (256 bit)
                pub:
                    04:0c:e8:3b:96:9c:62:b7:3f:7e:ca:d3:80:28:55:
                    f1:4b:b1:78:a9:cf:48:7c:a5:ab:8f:7f:3c:11:38:
                    82:6c:b1:10:ba:86:1e:58:4a:7e:e3:05:cf:2c:21:
                    7b:45:1a:60:e9:9c:6d:f6:21:86:f7:76:40:c3:19:
                    7c:83:4e:4e:6a
                ASN1 OID: prime256v1
                NIST CURVE: P-256
        X509v3 extensions:
            X509v3 Basic Constraints: critical
                CA:FALSE
            X509v3 Authority Key Identifier: 
                keyid:D3:4C:6C:3A:BD:36:FE:70:87:23:87:3A:EE:3D:90:CF:CB:9B:F7:21

            Authority Information Access: 
                CA Issuers - URI:http://ca.eadtrust.eu/eadtrust-subca-ecc256eadlp2019.crt
                OCSP - URI:http://ocsp.eadtrust.eu

            X509v3 Issuer Alternative Name: 
                email:ca@eadtrust.eu, URI:http://www.eadtrust.eu, URI:http://ca.eadtrust.eu, URI:http://policy.eadtrust.eu
            X509v3 Subject Alternative Name: 
                DirName:/2.16.724.1.3.5.6.2.1=SELLO ELECTRONICO DE NIVEL MEDIO/2.16.724.1.3.5.6.2.2=GOBIERNO DE ARAGON/2.16.724.1.3.5.6.2.3=S5011001D
            X509v3 Certificate Policies: 
                Policy: 2.16.724.1.3.5.6.2
                Policy: 0.4.0.194112.1.1
                  User Notice:
                    Explicit Text: European Telecommunications Standards Institute. eIDAS European Regulation Compliant
                Policy: 1.3.6.1.4.1.501.2.1.1.0.41233
                  CPS: http://policy.eadtrust.eu
                  User Notice:
                    Explicit Text: Certificado cualificado de sello electrónico de Administración, órgano o entidad de derecho público, nivel Medio/Sustancial. Consulte las condiciones de uso en http://policy.eadtrust.eu

            X509v3 Extended Key Usage: 
                TLS Web Client Authentication, E-mail Protection
            qcStatements: 
                0..0...+.......0.......I..0......F..0......F.....0......F..0......F...0l.....F..0b00.*https://eadtrust.eu/en/documents-in-force/..en0..(https://eadtrust.eu/documentos-vigentes/..es
            X509v3 CRL Distribution Points: 

                Full Name:
                  URI:http://crl.eadtrust.eu/eadtrust-subca-ecc256eadlp2019.crl

            X509v3 Subject Key Identifier: 
                87:07:D1:59:B0:62:E2:C0:B2:93:DB:C3:4C:AD:5F:83:27:00:EA:88
            X509v3 Key Usage: critical
                Digital Signature, Non Repudiation, Key Encipherment
    Signature Algorithm: ecdsa-with-SHA256
         30:45:02:21:00:91:d9:09:9d:43:56:37:c3:25:2f:cb:ea:b1:
         21:42:75:0b:11:b4:fa:44:9f:3a:01:2b:1a:de:c5:fa:f2:77:
         9b:02:20:18:e4:f9:34:28:35:ec:be:03:2a:79:4a:64:24:f3:
         ad:27:36:d8:4d:db:32:ec:83:b7:27:14:87:1e:56:9e:ee
-----BEGIN CERTIFICATE-----
MIIHBDCCBqqgAwIBAgIJfhC5x3b/0YP3MAoGCCqGSM49BAMCMIGwMT8wPQYDVQQD
DDZFQURUcnVzdCBFQ0MgMjU2IFN1YkNBIEZvciBRdWFsaWZpZWQgQ2VydGlmaWNh
dGVzIDIwMTkxLzAtBgNVBAoMJkV1cm9wZWFuIEFnZW5jeSBvZiBEaWdpdGFsIFRy
dXN0LCBTLkwuMQswCQYDVQQGEwJFUzEYMBYGA1UEYQwPVkFURVMtQjg1NjI2MjQw
MRUwEwYDVQQLDAxMZWdhbCBQZXJzb24wHhcNMjEwNTA3MTExNTAwWhcNMjMwNTA3
MTExNTAwWjCBzzE3MDUGA1UEAwwuREVQQVJUQU1FTlRPIERFIFNBTklEQUQgREVM
IEdPQklFUk5PIERFIEFSQUdPTjESMBAGA1UEBRMJUzUwMTEwMDFEMRowGAYDVQQL
DBFTRUxMTyBFTEVDVFJPTklDTzEgMB4GA1UECwwXREVQQVJUQU1FTlRPIERFIFNB
TklEQUQxGDAWBgNVBGEMD1ZBVEVTLVM1MDExMDAxRDEbMBkGA1UECgwSR09CSUVS
Tk8gREUgQVJBR09OMQswCQYDVQQGEwJFUzBZMBMGByqGSM49AgEGCCqGSM49AwEH
A0IABAzoO5acYrc/fsrTgChV8UuxeKnPSHylq49/PBE4gmyxELqGHlhKfuMFzywh
e0UaYOmcbfYhhvd2QMMZfINOTmqjggSKMIIEhjAMBgNVHRMBAf8EAjAAMB8GA1Ud
IwQYMBaAFNNMbDq9Nv5whyOHOu49kM/Lm/chMHkGCCsGAQUFBwEBBG0wazBEBggr
BgEFBQcwAoY4aHR0cDovL2NhLmVhZHRydXN0LmV1L2VhZHRydXN0LXN1YmNhLWVj
YzI1NmVhZGxwMjAxOS5jcnQwIwYIKwYBBQUHMAGGF2h0dHA6Ly9vY3NwLmVhZHRy
dXN0LmV1MGMGA1UdEgRcMFqBDmNhQGVhZHRydXN0LmV1hhZodHRwOi8vd3d3LmVh
ZHRydXN0LmV1hhVodHRwOi8vY2EuZWFkdHJ1c3QuZXWGGWh0dHA6Ly9wb2xpY3ku
ZWFkdHJ1c3QuZXUwewYDVR0RBHQwcqRwMG4xLzAtBglghVQBAwUGAgEMIFNFTExP
IEVMRUNUUk9OSUNPIERFIE5JVkVMIE1FRElPMSEwHwYJYIVUAQMFBgICDBJHT0JJ
RVJOTyBERSBBUkFHT04xGDAWBglghVQBAwUGAgMMCVM1MDExMDAxRDCCAZgGA1Ud
IASCAY8wggGLMAoGCGCFVAEDBQYCMG8GBwQAi+xAAQEwZDBiBggrBgEFBQcCAjBW
DFRFdXJvcGVhbiBUZWxlY29tbXVuaWNhdGlvbnMgU3RhbmRhcmRzIEluc3RpdHV0
ZS4gZUlEQVMgRXVyb3BlYW4gUmVndWxhdGlvbiBDb21wbGlhbnQwggEKBg4rBgEE
AYN1AgEBAILCETCB9zAlBggrBgEFBQcCARYZaHR0cDovL3BvbGljeS5lYWR0cnVz
dC5ldTCBzQYIKwYBBQUHAgIwgcAMgb1DZXJ0aWZpY2FkbyBjdWFsaWZpY2FkbyBk
ZSBzZWxsbyBlbGVjdHLDs25pY28gZGUgQWRtaW5pc3RyYWNpw7NuLCDDs3JnYW5v
IG8gZW50aWRhZCBkZSBkZXJlY2hvIHDDumJsaWNvLCBuaXZlbCBNZWRpby9TdXN0
YW5jaWFsLiBDb25zdWx0ZSBsYXMgY29uZGljaW9uZXMgZGUgdXNvIGVuIGh0dHA6
Ly9wb2xpY3kuZWFkdHJ1c3QuZXUwHQYDVR0lBBYwFAYIKwYBBQUHAwIGCCsGAQUF
BwMEMIHBBggrBgEFBQcBAwSBtDCBsTAVBggrBgEFBQcLAjAJBgcEAIvsSQECMAgG
BgQAjkYBATALBgYEAI5GAQMCAQ8wEwYGBACORgEGMAkGBwQAjkYBBgIwbAYGBACO
RgEFMGIwMBYqaHR0cHM6Ly9lYWR0cnVzdC5ldS9lbi9kb2N1bWVudHMtaW4tZm9y
Y2UvEwJlbjAuFihodHRwczovL2VhZHRydXN0LmV1L2RvY3VtZW50b3MtdmlnZW50
ZXMvEwJlczBKBgNVHR8EQzBBMD+gPaA7hjlodHRwOi8vY3JsLmVhZHRydXN0LmV1
L2VhZHRydXN0LXN1YmNhLWVjYzI1NmVhZGxwMjAxOS5jcmwwHQYDVR0OBBYEFIcH
0VmwYuLAspPbw0ytX4MnAOqIMA4GA1UdDwEB/wQEAwIF4DAKBggqhkjOPQQDAgNI
ADBFAiEAkdkJnUNWN8MlL8vqsSFCdQsRtPpEnzoBKxrexfryd5sCIBjk+TQoNey+
Ayp5SmQk860nNthN2zLsg7cnFIceVp7u
-----END CERTIFICATE-----
