Certificate:
    Data:
        Version: 3 (0x2)
        Serial Number:
            6c:d0:e3:82:c5:04:ff:55:70:2e:b0:97:06:cd:32:fa
    Signature Algorithm: rsassaPss
         Hash Algorithm: sha512
         Mask Algorithm: mgf1 with sha512
         Salt Length: 0x40
         Trailer Field: 0xBC (default)
        Issuer: C = DE, O = D-Trust GmbH, CN = D-TRUST CA 2-2 2019, 2.5.4.97 = NTRDE-HRB74346
        Validity
            Not Before: Jun 24 13:23:17 2021 GMT
            Not After : Jun 28 13:23:17 2023 GMT
        Subject: C = DE, O = Robert Koch-Institut, OU = Elektronischer Impfnachweis, CN = Robert Koch-Institut, L = Berlin, postalCode = 13353, street = Nordufer 20, 2.5.4.97 = DT:DE-3023531445, serialNumber = CSM026571331, ST = Berlin
        Subject Public Key Info:
            Public Key Algorithm: id-ecPublicKey
                Public-Key: (256 bit)
                pub:
                    04:f9:f0:4a:b3:db:60:02:51:a8:88:12:20:94:be:
                    09:0c:ba:60:b8:3c:c1:71:7a:82:b8:8b:a5:ad:49:
                    01:cb:fc:19:ac:9b:6f:ed:fb:22:ad:4f:d8:0a:f7:
                    27:ef:4a:cf:cc:c0:a5:a2:a7:8f:12:80:cf:09:fd:
                    70:59:7f:03:a7
                ASN1 OID: prime256v1
                NIST CURVE: P-256
        X509v3 extensions:
            X509v3 Authority Key Identifier: 
                keyid:71:10:32:AE:74:71:7B:54:8E:F1:D6:AB:62:54:AE:FC:3E:C0:BB:16

            qcStatements: 
                0.0......F..0......F..0......F...
            Authority Information Access: 
                OCSP - URI:http://d-trust-ca-2-2-2019.ocsp.d-trust.net
                CA Issuers - URI:http://www.d-trust.net/cgi-bin/D-TRUST_CA_2-2_2019.crt
                CA Issuers - URI:ldap://directory.d-trust.net/CN=D-TRUST%20CA%202-2%202019,O=D-Trust%20GmbH,C=DE?cACertificate?base?

            X509v3 Certificate Policies: 
                Policy: 0.4.0.194112.1.1
                Policy: 1.3.6.1.4.1.4788.2.150.5
                  CPS: http://www.d-trust.net/internet/files/D-TRUST_CSM_PKI_CPS.pdf

            X509v3 CRL Distribution Points: 

                Full Name:
                  URI:http://crl.d-trust.net/crl/d-trust_ca_2-2_2019.crl
                  URI:http://cdn.d-trust-cloudcrl.net/crl/d-trust_ca_2-2_2019.crl
                  URI:ldap://directory.d-trust.net/CN=D-TRUST%20CA%202-2%202019,O=D-Trust%20GmbH,C=DE?certificaterevocationlist

            X509v3 Subject Key Identifier: 
                97:D7:D8:D7:D7:EE:D2:3F:97:DC:E7:2A:2B:98:36:6F:76:04:7F:A5
            X509v3 Key Usage: critical
                Digital Signature, Non Repudiation
    Signature Algorithm: rsassaPss
         Hash Algorithm: sha512
         Mask Algorithm: mgf1 with sha512
         Salt Length: 0x40
         Trailer Field: 0xBC (default)

         5e:f6:2b:b5:c4:17:0e:b6:17:35:6c:2b:b7:6d:22:cb:e4:54:
         18:d0:7e:e3:71:b1:30:8a:a2:9d:cc:4f:0e:74:0e:8e:cd:8b:
         ef:08:66:4c:e5:b3:b1:dd:70:66:21:56:ba:3e:f6:a0:ea:28:
         34:69:be:38:27:f2:e6:23:46:eb:07:50:a0:aa:55:ea:fd:98:
         2c:cc:86:3d:86:dc:0f:04:fa:c4:be:ee:1a:ac:43:b9:4a:c1:
         5c:3c:15:28:f3:58:16:85:3e:f3:f3:50:8c:5a:4f:be:9a:5f:
         d4:42:9b:63:d7:05:45:8c:06:61:c0:bc:2a:1b:15:f1:7b:bd:
         bb:bf:16:e7:9c:ae:a3:f8:37:8e:e3:37:35:b9:f8:98:45:6f:
         7e:f5:83:39:ba:e1:0b:e2:43:62:e4:00:0d:17:86:3e:37:11:
         a5:7b:e9:c9:e1:58:cb:34:0d:63:32:46:b8:d8:a9:a4:c2:a6:
         ba:b2:65:5c:bc:77:1d:59:c0:20:68:06:98:e1:c5:1a:06:ad:
         14:01:6f:50:61:df:6f:b0:b4:6d:f8:ae:79:00:af:22:b3:10:
         b7:4c:7b:08:97:6c:b9:65:c0:21:fd:d5:52:56:a3:29:c4:c6:
         01:30:39:26:a0:b2:2f:ef:fe:30:2c:4c:94:8a:8b:50:60:58:
         dd:1a:f4:a6:22:21:f8:e6:77:19:13:ff:4b:0f:a2:9b:f5:4b:
         06:10:dc:3f:56:1c:fe:59:f5:9a:4e:99:df:aa:21:cb:63:ff:
         ca:bf:99:9b:4c:f7:51:a5:3e:75:65:a7:72:c7:78:9d:a7:13:
         b2:a8:28:ed:c4:55:a2:bd:3d:19:89:4b:9b:83:ce:84:41:ce:
         17:66:f7:f5:d2:4f:8c:25:3c:d7:f7:eb:d2:48:86:02:56:2a:
         4a:e5:b6:ad:f5:eb:f7:bb:46:39:00:16:4e:09:3f:34:f5:b1:
         fa:2d:43:d3:c3:8c:54:fa:67:a5:ce:63:de:2e:bf:17:b9:5d:
         d5:5c:78:39:aa:35:3b:12:23:f4:c5:ee:9c:b4:8d:e7:30:b4:
         0b:d3:bd:31:b2:7f:29:2a:eb:94:46:08:8d:38:5f:17:9f:50:
         0e:ac:e2:f5:fe:c7:19:c1:a3:21:c1:ef:e7:8b:b8:ae:a2:84:
         32:9e:a3:33:5f:b1:05:9c:f6:48:81:72:d0:77:e2:64:e2:f3:
         49:e2:93:a3:0e:45:eb:a4:96:d9:48:da:c6:4d:1f:c0:ad:32:
         2f:74:b9:6b:c8:6c:2a:13:f4:59:ac:08:1e:51:77:71:41:e5:
         87:c4:db:23:b5:64:1b:3a:3e:71:e1:8b:83:c1:80:1d:bf:aa:
         fd:a6:d0:06:a0:a3:fa:0c
-----BEGIN CERTIFICATE-----
MIIHUTCCBQmgAwIBAgIQbNDjgsUE/1VwLrCXBs0y+jA9BgkqhkiG9w0BAQowMKAN
MAsGCWCGSAFlAwQCA6EaMBgGCSqGSIb3DQEBCDALBglghkgBZQMEAgOiAwIBQDBb
MQswCQYDVQQGEwJERTEVMBMGA1UEChMMRC1UcnVzdCBHbWJIMRwwGgYDVQQDExNE
LVRSVVNUIENBIDItMiAyMDE5MRcwFQYDVQRhEw5OVFJERS1IUkI3NDM0NjAeFw0y
MTA2MjQxMzIzMTdaFw0yMzA2MjgxMzIzMTdaMIHrMQswCQYDVQQGEwJERTEdMBsG
A1UEChMUUm9iZXJ0IEtvY2gtSW5zdGl0dXQxJDAiBgNVBAsTG0VsZWt0cm9uaXNj
aGVyIEltcGZuYWNod2VpczEdMBsGA1UEAxMUUm9iZXJ0IEtvY2gtSW5zdGl0dXQx
DzANBgNVBAcTBkJlcmxpbjEOMAwGA1UEEQwFMTMzNTMxFDASBgNVBAkTC05vcmR1
ZmVyIDIwMRkwFwYDVQRhExBEVDpERS0zMDIzNTMxNDQ1MRUwEwYDVQQFEwxDU00w
MjY1NzEzMzExDzANBgNVBAgTBkJlcmxpbjBZMBMGByqGSM49AgEGCCqGSM49AwEH
A0IABPnwSrPbYAJRqIgSIJS+CQy6YLg8wXF6griLpa1JAcv8Gaybb+37Iq1P2Ar3
J+9Kz8zApaKnjxKAzwn9cFl/A6ejggLpMIIC5TAfBgNVHSMEGDAWgBRxEDKudHF7
VI7x1qtiVK78PsC7FjAtBggrBgEFBQcBAwQhMB8wCAYGBACORgEBMBMGBgQAjkYB
BjAJBgcEAI5GAQYCMIH+BggrBgEFBQcBAQSB8TCB7jA3BggrBgEFBQcwAYYraHR0
cDovL2QtdHJ1c3QtY2EtMi0yLTIwMTkub2NzcC5kLXRydXN0Lm5ldDBCBggrBgEF
BQcwAoY2aHR0cDovL3d3dy5kLXRydXN0Lm5ldC9jZ2ktYmluL0QtVFJVU1RfQ0Ff
Mi0yXzIwMTkuY3J0MG8GCCsGAQUFBzAChmNsZGFwOi8vZGlyZWN0b3J5LmQtdHJ1
c3QubmV0L0NOPUQtVFJVU1QlMjBDQSUyMDItMiUyMDIwMTksTz1ELVRydXN0JTIw
R21iSCxDPURFP2NBQ2VydGlmaWNhdGU/YmFzZT8wcAYDVR0gBGkwZzAJBgcEAIvs
QAEBMFoGCysGAQQBpTQCgRYFMEswSQYIKwYBBQUHAgEWPWh0dHA6Ly93d3cuZC10
cnVzdC5uZXQvaW50ZXJuZXQvZmlsZXMvRC1UUlVTVF9DU01fUEtJX0NQUy5wZGYw
gfAGA1UdHwSB6DCB5TCB4qCB36CB3IYyaHR0cDovL2NybC5kLXRydXN0Lm5ldC9j
cmwvZC10cnVzdF9jYV8yLTJfMjAxOS5jcmyGO2h0dHA6Ly9jZG4uZC10cnVzdC1j
bG91ZGNybC5uZXQvY3JsL2QtdHJ1c3RfY2FfMi0yXzIwMTkuY3JshmlsZGFwOi8v
ZGlyZWN0b3J5LmQtdHJ1c3QubmV0L0NOPUQtVFJVU1QlMjBDQSUyMDItMiUyMDIw
MTksTz1ELVRydXN0JTIwR21iSCxDPURFP2NlcnRpZmljYXRlcmV2b2NhdGlvbmxp
c3QwHQYDVR0OBBYEFJfX2NfX7tI/l9znKiuYNm92BH+lMA4GA1UdDwEB/wQEAwIG
wDA9BgkqhkiG9w0BAQowMKANMAsGCWCGSAFlAwQCA6EaMBgGCSqGSIb3DQEBCDAL
BglghkgBZQMEAgOiAwIBQAOCAgEAXvYrtcQXDrYXNWwrt20iy+RUGNB+43GxMIqi
ncxPDnQOjs2L7whmTOWzsd1wZiFWuj72oOooNGm+OCfy5iNG6wdQoKpV6v2YLMyG
PYbcDwT6xL7uGqxDuUrBXDwVKPNYFoU+8/NQjFpPvppf1EKbY9cFRYwGYcC8KhsV
8Xu9u78W55yuo/g3juM3Nbn4mEVvfvWDObrhC+JDYuQADReGPjcRpXvpyeFYyzQN
YzJGuNippMKmurJlXLx3HVnAIGgGmOHFGgatFAFvUGHfb7C0bfiueQCvIrMQt0x7
CJdsuWXAIf3VUlajKcTGATA5JqCyL+/+MCxMlIqLUGBY3Rr0piIh+OZ3GRP/Sw+i
m/VLBhDcP1Yc/ln1mk6Z36ohy2P/yr+Zm0z3UaU+dWWncsd4nacTsqgo7cRVor09
GYlLm4POhEHOF2b39dJPjCU81/fr0kiGAlYqSuW2rfXr97tGOQAWTgk/NPWx+i1D
08OMVPpnpc5j3i6/F7ld1Vx4Oao1OxIj9MXunLSN5zC0C9O9MbJ/KSrrlEYIjThf
F59QDqzi9f7HGcGjIcHv54u4rqKEMp6jM1+xBZz2SIFy0HfiZOLzSeKTow5F66SW
2Ujaxk0fwK0yL3S5a8hsKhP0WawIHlF3cUHlh8TbI7VkGzo+ceGLg8GAHb+q/abQ
BqCj+gw=
-----END CERTIFICATE-----
