Certificate:
    Data:
        Version: 3 (0x2)
        Serial Number:
            50:25:8f:74:5a:22:92:66:28:f6:1f:ce:07:3c:fc:73
    Signature Algorithm: rsassaPss
         Hash Algorithm: sha512
         Mask Algorithm: mgf1 with sha512
         Salt Length: 0x40
         Trailer Field: 0xBC (default)
        Issuer: C = DE, O = D-Trust GmbH, CN = D-TRUST CA 2-2 2019, 2.5.4.97 = NTRDE-HRB74346
        Validity
            Not Before: Jun  7 10:02:08 2021 GMT
            Not After : Jun 11 10:02:08 2023 GMT
        Subject: C = DE, O = Robert Koch-Institut, OU = Elektronischer Impfnachweis, CN = Robert Koch-Institut, L = Berlin, postalCode = 13353, street = Nordufer 20, 2.5.4.97 = DT:DE-3023531445, serialNumber = CSM026413693, ST = Berlin
        Subject Public Key Info:
            Public Key Algorithm: id-ecPublicKey
                Public-Key: (256 bit)
                pub:
                    04:c9:5f:c4:05:23:91:9e:21:04:ed:23:0c:36:6b:
                    d2:59:3d:dd:38:0b:83:ba:f8:83:1c:5b:fb:ae:f9:
                    eb:71:9d:b0:c9:f4:24:22:3c:98:3e:4a:ed:56:b1:
                    b0:88:d7:70:39:c6:c7:2a:b7:81:d9:e5:ba:96:2f:
                    fe:7c:34:0f:10
                ASN1 OID: prime256v1
                NIST CURVE: P-256
        X509v3 extensions:
            X509v3 Authority Key Identifier: 
                keyid:71:10:32:AE:74:71:7B:54:8E:F1:D6:AB:62:54:AE:FC:3E:C0:BB:16

            qcStatements: 
                0.0......F..0......F..0......F...
            Authority Information Access: 
                OCSP - URI:http://d-trust-ca-2-2-2019.ocsp.d-trust.net
                CA Issuers - URI:http://www.d-trust.net/cgi-bin/D-TRUST_CA_2-2_2019.crt
                CA Issuers - URI:ldap://directory.d-trust.net/CN=D-TRUST%20CA%202-2%202019,O=D-Trust%20GmbH,C=DE?cACertificate?base?

            X509v3 Certificate Policies: 
                Policy: 0.4.0.194112.1.1
                Policy: 1.3.6.1.4.1.4788.2.150.5
                  CPS: http://www.d-trust.net/internet/files/D-TRUST_CSM_PKI_CPS.pdf

            X509v3 CRL Distribution Points: 

                Full Name:
                  URI:ldap://directory.d-trust.net/CN=D-TRUST%20CA%202-2%202019,O=D-Trust%20GmbH,C=DE?certificaterevocationlist
                  URI:http://crl.d-trust.net/crl/d-trust_ca_2-2_2019.crl
                  URI:http://cdn.d-trust-cloudcrl.net/crl/d-trust_ca_2-2_2019.crl

            X509v3 Subject Key Identifier: 
                24:2B:4C:2F:AF:C2:01:E7:8A:E8:DC:1B:A2:5C:08:80:26:37:30:B5
            X509v3 Key Usage: critical
                Digital Signature, Non Repudiation
    Signature Algorithm: rsassaPss
         Hash Algorithm: sha512
         Mask Algorithm: mgf1 with sha512
         Salt Length: 0x40
         Trailer Field: 0xBC (default)

         de:07:da:00:71:ae:0f:3b:05:b7:75:d9:30:6f:ed:c2:0b:10:
         cf:b1:a7:29:74:9d:63:30:5d:67:8a:90:9a:88:97:75:2d:5a:
         79:53:b6:5c:4b:ca:b6:1c:7d:15:63:31:9a:6f:02:9a:a0:8e:
         91:18:9a:a2:b1:07:df:0e:c1:d9:d7:02:3b:ae:15:d4:38:7d:
         63:ea:91:b7:12:c9:99:7b:26:15:bc:d9:84:32:3c:02:1d:88:
         a3:f6:00:7a:ba:12:f5:54:e8:0d:55:bc:e9:50:02:d7:d2:01:
         b1:68:9f:e8:22:2f:00:2e:7d:c7:9e:93:ac:ba:d3:0e:fc:eb:
         ed:d9:62:33:0b:98:ef:4d:1d:f9:13:da:41:61:61:14:32:8a:
         50:6e:50:ed:cf:66:58:e2:42:eb:e8:f9:0f:c9:e4:f0:b8:43:
         c6:8a:fd:c6:a1:e4:76:e4:bd:bf:f2:99:17:62:1f:84:2d:52:
         c7:82:63:ff:42:64:23:33:45:8f:ce:9c:57:c0:bc:93:cd:c9:
         cb:02:75:f0:c6:dc:83:b2:78:5d:81:31:16:de:6e:94:53:93:
         0a:04:07:25:b8:76:59:29:2b:eb:21:d9:8c:f8:de:bd:c4:25:
         9d:e8:26:0c:3e:87:fe:cd:7a:dc:11:4a:1f:b9:97:a6:d5:25:
         45:c3:de:8d:50:b3:31:85:c5:28:b0:95:bb:14:22:61:23:3c:
         3b:17:f4:e0:d7:c6:48:fd:08:f0:80:75:3d:3c:1f:6b:63:81:
         e2:9b:08:75:69:76:dd:ae:5f:64:ab:48:93:99:9b:8b:4e:3d:
         de:16:91:3f:e6:35:29:a3:53:21:97:c0:c7:be:8f:54:da:dd:
         ac:ef:7e:05:1f:23:d8:b2:50:ac:f4:c0:98:92:67:cf:47:89:
         c7:80:aa:5b:0a:4e:dd:c9:48:97:c7:25:b2:0f:f3:e1:b9:c0:
         e2:a1:4a:dd:bd:84:69:fe:ee:d0:43:4c:3a:76:66:bf:14:34:
         5c:2f:a3:88:94:98:43:d9:8f:40:ed:20:c8:57:1b:ab:5f:13:
         59:61:f8:73:12:59:56:2a:41:47:30:db:62:c9:93:fe:dc:be:
         d2:82:b0:92:34:d3:f6:6d:62:11:89:a9:42:da:23:bc:0f:db:
         76:7f:15:eb:c8:c1:2c:dc:84:7c:39:ce:10:4e:3c:c9:0d:b4:
         ac:26:eb:52:e9:8b:21:7d:bf:2b:d5:ca:53:40:5b:e7:47:e3:
         e0:07:fc:07:6f:c5:1a:d6:fa:c2:8d:e7:92:c3:e6:0c:ec:db:
         11:e6:16:80:7e:a4:58:27:b4:59:eb:9c:80:5a:9a:9d:19:68:
         82:13:42:c2:08:40:7d:97
-----BEGIN CERTIFICATE-----
MIIHUTCCBQmgAwIBAgIQUCWPdFoikmYo9h/OBzz8czA9BgkqhkiG9w0BAQowMKAN
MAsGCWCGSAFlAwQCA6EaMBgGCSqGSIb3DQEBCDALBglghkgBZQMEAgOiAwIBQDBb
MQswCQYDVQQGEwJERTEVMBMGA1UEChMMRC1UcnVzdCBHbWJIMRwwGgYDVQQDExNE
LVRSVVNUIENBIDItMiAyMDE5MRcwFQYDVQRhEw5OVFJERS1IUkI3NDM0NjAeFw0y
MTA2MDcxMDAyMDhaFw0yMzA2MTExMDAyMDhaMIHrMQswCQYDVQQGEwJERTEdMBsG
A1UEChMUUm9iZXJ0IEtvY2gtSW5zdGl0dXQxJDAiBgNVBAsTG0VsZWt0cm9uaXNj
aGVyIEltcGZuYWNod2VpczEdMBsGA1UEAxMUUm9iZXJ0IEtvY2gtSW5zdGl0dXQx
DzANBgNVBAcTBkJlcmxpbjEOMAwGA1UEEQwFMTMzNTMxFDASBgNVBAkTC05vcmR1
ZmVyIDIwMRkwFwYDVQRhExBEVDpERS0zMDIzNTMxNDQ1MRUwEwYDVQQFEwxDU00w
MjY0MTM2OTMxDzANBgNVBAgTBkJlcmxpbjBZMBMGByqGSM49AgEGCCqGSM49AwEH
A0IABMlfxAUjkZ4hBO0jDDZr0lk93TgLg7r4gxxb+67563GdsMn0JCI8mD5K7Vax
sIjXcDnGxyq3gdnlupYv/nw0DxCjggLpMIIC5TAfBgNVHSMEGDAWgBRxEDKudHF7
VI7x1qtiVK78PsC7FjAtBggrBgEFBQcBAwQhMB8wCAYGBACORgEBMBMGBgQAjkYB
BjAJBgcEAI5GAQYCMIH+BggrBgEFBQcBAQSB8TCB7jA3BggrBgEFBQcwAYYraHR0
cDovL2QtdHJ1c3QtY2EtMi0yLTIwMTkub2NzcC5kLXRydXN0Lm5ldDBCBggrBgEF
BQcwAoY2aHR0cDovL3d3dy5kLXRydXN0Lm5ldC9jZ2ktYmluL0QtVFJVU1RfQ0Ff
Mi0yXzIwMTkuY3J0MG8GCCsGAQUFBzAChmNsZGFwOi8vZGlyZWN0b3J5LmQtdHJ1
c3QubmV0L0NOPUQtVFJVU1QlMjBDQSUyMDItMiUyMDIwMTksTz1ELVRydXN0JTIw
R21iSCxDPURFP2NBQ2VydGlmaWNhdGU/YmFzZT8wcAYDVR0gBGkwZzAJBgcEAIvs
QAEBMFoGCysGAQQBpTQCgRYFMEswSQYIKwYBBQUHAgEWPWh0dHA6Ly93d3cuZC10
cnVzdC5uZXQvaW50ZXJuZXQvZmlsZXMvRC1UUlVTVF9DU01fUEtJX0NQUy5wZGYw
gfAGA1UdHwSB6DCB5TCB4qCB36CB3IZpbGRhcDovL2RpcmVjdG9yeS5kLXRydXN0
Lm5ldC9DTj1ELVRSVVNUJTIwQ0ElMjAyLTIlMjAyMDE5LE89RC1UcnVzdCUyMEdt
YkgsQz1ERT9jZXJ0aWZpY2F0ZXJldm9jYXRpb25saXN0hjJodHRwOi8vY3JsLmQt
dHJ1c3QubmV0L2NybC9kLXRydXN0X2NhXzItMl8yMDE5LmNybIY7aHR0cDovL2Nk
bi5kLXRydXN0LWNsb3VkY3JsLm5ldC9jcmwvZC10cnVzdF9jYV8yLTJfMjAxOS5j
cmwwHQYDVR0OBBYEFCQrTC+vwgHniujcG6JcCIAmNzC1MA4GA1UdDwEB/wQEAwIG
wDA9BgkqhkiG9w0BAQowMKANMAsGCWCGSAFlAwQCA6EaMBgGCSqGSIb3DQEBCDAL
BglghkgBZQMEAgOiAwIBQAOCAgEA3gfaAHGuDzsFt3XZMG/twgsQz7GnKXSdYzBd
Z4qQmoiXdS1aeVO2XEvKthx9FWMxmm8CmqCOkRiaorEH3w7B2dcCO64V1Dh9Y+qR
txLJmXsmFbzZhDI8Ah2Io/YAeroS9VToDVW86VAC19IBsWif6CIvAC59x56TrLrT
Dvzr7dliMwuY700d+RPaQWFhFDKKUG5Q7c9mWOJC6+j5D8nk8LhDxor9xqHkduS9
v/KZF2IfhC1Sx4Jj/0JkIzNFj86cV8C8k83JywJ18Mbcg7J4XYExFt5ulFOTCgQH
Jbh2WSkr6yHZjPjevcQlnegmDD6H/s163BFKH7mXptUlRcPejVCzMYXFKLCVuxQi
YSM8Oxf04NfGSP0I8IB1PTwfa2OB4psIdWl23a5fZKtIk5mbi0493haRP+Y1KaNT
IZfAx76PVNrdrO9+BR8j2LJQrPTAmJJnz0eJx4CqWwpO3clIl8clsg/z4bnA4qFK
3b2Eaf7u0ENMOnZmvxQ0XC+jiJSYQ9mPQO0gyFcbq18TWWH4cxJZVipBRzDbYsmT
/ty+0oKwkjTT9m1iEYmpQtojvA/bdn8V68jBLNyEfDnOEE48yQ20rCbrUumLIX2/
K9XKU0Bb50fj4Af8B2/FGtb6wo3nksPmDOzbEeYWgH6kWCe0WeucgFqanRloghNC
wghAfZc=
-----END CERTIFICATE-----
