Certificate:
    Data:
        Version: 3 (0x2)
        Serial Number:
            23:12:4c:8c:dc:37:76:bf:3c:11:c2:04:fa:13:48:49:28:88:9a:4c
    Signature Algorithm: sha256WithRSAEncryption
        Issuer: C = FR, O = Gouv, CN = CSCA-FRANCE
        Validity
            Not Before: Sep 10 22:00:00 2021 GMT
            Not After : Sep 10 22:00:00 2023 GMT
        Subject: C = FR, O = APHP, OU = 26750045200011, CN = DSC_FR_004
        Subject Public Key Info:
            Public Key Algorithm: id-ecPublicKey
                Public-Key: (256 bit)
                pub:
                    04:cc:be:91:95:be:31:f0:fb:0d:e8:a9:da:73:51:
                    3e:f3:99:64:21:c7:be:d5:99:f9:dd:62:2b:15:52:
                    00:01:a5:ce:77:83:fa:66:9b:dd:f8:c2:ce:2f:37:
                    49:6f:18:4c:3c:5e:3c:e7:5b:3d:ab:15:f3:30:12:
                    0c:7a:f4:8b:30
                ASN1 OID: prime256v1
                NIST CURVE: P-256
        X509v3 extensions:
            X509v3 Subject Key Identifier: 
                5B:C7:79:22:B6:AB:0B:79:41:23:F0:63:E4:EE:77:2A:6C:2B:C0:8D
            X509v3 Authority Key Identifier: 
                keyid:BE:8A:2E:D6:C9:F9:20:4E:3A:27:03:08:97:4D:EC:FD:D9:7D:C5:E6

            X509v3 Basic Constraints: critical
                CA:FALSE
            X509v3 Key Usage: critical
                Digital Signature
            X509v3 CRL Distribution Points: 

                Full Name:
                  URI:http://ants.gouv.fr/csca_crl

            X509v3 Certificate Policies: 
                Policy: 1.2.250.1.200.31.3.9.1.1

            Authority Information Access: 
                CA Issuers - URI:https://ant.gouv.fr/csca

    Signature Algorithm: sha256WithRSAEncryption
         9a:97:08:c9:0c:33:a3:80:89:d9:6e:83:5f:5e:6a:dd:66:3a:
         f1:03:b8:ba:e4:ef:38:6d:65:b5:ae:73:92:19:9c:01:a5:d3:
         1c:74:aa:cd:0e:28:b3:ca:39:25:07:ab:52:2a:e2:c7:d1:f9:
         65:30:f5:02:31:dd:94:9b:3f:73:4d:32:89:1b:5b:ac:c5:0e:
         58:69:ff:41:05:6f:a0:f0:fc:20:9f:f9:8d:46:9a:e8:80:f2:
         bf:55:71:5d:2c:23:82:9b:1a:f5:ff:2d:45:10:f8:27:79:c0:
         f7:a0:11:61:9b:8a:23:67:2c:30:59:5a:dc:52:83:e7:46:fa:
         88:7c:92:c4:bf:3b:d8:6a:2b:3b:cb:d3:ea:91:a1:6a:5b:44:
         cd:ca:f6:91:ab:db:41:63:21:64:bd:95:10:ba:2c:ca:2b:5d:
         27:98:85:cb:ce:0e:89:62:74:97:47:a6:b0:b5:17:19:26:cd:
         5e:17:9d:d4:43:29:ef:d1:d4:26:55:96:cc:97:f2:4c:d3:5c:
         be:b1:aa:dd:df:c6:f2:88:ac:d0:73:eb:ff:00:d2:36:e3:32:
         c7:5b:0f:62:26:6d:bf:8e:51:53:72:1f:12:d9:e6:b3:30:40:
         1e:f0:4b:e9:32:ac:f3:48:e7:08:ae:68:2b:2f:fa:fd:09:0a:
         34:d1:c1:45:90:21:82:21:95:a7:1e:11:c4:2a:ff:ae:b8:43:
         d5:8a:54:89:0b:b8:a3:33:ca:79:9e:9b:75:3f:0a:82:08:1e:
         07:59:c7:59:11:8d:68:0a:ed:f3:8e:33:88:21:12:32:49:99:
         8a:a1:a8:a5:34:45:78:89:97:80:c3:40:fe:fb:09:11:d7:e3:
         b2:cb:02:1e:6e:46:91:55:62:a4:fe:2a:eb:4e:86:2e:bd:06:
         22:4c:39:61:d7:22:21:ee:69:ab:2f:4f:e5:50:b7:4e:36:3b:
         1a:c0:e8:7f:b3:4f:ef:c4:a4:b2:0f:e8:24:31:54:73:c4:16:
         b1:ec:18:53:dc:32:f3:8f:62:fb:13:f4:f0:e4:33:4b:f3:b9:
         3b:ce:69:71:70:71:96:f0:e6:ba:b0:82:70:29:1b:13:83:fe:
         fa:7e:b2:1f:db:5b:bd:f4:58:5f:a9:e5:a4:85:f8:59:e7:24:
         f3:1a:22:51:e8:5a:ae:67:fb:53:ae:5a:b6:d7:a3:2a:20:25:
         ce:e1:03:7c:fe:9f:0e:ac:ff:5f:a1:34:b6:fb:71:6f:59:15:
         b1:93:4a:41:11:56:60:7a:dd:02:b4:c3:f7:3e:96:7e:20:2e:
         e0:c2:9d:f0:00:b8:56:b5:9c:30:63:fe:b8:15:49:7d:64:b6:
         6a:21:df:11:b5:b4:01:11
-----BEGIN CERTIFICATE-----
MIIEIDCCAgigAwIBAgIUIxJMjNw3dr88EcIE+hNISSiImkwwDQYJKoZIhvcNAQEL
BQAwMjELMAkGA1UEBhMCRlIxDTALBgNVBAoMBEdvdXYxFDASBgNVBAMMC0NTQ0Et
RlJBTkNFMB4XDTIxMDkxMDIyMDAwMFoXDTIzMDkxMDIyMDAwMFowSjELMAkGA1UE
BhMCRlIxDTALBgNVBAoMBEFQSFAxFzAVBgNVBAsMDjI2NzUwMDQ1MjAwMDExMRMw
EQYDVQQDDApEU0NfRlJfMDA0MFkwEwYHKoZIzj0CAQYIKoZIzj0DAQcDQgAEzL6R
lb4x8PsN6Knac1E+85lkIce+1Zn53WIrFVIAAaXOd4P6Zpvd+MLOLzdJbxhMPF48
51s9qxXzMBIMevSLMKOB4DCB3TAdBgNVHQ4EFgQUW8d5IrarC3lBI/Bj5O53Kmwr
wI0wHwYDVR0jBBgwFoAUvoou1sn5IE46JwMIl03s/dl9xeYwDAYDVR0TAQH/BAIw
ADAOBgNVHQ8BAf8EBAMCB4AwLQYDVR0fBCYwJDAioCCgHoYcaHR0cDovL2FudHMu
Z291di5mci9jc2NhX2NybDAYBgNVHSAEETAPMA0GCyqBegGBSB8DCQEBMDQGCCsG
AQUFBwEBBCgwJjAkBggrBgEFBQcwAoYYaHR0cHM6Ly9hbnQuZ291di5mci9jc2Nh
MA0GCSqGSIb3DQEBCwUAA4ICAQCalwjJDDOjgInZboNfXmrdZjrxA7i65O84bWW1
rnOSGZwBpdMcdKrNDiizyjklB6tSKuLH0fllMPUCMd2Umz9zTTKJG1usxQ5Yaf9B
BW+g8Pwgn/mNRprogPK/VXFdLCOCmxr1/y1FEPgnecD3oBFhm4ojZywwWVrcUoPn
RvqIfJLEvzvYais7y9PqkaFqW0TNyvaRq9tBYyFkvZUQuizKK10nmIXLzg6JYnSX
R6awtRcZJs1eF53UQynv0dQmVZbMl/JM01y+sard38byiKzQc+v/ANI24zLHWw9i
Jm2/jlFTch8S2eazMEAe8EvpMqzzSOcIrmgrL/r9CQo00cFFkCGCIZWnHhHEKv+u
uEPVilSJC7ijM8p5npt1PwqCCB4HWcdZEY1oCu3zjjOIIRIySZmKoailNEV4iZeA
w0D++wkR1+OyywIebkaRVWKk/irrToYuvQYiTDlh1yIh7mmrL0/lULdONjsawOh/
s0/vxKSyD+gkMVRzxBax7BhT3DLzj2L7E/Tw5DNL87k7zmlxcHGW8Oa6sIJwKRsT
g/76frIf21u99FhfqeWkhfhZ5yTzGiJR6FquZ/tTrlq216MqICXO4QN8/p8OrP9f
oTS2+3FvWRWxk0pBEVZget0CtMP3PpZ+IC7gwp3wALhWtZwwY/64FUl9ZLZqId8R
tbQBEQ==
-----END CERTIFICATE-----
