Certificate:
    Data:
        Version: 3 (0x2)
        Serial Number:
            50:0e:9b:1b:e3:69:cc:8b:42:52:fd:f7:70:78:ef:40
    Signature Algorithm: rsassaPss
         Hash Algorithm: sha512
         Mask Algorithm: mgf1 with sha512
         Salt Length: 0x40
         Trailer Field: 0xBC (default)
        Issuer: C = DE, O = D-Trust GmbH, CN = D-TRUST CA 2-2 2019, 2.5.4.97 = NTRDE-HRB74346
        Validity
            Not Before: Jun 24 13:21:05 2021 GMT
            Not After : Jun 28 13:21:05 2023 GMT
        Subject: C = DE, O = Robert Koch-Institut, OU = Elektronischer Impfnachweis, CN = Robert Koch-Institut, L = Berlin, postalCode = 13353, street = Nordufer 20, 2.5.4.97 = DT:DE-3023531445, serialNumber = CSM026571298, ST = Berlin
        Subject Public Key Info:
            Public Key Algorithm: id-ecPublicKey
                Public-Key: (256 bit)
                pub:
                    04:eb:f4:12:d1:fe:eb:e3:7d:f2:a9:da:bb:5c:a8:
                    77:38:e2:a1:38:48:a0:83:e5:55:8b:16:04:4e:8a:
                    33:6e:0f:50:80:0a:80:0c:86:58:0d:ed:d6:11:09:
                    ce:f2:ef:1f:a9:dc:dd:da:8b:95:66:8e:78:fc:67:
                    35:de:0b:33:60
                ASN1 OID: prime256v1
                NIST CURVE: P-256
        X509v3 extensions:
            X509v3 Authority Key Identifier: 
                keyid:71:10:32:AE:74:71:7B:54:8E:F1:D6:AB:62:54:AE:FC:3E:C0:BB:16

            qcStatements: 
                0.0......F..0......F..0......F...
            Authority Information Access: 
                OCSP - URI:http://d-trust-ca-2-2-2019.ocsp.d-trust.net
                CA Issuers - URI:http://www.d-trust.net/cgi-bin/D-TRUST_CA_2-2_2019.crt
                CA Issuers - URI:ldap://directory.d-trust.net/CN=D-TRUST%20CA%202-2%202019,O=D-Trust%20GmbH,C=DE?cACertificate?base?

            X509v3 Certificate Policies: 
                Policy: 0.4.0.194112.1.1
                Policy: 1.3.6.1.4.1.4788.2.150.5
                  CPS: http://www.d-trust.net/internet/files/D-TRUST_CSM_PKI_CPS.pdf

            X509v3 CRL Distribution Points: 

                Full Name:
                  URI:http://crl.d-trust.net/crl/d-trust_ca_2-2_2019.crl
                  URI:http://cdn.d-trust-cloudcrl.net/crl/d-trust_ca_2-2_2019.crl
                  URI:ldap://directory.d-trust.net/CN=D-TRUST%20CA%202-2%202019,O=D-Trust%20GmbH,C=DE?certificaterevocationlist

            X509v3 Subject Key Identifier: 
                8C:4C:8E:C8:9B:30:91:03:DA:4A:8E:8C:3E:FC:03:5A:C6:48:20:CA
            X509v3 Key Usage: critical
                Digital Signature, Non Repudiation
    Signature Algorithm: rsassaPss
         Hash Algorithm: sha512
         Mask Algorithm: mgf1 with sha512
         Salt Length: 0x40
         Trailer Field: 0xBC (default)

         99:70:81:74:e8:8e:88:7c:96:ad:9a:6f:a9:48:b9:69:ed:f8:
         06:85:e2:ad:92:af:a6:07:b8:8d:a5:00:bc:99:4c:f8:fe:3d:
         98:d4:11:9c:10:0b:72:f5:22:a9:2a:2d:86:06:ce:24:85:76:
         4b:66:94:bd:39:0e:14:a5:5c:c4:a7:45:d8:e6:06:9d:f7:29:
         e6:19:a4:f3:8b:ee:ac:1e:6f:36:8c:e8:75:15:66:ab:66:c9:
         0a:74:52:fc:9b:32:5a:c2:fd:f0:90:45:37:d9:b8:24:10:f1:
         57:4a:c5:5b:e1:49:1a:2b:83:e2:9d:c2:3b:ce:4b:b8:3a:0c:
         e1:4b:ab:56:f2:f0:57:1d:fc:2f:32:01:ad:4e:42:50:96:1e:
         34:9d:80:92:09:d4:7c:b7:43:7f:12:bc:03:99:89:cd:55:37:
         f6:69:aa:06:1a:25:c8:22:41:ed:a3:01:82:ae:f1:c1:eb:c8:
         dc:ae:2a:a3:a4:f1:54:92:c0:b5:05:35:75:f5:9f:4c:a6:f3:
         72:d2:21:15:ee:da:85:20:15:fa:c9:12:f2:cf:8d:af:35:79:
         ae:14:13:28:41:ad:01:64:1c:16:d5:a9:68:f9:24:d0:18:96:
         31:75:7c:b3:b3:8b:7d:08:54:4b:aa:88:8a:5e:e2:af:e4:95:
         66:d9:7a:f5:9b:52:94:00:72:b5:d0:8c:66:4a:49:81:cd:54:
         09:20:74:ea:c3:d1:57:33:07:b0:95:cf:2e:18:a9:e9:a8:3f:
         1a:96:0f:9d:46:43:b6:35:84:a3:44:ce:1e:52:4a:01:cb:4f:
         ab:ab:07:e7:be:cf:66:4f:9c:68:ed:14:4f:46:b7:73:9a:f9:
         4d:d2:69:16:a1:a3:55:c1:d5:06:14:e4:aa:09:81:28:9b:3d:
         b3:00:40:16:2b:94:ac:cf:44:8c:76:ed:f3:81:af:af:38:df:
         ff:94:37:4a:fd:76:65:ba:f0:0b:85:27:9e:e4:7b:a3:11:de:
         c6:b9:e8:ae:ec:bb:22:d6:57:01:c4:8d:ce:86:2b:92:19:ad:
         39:9f:28:8e:ee:8e:e2:f6:2c:5c:ea:34:8e:f1:a7:25:38:50:
         e3:9f:d6:4e:88:36:a2:d9:08:16:52:12:2e:4f:86:93:7b:cd:
         e4:f3:9e:b4:8f:12:bd:ed:2a:7c:6c:20:3b:64:42:ff:16:42:
         96:87:41:78:14:3a:06:72:9b:aa:c7:ab:75:af:fe:f6:ec:6d:
         72:06:c7:6d:ef:bc:5b:85:90:57:7b:02:02:28:b8:6d:c3:39:
         8e:4c:3b:1d:81:a1:dd:94:9d:4b:20:b1:4f:10:fd:1e:70:d7:
         1b:29:2a:28:b6:67:18:f5
-----BEGIN CERTIFICATE-----
MIIHUTCCBQmgAwIBAgIQUA6bG+NpzItCUv33cHjvQDA9BgkqhkiG9w0BAQowMKAN
MAsGCWCGSAFlAwQCA6EaMBgGCSqGSIb3DQEBCDALBglghkgBZQMEAgOiAwIBQDBb
MQswCQYDVQQGEwJERTEVMBMGA1UEChMMRC1UcnVzdCBHbWJIMRwwGgYDVQQDExNE
LVRSVVNUIENBIDItMiAyMDE5MRcwFQYDVQRhEw5OVFJERS1IUkI3NDM0NjAeFw0y
MTA2MjQxMzIxMDVaFw0yMzA2MjgxMzIxMDVaMIHrMQswCQYDVQQGEwJERTEdMBsG
A1UEChMUUm9iZXJ0IEtvY2gtSW5zdGl0dXQxJDAiBgNVBAsTG0VsZWt0cm9uaXNj
aGVyIEltcGZuYWNod2VpczEdMBsGA1UEAxMUUm9iZXJ0IEtvY2gtSW5zdGl0dXQx
DzANBgNVBAcTBkJlcmxpbjEOMAwGA1UEEQwFMTMzNTMxFDASBgNVBAkTC05vcmR1
ZmVyIDIwMRkwFwYDVQRhExBEVDpERS0zMDIzNTMxNDQ1MRUwEwYDVQQFEwxDU00w
MjY1NzEyOTgxDzANBgNVBAgTBkJlcmxpbjBZMBMGByqGSM49AgEGCCqGSM49AwEH
A0IABOv0EtH+6+N98qnau1yodzjioThIoIPlVYsWBE6KM24PUIAKgAyGWA3t1hEJ
zvLvH6nc3dqLlWaOePxnNd4LM2CjggLpMIIC5TAfBgNVHSMEGDAWgBRxEDKudHF7
VI7x1qtiVK78PsC7FjAtBggrBgEFBQcBAwQhMB8wCAYGBACORgEBMBMGBgQAjkYB
BjAJBgcEAI5GAQYCMIH+BggrBgEFBQcBAQSB8TCB7jA3BggrBgEFBQcwAYYraHR0
cDovL2QtdHJ1c3QtY2EtMi0yLTIwMTkub2NzcC5kLXRydXN0Lm5ldDBCBggrBgEF
BQcwAoY2aHR0cDovL3d3dy5kLXRydXN0Lm5ldC9jZ2ktYmluL0QtVFJVU1RfQ0Ff
Mi0yXzIwMTkuY3J0MG8GCCsGAQUFBzAChmNsZGFwOi8vZGlyZWN0b3J5LmQtdHJ1
c3QubmV0L0NOPUQtVFJVU1QlMjBDQSUyMDItMiUyMDIwMTksTz1ELVRydXN0JTIw
R21iSCxDPURFP2NBQ2VydGlmaWNhdGU/YmFzZT8wcAYDVR0gBGkwZzAJBgcEAIvs
QAEBMFoGCysGAQQBpTQCgRYFMEswSQYIKwYBBQUHAgEWPWh0dHA6Ly93d3cuZC10
cnVzdC5uZXQvaW50ZXJuZXQvZmlsZXMvRC1UUlVTVF9DU01fUEtJX0NQUy5wZGYw
gfAGA1UdHwSB6DCB5TCB4qCB36CB3IYyaHR0cDovL2NybC5kLXRydXN0Lm5ldC9j
cmwvZC10cnVzdF9jYV8yLTJfMjAxOS5jcmyGO2h0dHA6Ly9jZG4uZC10cnVzdC1j
bG91ZGNybC5uZXQvY3JsL2QtdHJ1c3RfY2FfMi0yXzIwMTkuY3JshmlsZGFwOi8v
ZGlyZWN0b3J5LmQtdHJ1c3QubmV0L0NOPUQtVFJVU1QlMjBDQSUyMDItMiUyMDIw
MTksTz1ELVRydXN0JTIwR21iSCxDPURFP2NlcnRpZmljYXRlcmV2b2NhdGlvbmxp
c3QwHQYDVR0OBBYEFIxMjsibMJED2kqOjD78A1rGSCDKMA4GA1UdDwEB/wQEAwIG
wDA9BgkqhkiG9w0BAQowMKANMAsGCWCGSAFlAwQCA6EaMBgGCSqGSIb3DQEBCDAL
BglghkgBZQMEAgOiAwIBQAOCAgEAmXCBdOiOiHyWrZpvqUi5ae34BoXirZKvpge4
jaUAvJlM+P49mNQRnBALcvUiqSothgbOJIV2S2aUvTkOFKVcxKdF2OYGnfcp5hmk
84vurB5vNozodRVmq2bJCnRS/JsyWsL98JBFN9m4JBDxV0rFW+FJGiuD4p3CO85L
uDoM4UurVvLwVx38LzIBrU5CUJYeNJ2AkgnUfLdDfxK8A5mJzVU39mmqBholyCJB
7aMBgq7xwevI3K4qo6TxVJLAtQU1dfWfTKbzctIhFe7ahSAV+skS8s+NrzV5rhQT
KEGtAWQcFtWpaPkk0BiWMXV8s7OLfQhUS6qIil7ir+SVZtl69ZtSlABytdCMZkpJ
gc1UCSB06sPRVzMHsJXPLhip6ag/GpYPnUZDtjWEo0TOHlJKActPq6sH577PZk+c
aO0UT0a3c5r5TdJpFqGjVcHVBhTkqgmBKJs9swBAFiuUrM9EjHbt84Gvrzjf/5Q3
Sv12ZbrwC4UnnuR7oxHexrnoruy7ItZXAcSNzoYrkhmtOZ8oju6O4vYsXOo0jvGn
JThQ45/WTog2otkIFlISLk+Gk3vN5POetI8Sve0qfGwgO2RC/xZClodBeBQ6BnKb
qserda/+9uxtcgbHbe+8W4WQV3sCAii4bcM5jkw7HYGh3ZSdSyCxTxD9HnDXGykq
KLZnGPU=
-----END CERTIFICATE-----
