Certificate:
    Data:
        Version: 3 (0x2)
        Serial Number:
            5e:15:7e:a8:cc:a0:ba:07:fd:53:a6:4c:b4:05:8e:af
    Signature Algorithm: rsassaPss
         Hash Algorithm: sha512
         Mask Algorithm: mgf1 with sha512
         Salt Length: 0x40
         Trailer Field: 0xBC (default)
        Issuer: C = DE, O = D-Trust GmbH, CN = D-TRUST CA 2-2 2019, 2.5.4.97 = NTRDE-HRB74346
        Validity
            Not Before: May 26 12:32:10 2021 GMT
            Not After : May 30 12:32:10 2023 GMT
        Subject: C = DE, O = Robert Koch-Institut, OU = Elektronischer Impfnachweis, CN = Robert Koch-Institut, L = Berlin, postalCode = 13353, street = Nordufer 20, 2.5.4.97 = DT:DE-3023531445, serialNumber = CSM026317104, ST = Berlin
        Subject Public Key Info:
            Public Key Algorithm: id-ecPublicKey
                Public-Key: (256 bit)
                pub:
                    04:26:69:22:f8:6d:69:77:d0:cd:88:b5:ff:79:3e:
                    f4:f6:9f:d9:78:27:7f:99:c8:eb:99:12:e8:4e:03:
                    fa:9e:50:ea:27:15:2f:67:4a:d0:eb:8c:bf:2e:3d:
                    95:93:97:a1:18:7b:6e:57:f4:66:ca:e3:57:25:8c:
                    45:07:9f:1b:74
                ASN1 OID: prime256v1
                NIST CURVE: P-256
        X509v3 extensions:
            X509v3 Authority Key Identifier: 
                keyid:71:10:32:AE:74:71:7B:54:8E:F1:D6:AB:62:54:AE:FC:3E:C0:BB:16

            qcStatements: 
                0.0......F..0......F..0......F...
            Authority Information Access: 
                OCSP - URI:http://d-trust-ca-2-2-2019.ocsp.d-trust.net
                CA Issuers - URI:http://www.d-trust.net/cgi-bin/D-TRUST_CA_2-2_2019.crt
                CA Issuers - URI:ldap://directory.d-trust.net/CN=D-TRUST%20CA%202-2%202019,O=D-Trust%20GmbH,C=DE?cACertificate?base?

            X509v3 Certificate Policies: 
                Policy: 0.4.0.194112.1.1
                Policy: 1.3.6.1.4.1.4788.2.150.5
                  CPS: http://www.d-trust.net/internet/files/D-TRUST_CSM_PKI_CPS.pdf

            X509v3 CRL Distribution Points: 

                Full Name:
                  URI:ldap://directory.d-trust.net/CN=D-TRUST%20CA%202-2%202019,O=D-Trust%20GmbH,C=DE?certificaterevocationlist
                  URI:http://crl.d-trust.net/crl/d-trust_ca_2-2_2019.crl
                  URI:http://cdn.d-trust-cloudcrl.net/crl/d-trust_ca_2-2_2019.crl

            X509v3 Subject Key Identifier: 
                21:0B:7F:E6:91:80:9B:90:2C:C7:B4:B9:44:73:C1:0C:A9:8A:6D:2A
            X509v3 Key Usage: critical
                Digital Signature, Non Repudiation
    Signature Algorithm: rsassaPss
         Hash Algorithm: sha512
         Mask Algorithm: mgf1 with sha512
         Salt Length: 0x40
         Trailer Field: 0xBC (default)

         cc:b5:e1:46:d3:45:cb:58:12:c0:e6:ae:3b:7a:f6:bc:6b:75:
         11:07:c5:ac:d2:8f:b1:5d:b6:0d:c2:e2:c2:e9:a8:48:7d:74:
         fe:2c:45:3f:bd:61:79:92:38:dd:fd:de:73:da:58:f7:73:55:
         2e:fd:b6:1c:4a:a7:34:c0:03:8a:c7:28:63:a7:41:5d:66:2c:
         4d:44:25:8c:48:ee:8a:e0:f2:8e:58:c4:01:dc:88:f3:5b:a8:
         09:39:87:a0:a1:d3:b1:df:59:a5:3b:a9:ea:9e:d6:d5:56:6e:
         ff:62:a6:2c:21:c6:a9:ce:f3:9a:fe:c5:55:33:54:36:60:36:
         aa:c1:97:97:71:23:8c:07:59:6e:33:1f:4a:72:7c:69:c2:ee:
         57:26:00:48:77:23:2b:1e:07:1c:60:7d:6e:f0:cf:d3:d7:97:
         31:25:25:63:ec:5c:da:e7:22:0c:66:00:18:16:15:c8:78:b3:
         b7:ac:1e:ee:24:e9:66:7e:fc:57:84:46:04:61:a9:b4:08:b2:
         c9:85:aa:25:82:70:ec:7b:a3:80:0c:62:be:55:c0:77:73:90:
         17:81:44:f6:27:44:d6:6b:07:54:ac:d7:88:4b:0a:58:60:3c:
         4e:f4:a6:b9:98:8c:ad:91:b4:bc:cd:08:be:b3:4a:8b:2c:e2:
         12:a5:5b:cc:29:cd:66:90:d5:5f:fd:b1:b9:e8:28:63:da:86:
         0d:9e:66:72:d1:6c:2b:e6:fb:ae:7e:e9:99:99:c2:b7:8f:57:
         ef:a8:33:d4:34:7c:8a:29:55:66:69:6e:e4:12:30:aa:f5:2c:
         68:36:55:0e:ae:8d:2c:10:5f:9c:55:d5:64:0e:65:ee:00:9b:
         37:5d:6e:01:b2:61:6e:27:05:cd:c1:e7:fa:8b:57:b1:52:a3:
         89:8a:c2:6f:8d:37:56:2f:ee:3b:39:c0:d0:c0:37:75:33:f2:
         2d:c1:31:1d:ea:60:cc:0e:ec:a8:51:6e:dc:a7:6f:01:f6:51:
         85:49:0b:38:50:26:c0:2e:8b:68:37:a7:01:7e:22:ab:d3:92:
         c8:68:58:14:7f:45:81:5c:f3:c9:eb:c7:5e:3a:77:74:05:8a:
         1b:21:73:0e:80:4d:04:e2:17:53:fb:e1:20:2d:5a:89:6e:8e:
         39:c3:9d:5d:71:6f:27:84:e8:23:24:3d:b5:dc:d1:2a:b4:45:
         a3:72:a8:51:12:4c:75:02:54:91:8b:14:72:96:d4:bc:96:16:
         b5:fb:38:9f:12:c6:c3:78:12:e3:c0:1f:26:a7:cd:1f:b6:c2:
         f3:0b:19:a6:a6:45:aa:94:3c:3e:90:b6:92:dd:b6:b4:45:a5:
         1c:55:d3:88:1b:7d:f6:f2
-----BEGIN CERTIFICATE-----
MIIHUTCCBQmgAwIBAgIQXhV+qMygugf9U6ZMtAWOrzA9BgkqhkiG9w0BAQowMKAN
MAsGCWCGSAFlAwQCA6EaMBgGCSqGSIb3DQEBCDALBglghkgBZQMEAgOiAwIBQDBb
MQswCQYDVQQGEwJERTEVMBMGA1UEChMMRC1UcnVzdCBHbWJIMRwwGgYDVQQDExNE
LVRSVVNUIENBIDItMiAyMDE5MRcwFQYDVQRhEw5OVFJERS1IUkI3NDM0NjAeFw0y
MTA1MjYxMjMyMTBaFw0yMzA1MzAxMjMyMTBaMIHrMQswCQYDVQQGEwJERTEdMBsG
A1UEChMUUm9iZXJ0IEtvY2gtSW5zdGl0dXQxJDAiBgNVBAsTG0VsZWt0cm9uaXNj
aGVyIEltcGZuYWNod2VpczEdMBsGA1UEAxMUUm9iZXJ0IEtvY2gtSW5zdGl0dXQx
DzANBgNVBAcTBkJlcmxpbjEOMAwGA1UEEQwFMTMzNTMxFDASBgNVBAkTC05vcmR1
ZmVyIDIwMRkwFwYDVQRhExBEVDpERS0zMDIzNTMxNDQ1MRUwEwYDVQQFEwxDU00w
MjYzMTcxMDQxDzANBgNVBAgTBkJlcmxpbjBZMBMGByqGSM49AgEGCCqGSM49AwEH
A0IABCZpIvhtaXfQzYi1/3k+9Paf2Xgnf5nI65kS6E4D+p5Q6icVL2dK0OuMvy49
lZOXoRh7blf0ZsrjVyWMRQefG3SjggLpMIIC5TAfBgNVHSMEGDAWgBRxEDKudHF7
VI7x1qtiVK78PsC7FjAtBggrBgEFBQcBAwQhMB8wCAYGBACORgEBMBMGBgQAjkYB
BjAJBgcEAI5GAQYCMIH+BggrBgEFBQcBAQSB8TCB7jA3BggrBgEFBQcwAYYraHR0
cDovL2QtdHJ1c3QtY2EtMi0yLTIwMTkub2NzcC5kLXRydXN0Lm5ldDBCBggrBgEF
BQcwAoY2aHR0cDovL3d3dy5kLXRydXN0Lm5ldC9jZ2ktYmluL0QtVFJVU1RfQ0Ff
Mi0yXzIwMTkuY3J0MG8GCCsGAQUFBzAChmNsZGFwOi8vZGlyZWN0b3J5LmQtdHJ1
c3QubmV0L0NOPUQtVFJVU1QlMjBDQSUyMDItMiUyMDIwMTksTz1ELVRydXN0JTIw
R21iSCxDPURFP2NBQ2VydGlmaWNhdGU/YmFzZT8wcAYDVR0gBGkwZzAJBgcEAIvs
QAEBMFoGCysGAQQBpTQCgRYFMEswSQYIKwYBBQUHAgEWPWh0dHA6Ly93d3cuZC10
cnVzdC5uZXQvaW50ZXJuZXQvZmlsZXMvRC1UUlVTVF9DU01fUEtJX0NQUy5wZGYw
gfAGA1UdHwSB6DCB5TCB4qCB36CB3IZpbGRhcDovL2RpcmVjdG9yeS5kLXRydXN0
Lm5ldC9DTj1ELVRSVVNUJTIwQ0ElMjAyLTIlMjAyMDE5LE89RC1UcnVzdCUyMEdt
YkgsQz1ERT9jZXJ0aWZpY2F0ZXJldm9jYXRpb25saXN0hjJodHRwOi8vY3JsLmQt
dHJ1c3QubmV0L2NybC9kLXRydXN0X2NhXzItMl8yMDE5LmNybIY7aHR0cDovL2Nk
bi5kLXRydXN0LWNsb3VkY3JsLm5ldC9jcmwvZC10cnVzdF9jYV8yLTJfMjAxOS5j
cmwwHQYDVR0OBBYEFCELf+aRgJuQLMe0uURzwQypim0qMA4GA1UdDwEB/wQEAwIG
wDA9BgkqhkiG9w0BAQowMKANMAsGCWCGSAFlAwQCA6EaMBgGCSqGSIb3DQEBCDAL
BglghkgBZQMEAgOiAwIBQAOCAgEAzLXhRtNFy1gSwOauO3r2vGt1EQfFrNKPsV22
DcLiwumoSH10/ixFP71heZI43f3ec9pY93NVLv22HEqnNMADiscoY6dBXWYsTUQl
jEjuiuDyjljEAdyI81uoCTmHoKHTsd9ZpTup6p7W1VZu/2KmLCHGqc7zmv7FVTNU
NmA2qsGXl3EjjAdZbjMfSnJ8acLuVyYASHcjKx4HHGB9bvDP09eXMSUlY+xc2uci
DGYAGBYVyHizt6we7iTpZn78V4RGBGGptAiyyYWqJYJw7HujgAxivlXAd3OQF4FE
9idE1msHVKzXiEsKWGA8TvSmuZiMrZG0vM0IvrNKiyziEqVbzCnNZpDVX/2xuego
Y9qGDZ5mctFsK+b7rn7pmZnCt49X76gz1DR8iilVZmlu5BIwqvUsaDZVDq6NLBBf
nFXVZA5l7gCbN11uAbJhbicFzcHn+otXsVKjiYrCb403Vi/uOznA0MA3dTPyLcEx
HepgzA7sqFFu3KdvAfZRhUkLOFAmwC6LaDenAX4iq9OSyGhYFH9FgVzzyevHXjp3
dAWKGyFzDoBNBOIXU/vhIC1aiW6OOcOdXXFvJ4ToIyQ9tdzRKrRFo3KoURJMdQJU
kYsUcpbUvJYWtfs4nxLGw3gS48AfJqfNH7bC8wsZpqZFqpQ8PpC2kt22tEWlHFXT
iBt99vI=
-----END CERTIFICATE-----
