Certificate:
    Data:
        Version: 3 (0x2)
        Serial Number:
            79:76:a0:c0:cc:95:37:f0:69:31:b2:1a:6c:9d:2c:69
    Signature Algorithm: rsassaPss
         Hash Algorithm: sha512
         Mask Algorithm: mgf1 with sha512
         Salt Length: 0x40
         Trailer Field: 0xBC (default)
        Issuer: C = DE, O = D-Trust GmbH, CN = D-TRUST CA 2-2 2019, 2.5.4.97 = NTRDE-HRB74346
        Validity
            Not Before: Jun  7 10:23:58 2021 GMT
            Not After : Jun 11 10:23:58 2023 GMT
        Subject: C = DE, O = Robert Koch-Institut, OU = Elektronischer Impfnachweis, CN = Robert Koch-Institut, L = Berlin, postalCode = 13353, street = Nordufer 20, 2.5.4.97 = DT:DE-3023531445, serialNumber = CSM026414081, ST = Berlin
        Subject Public Key Info:
            Public Key Algorithm: id-ecPublicKey
                Public-Key: (256 bit)
                pub:
                    04:68:e8:6e:6a:37:98:df:8a:4f:bb:fd:76:4a:7b:
                    8c:bf:6a:a5:1b:c1:2b:30:e8:fb:b3:47:80:10:cd:
                    ba:ef:d6:15:ce:c8:99:58:b2:29:d5:2d:63:35:6b:
                    28:20:92:53:12:22:d6:52:d8:f5:9a:a0:ac:30:e4:
                    77:80:0e:c2:04
                ASN1 OID: prime256v1
                NIST CURVE: P-256
        X509v3 extensions:
            X509v3 Authority Key Identifier: 
                keyid:71:10:32:AE:74:71:7B:54:8E:F1:D6:AB:62:54:AE:FC:3E:C0:BB:16

            qcStatements: 
                0.0......F..0......F..0......F...
            Authority Information Access: 
                OCSP - URI:http://d-trust-ca-2-2-2019.ocsp.d-trust.net
                CA Issuers - URI:http://www.d-trust.net/cgi-bin/D-TRUST_CA_2-2_2019.crt
                CA Issuers - URI:ldap://directory.d-trust.net/CN=D-TRUST%20CA%202-2%202019,O=D-Trust%20GmbH,C=DE?cACertificate?base?

            X509v3 Certificate Policies: 
                Policy: 0.4.0.194112.1.1
                Policy: 1.3.6.1.4.1.4788.2.150.5
                  CPS: http://www.d-trust.net/internet/files/D-TRUST_CSM_PKI_CPS.pdf

            X509v3 CRL Distribution Points: 

                Full Name:
                  URI:ldap://directory.d-trust.net/CN=D-TRUST%20CA%202-2%202019,O=D-Trust%20GmbH,C=DE?certificaterevocationlist
                  URI:http://crl.d-trust.net/crl/d-trust_ca_2-2_2019.crl
                  URI:http://cdn.d-trust-cloudcrl.net/crl/d-trust_ca_2-2_2019.crl

            X509v3 Subject Key Identifier: 
                81:5C:00:80:6E:04:19:32:00:24:0D:BF:DD:02:94:A1:B2:F3:2D:94
            X509v3 Key Usage: critical
                Digital Signature, Non Repudiation
    Signature Algorithm: rsassaPss
         Hash Algorithm: sha512
         Mask Algorithm: mgf1 with sha512
         Salt Length: 0x40
         Trailer Field: 0xBC (default)

         10:75:cb:33:6a:43:d8:9d:b3:46:e0:b1:fb:b6:00:3d:91:67:
         ae:2a:79:63:2a:ce:d1:f8:cb:bf:8c:08:1a:5e:ef:36:db:c7:
         36:9d:18:84:c7:dc:dd:d8:0c:63:60:55:89:5e:86:84:8f:0c:
         b1:a3:4e:92:7f:27:ff:44:1f:5d:05:b9:d7:ee:81:25:bd:ba:
         b3:f2:9f:bb:64:6f:5c:5c:86:56:d9:5b:f2:90:3a:69:ac:f9:
         07:88:da:e4:c1:c0:fd:d3:b7:5b:3c:63:e1:57:a2:d7:57:6e:
         3e:48:1b:28:9d:56:e0:cc:1e:9a:7b:18:dc:00:5c:2f:25:78:
         2b:ad:80:dc:2e:a5:c0:2e:c7:f5:18:77:32:be:c4:6f:fb:c8:
         05:32:7e:9d:e5:0e:42:4e:51:f9:49:31:5e:64:d3:9d:2a:a3:
         9c:41:a2:0c:08:ab:75:67:3d:da:bb:44:64:e9:8e:f5:67:31:
         e7:8b:fd:ff:01:74:f3:55:33:0e:08:1c:19:7f:e9:89:1a:f2:
         e7:59:2e:51:92:6b:dd:fe:b8:b7:c3:da:71:12:ca:ec:e3:9a:
         3e:08:df:ab:86:b7:f3:57:98:36:f9:84:2e:cc:c8:ce:68:b1:
         04:3f:9f:60:cd:42:27:d0:da:4b:51:2c:8c:a0:e4:8f:19:7e:
         ff:07:87:75:09:f5:cf:6a:1e:0c:7f:cb:17:7d:24:99:d1:72:
         fd:88:da:d0:83:ea:a3:1d:e2:c7:14:27:13:f4:79:1e:52:f9:
         70:ab:61:63:16:a9:a6:8f:dc:ac:90:53:c3:68:d1:79:56:7c:
         18:81:68:99:5c:75:75:27:8a:f4:aa:3f:91:9b:1f:a8:82:c6:
         8e:8b:3d:eb:a5:91:eb:ea:99:1e:7b:16:48:0c:41:b0:64:3f:
         71:32:a1:1b:fb:b0:1b:81:8c:59:95:ff:af:d8:85:06:53:42:
         4e:a2:20:c2:71:c4:35:5b:fe:a2:bc:f6:a2:f2:4e:f1:76:d4:
         00:69:e2:01:52:db:d1:6f:51:e2:e4:0e:3e:0f:33:36:3a:2f:
         9a:da:b8:a0:fa:c1:68:c7:ee:32:d2:a5:87:57:c7:65:a1:93:
         14:5c:27:98:88:45:ba:63:98:e4:fd:dc:6e:60:2a:a9:9c:dc:
         17:74:25:f4:35:ca:b4:2f:51:64:4a:b7:a6:d3:5c:b2:df:3f:
         32:6e:e0:7e:46:3b:be:0c:c6:7d:a4:1a:ec:9e:36:85:4b:73:
         16:dc:6a:6e:50:dd:90:6e:78:67:8f:11:68:12:81:ba:37:49:
         bb:28:c7:9b:d9:cc:98:ce:48:7f:b4:cc:32:90:f9:ab:4f:7e:
         e5:d2:c8:d1:85:a8:94:ba
-----BEGIN CERTIFICATE-----
MIIHUTCCBQmgAwIBAgIQeXagwMyVN/BpMbIabJ0saTA9BgkqhkiG9w0BAQowMKAN
MAsGCWCGSAFlAwQCA6EaMBgGCSqGSIb3DQEBCDALBglghkgBZQMEAgOiAwIBQDBb
MQswCQYDVQQGEwJERTEVMBMGA1UEChMMRC1UcnVzdCBHbWJIMRwwGgYDVQQDExNE
LVRSVVNUIENBIDItMiAyMDE5MRcwFQYDVQRhEw5OVFJERS1IUkI3NDM0NjAeFw0y
MTA2MDcxMDIzNThaFw0yMzA2MTExMDIzNThaMIHrMQswCQYDVQQGEwJERTEdMBsG
A1UEChMUUm9iZXJ0IEtvY2gtSW5zdGl0dXQxJDAiBgNVBAsTG0VsZWt0cm9uaXNj
aGVyIEltcGZuYWNod2VpczEdMBsGA1UEAxMUUm9iZXJ0IEtvY2gtSW5zdGl0dXQx
DzANBgNVBAcTBkJlcmxpbjEOMAwGA1UEEQwFMTMzNTMxFDASBgNVBAkTC05vcmR1
ZmVyIDIwMRkwFwYDVQRhExBEVDpERS0zMDIzNTMxNDQ1MRUwEwYDVQQFEwxDU00w
MjY0MTQwODExDzANBgNVBAgTBkJlcmxpbjBZMBMGByqGSM49AgEGCCqGSM49AwEH
A0IABGjobmo3mN+KT7v9dkp7jL9qpRvBKzDo+7NHgBDNuu/WFc7ImViyKdUtYzVr
KCCSUxIi1lLY9ZqgrDDkd4AOwgSjggLpMIIC5TAfBgNVHSMEGDAWgBRxEDKudHF7
VI7x1qtiVK78PsC7FjAtBggrBgEFBQcBAwQhMB8wCAYGBACORgEBMBMGBgQAjkYB
BjAJBgcEAI5GAQYCMIH+BggrBgEFBQcBAQSB8TCB7jA3BggrBgEFBQcwAYYraHR0
cDovL2QtdHJ1c3QtY2EtMi0yLTIwMTkub2NzcC5kLXRydXN0Lm5ldDBCBggrBgEF
BQcwAoY2aHR0cDovL3d3dy5kLXRydXN0Lm5ldC9jZ2ktYmluL0QtVFJVU1RfQ0Ff
Mi0yXzIwMTkuY3J0MG8GCCsGAQUFBzAChmNsZGFwOi8vZGlyZWN0b3J5LmQtdHJ1
c3QubmV0L0NOPUQtVFJVU1QlMjBDQSUyMDItMiUyMDIwMTksTz1ELVRydXN0JTIw
R21iSCxDPURFP2NBQ2VydGlmaWNhdGU/YmFzZT8wcAYDVR0gBGkwZzAJBgcEAIvs
QAEBMFoGCysGAQQBpTQCgRYFMEswSQYIKwYBBQUHAgEWPWh0dHA6Ly93d3cuZC10
cnVzdC5uZXQvaW50ZXJuZXQvZmlsZXMvRC1UUlVTVF9DU01fUEtJX0NQUy5wZGYw
gfAGA1UdHwSB6DCB5TCB4qCB36CB3IZpbGRhcDovL2RpcmVjdG9yeS5kLXRydXN0
Lm5ldC9DTj1ELVRSVVNUJTIwQ0ElMjAyLTIlMjAyMDE5LE89RC1UcnVzdCUyMEdt
YkgsQz1ERT9jZXJ0aWZpY2F0ZXJldm9jYXRpb25saXN0hjJodHRwOi8vY3JsLmQt
dHJ1c3QubmV0L2NybC9kLXRydXN0X2NhXzItMl8yMDE5LmNybIY7aHR0cDovL2Nk
bi5kLXRydXN0LWNsb3VkY3JsLm5ldC9jcmwvZC10cnVzdF9jYV8yLTJfMjAxOS5j
cmwwHQYDVR0OBBYEFIFcAIBuBBkyACQNv90ClKGy8y2UMA4GA1UdDwEB/wQEAwIG
wDA9BgkqhkiG9w0BAQowMKANMAsGCWCGSAFlAwQCA6EaMBgGCSqGSIb3DQEBCDAL
BglghkgBZQMEAgOiAwIBQAOCAgEAEHXLM2pD2J2zRuCx+7YAPZFnrip5YyrO0fjL
v4wIGl7vNtvHNp0YhMfc3dgMY2BViV6GhI8MsaNOkn8n/0QfXQW51+6BJb26s/Kf
u2RvXFyGVtlb8pA6aaz5B4ja5MHA/dO3Wzxj4Vei11duPkgbKJ1W4MwemnsY3ABc
LyV4K62A3C6lwC7H9Rh3Mr7Eb/vIBTJ+neUOQk5R+UkxXmTTnSqjnEGiDAirdWc9
2rtEZOmO9Wcx54v9/wF081UzDggcGX/piRry51kuUZJr3f64t8PacRLK7OOaPgjf
q4a381eYNvmELszIzmixBD+fYM1CJ9DaS1EsjKDkjxl+/weHdQn1z2oeDH/LF30k
mdFy/Yja0IPqox3ixxQnE/R5HlL5cKthYxappo/crJBTw2jReVZ8GIFomVx1dSeK
9Ko/kZsfqILGjos966WR6+qZHnsWSAxBsGQ/cTKhG/uwG4GMWZX/r9iFBlNCTqIg
wnHENVv+orz2ovJO8XbUAGniAVLb0W9R4uQOPg8zNjovmtq4oPrBaMfuMtKlh1fH
ZaGTFFwnmIhFumOY5P3cbmAqqZzcF3Ql9DXKtC9RZEq3ptNcst8/Mm7gfkY7vgzG
faQa7J42hUtzFtxqblDdkG54Z48RaBKBujdJuyjHm9nMmM5If7TMMpD5q09+5dLI
0YWolLo=
-----END CERTIFICATE-----
