Certificate:
    Data:
        Version: 3 (0x2)
        Serial Number:
            4a:f2:06:c3:ef:2a:c8:68:ae:10:13:92:2b:88:33:e7
    Signature Algorithm: rsassaPss
         Hash Algorithm: sha512
         Mask Algorithm: mgf1 with sha512
         Salt Length: 0x40
         Trailer Field: 0xBC (default)
        Issuer: C = DE, O = D-Trust GmbH, CN = D-TRUST CA 2-2 2019, 2.5.4.97 = NTRDE-HRB74346
        Validity
            Not Before: Jun 11 14:51:25 2021 GMT
            Not After : Jun 15 14:51:25 2023 GMT
        Subject: C = DE, O = Robert Koch-Institut, OU = Elektronischer Impfnachweis, CN = Robert Koch-Institut, L = Berlin, postalCode = 13353, street = Nordufer 20, 2.5.4.97 = DT:DE-3023531445, serialNumber = CSM026460044, ST = Berlin
        Subject Public Key Info:
            Public Key Algorithm: id-ecPublicKey
                Public-Key: (256 bit)
                pub:
                    04:a9:73:c8:97:16:a1:c3:0d:24:81:e8:30:4e:04:
                    4d:41:6a:42:86:a1:f6:3d:f5:de:97:27:75:0f:be:
                    ee:a3:c7:72:d3:cb:65:0e:1b:04:ef:3a:72:cd:65:
                    df:65:35:00:33:13:ed:83:0f:89:4e:a8:9a:2f:51:
                    50:b6:f7:64:c8
                ASN1 OID: prime256v1
                NIST CURVE: P-256
        X509v3 extensions:
            X509v3 Authority Key Identifier: 
                keyid:71:10:32:AE:74:71:7B:54:8E:F1:D6:AB:62:54:AE:FC:3E:C0:BB:16

            qcStatements: 
                0.0......F..0......F..0......F...
            Authority Information Access: 
                OCSP - URI:http://d-trust-ca-2-2-2019.ocsp.d-trust.net
                CA Issuers - URI:http://www.d-trust.net/cgi-bin/D-TRUST_CA_2-2_2019.crt
                CA Issuers - URI:ldap://directory.d-trust.net/CN=D-TRUST%20CA%202-2%202019,O=D-Trust%20GmbH,C=DE?cACertificate?base?

            X509v3 Certificate Policies: 
                Policy: 0.4.0.194112.1.1
                Policy: 1.3.6.1.4.1.4788.2.150.5
                  CPS: http://www.d-trust.net/internet/files/D-TRUST_CSM_PKI_CPS.pdf

            X509v3 CRL Distribution Points: 

                Full Name:
                  URI:ldap://directory.d-trust.net/CN=D-TRUST%20CA%202-2%202019,O=D-Trust%20GmbH,C=DE?certificaterevocationlist
                  URI:http://crl.d-trust.net/crl/d-trust_ca_2-2_2019.crl
                  URI:http://cdn.d-trust-cloudcrl.net/crl/d-trust_ca_2-2_2019.crl

            X509v3 Subject Key Identifier: 
                90:C9:92:80:D1:0F:A5:50:84:D4:CC:99:8E:74:20:07:DF:24:4F:3B
            X509v3 Key Usage: critical
                Digital Signature, Non Repudiation
    Signature Algorithm: rsassaPss
         Hash Algorithm: sha512
         Mask Algorithm: mgf1 with sha512
         Salt Length: 0x40
         Trailer Field: 0xBC (default)

         72:a1:3e:97:25:34:96:41:7e:eb:19:c6:27:27:f9:60:94:26:
         49:77:8e:ed:8c:86:1a:cd:d3:8f:6b:39:1f:f7:76:98:20:72:
         06:4d:26:72:71:00:39:dd:e5:e8:37:38:19:b7:19:dd:ac:f1:
         e2:0f:1d:97:a8:c6:4b:7b:bc:20:9d:19:31:8e:e7:f9:42:b6:
         d7:6a:69:44:19:7e:10:fc:d2:de:9e:6f:19:f3:c1:02:c9:9b:
         6e:72:ac:97:e9:48:89:98:65:32:a7:6e:fe:54:fc:c1:28:d1:
         ef:2a:5c:c8:a1:8a:31:f7:d7:53:a6:6b:59:09:67:a7:3c:52:
         ac:5f:1f:92:dc:a1:63:aa:07:c7:7a:25:7e:91:7a:f0:01:56:
         10:da:7c:4d:d8:a6:b4:db:92:a4:03:dc:e4:14:a9:1f:b2:01:
         e4:4d:70:54:f9:e0:c2:f3:d4:f0:e0:ac:ef:c8:26:ab:73:4a:
         e5:6a:d6:b7:3b:8c:e9:e0:79:9a:32:25:2f:ee:f3:ea:b2:96:
         02:c3:49:cf:2f:50:af:87:f2:73:40:07:7f:8a:c6:20:73:05:
         4e:82:c6:bb:41:66:7c:ee:13:8c:e9:23:94:d7:da:8c:93:e3:
         a9:b6:52:47:61:43:24:49:68:dc:83:9a:92:04:98:7c:bb:98:
         20:06:9c:08:68:02:ec:a1:e1:19:4e:56:0a:3c:53:b3:43:8b:
         86:97:a8:dc:ff:38:71:b4:91:1b:03:72:c4:17:8a:2f:a5:d9:
         ba:02:bb:88:22:61:63:59:45:c2:e9:ba:9a:ff:74:8c:9d:b5:
         e9:85:62:fc:de:73:e4:d8:23:4c:c6:a4:cb:70:68:3c:9c:2b:
         85:23:08:11:00:79:b2:10:cd:a7:5e:08:e4:84:57:fd:cf:3b:
         3f:ff:aa:a6:50:2e:35:25:71:40:c0:39:b1:7e:20:5e:67:b8:
         68:11:93:1e:01:3e:0a:2c:f4:03:4f:14:bd:11:d1:89:17:03:
         ce:37:45:c3:d5:c1:f5:d0:0d:f3:39:8d:55:74:4c:2f:2a:84:
         56:32:4d:13:76:e4:b7:b9:64:38:04:8b:dd:e6:c1:fa:a7:31:
         96:39:54:5e:23:6e:76:22:26:1f:6d:41:26:63:b9:cd:b6:3d:
         a9:16:d6:23:08:58:7b:24:52:65:50:94:55:61:1d:6f:07:5c:
         c7:14:93:13:ee:ef:63:54:72:4d:2f:af:5f:de:66:18:c2:8c:
         dd:cf:f1:4c:09:01:09:12:89:fe:96:82:79:b6:91:b1:45:e0:
         28:cf:e2:bb:11:30:b2:47:3f:89:e7:b3:01:4f:f2:d7:da:c3:
         c6:ba:01:2d:60:dd:ff:41
-----BEGIN CERTIFICATE-----
MIIHUTCCBQmgAwIBAgIQSvIGw+8qyGiuEBOSK4gz5zA9BgkqhkiG9w0BAQowMKAN
MAsGCWCGSAFlAwQCA6EaMBgGCSqGSIb3DQEBCDALBglghkgBZQMEAgOiAwIBQDBb
MQswCQYDVQQGEwJERTEVMBMGA1UEChMMRC1UcnVzdCBHbWJIMRwwGgYDVQQDExNE
LVRSVVNUIENBIDItMiAyMDE5MRcwFQYDVQRhEw5OVFJERS1IUkI3NDM0NjAeFw0y
MTA2MTExNDUxMjVaFw0yMzA2MTUxNDUxMjVaMIHrMQswCQYDVQQGEwJERTEdMBsG
A1UEChMUUm9iZXJ0IEtvY2gtSW5zdGl0dXQxJDAiBgNVBAsTG0VsZWt0cm9uaXNj
aGVyIEltcGZuYWNod2VpczEdMBsGA1UEAxMUUm9iZXJ0IEtvY2gtSW5zdGl0dXQx
DzANBgNVBAcTBkJlcmxpbjEOMAwGA1UEEQwFMTMzNTMxFDASBgNVBAkTC05vcmR1
ZmVyIDIwMRkwFwYDVQRhExBEVDpERS0zMDIzNTMxNDQ1MRUwEwYDVQQFEwxDU00w
MjY0NjAwNDQxDzANBgNVBAgTBkJlcmxpbjBZMBMGByqGSM49AgEGCCqGSM49AwEH
A0IABKlzyJcWocMNJIHoME4ETUFqQoah9j313pcndQ++7qPHctPLZQ4bBO86cs1l
32U1ADMT7YMPiU6omi9RULb3ZMijggLpMIIC5TAfBgNVHSMEGDAWgBRxEDKudHF7
VI7x1qtiVK78PsC7FjAtBggrBgEFBQcBAwQhMB8wCAYGBACORgEBMBMGBgQAjkYB
BjAJBgcEAI5GAQYCMIH+BggrBgEFBQcBAQSB8TCB7jA3BggrBgEFBQcwAYYraHR0
cDovL2QtdHJ1c3QtY2EtMi0yLTIwMTkub2NzcC5kLXRydXN0Lm5ldDBCBggrBgEF
BQcwAoY2aHR0cDovL3d3dy5kLXRydXN0Lm5ldC9jZ2ktYmluL0QtVFJVU1RfQ0Ff
Mi0yXzIwMTkuY3J0MG8GCCsGAQUFBzAChmNsZGFwOi8vZGlyZWN0b3J5LmQtdHJ1
c3QubmV0L0NOPUQtVFJVU1QlMjBDQSUyMDItMiUyMDIwMTksTz1ELVRydXN0JTIw
R21iSCxDPURFP2NBQ2VydGlmaWNhdGU/YmFzZT8wcAYDVR0gBGkwZzAJBgcEAIvs
QAEBMFoGCysGAQQBpTQCgRYFMEswSQYIKwYBBQUHAgEWPWh0dHA6Ly93d3cuZC10
cnVzdC5uZXQvaW50ZXJuZXQvZmlsZXMvRC1UUlVTVF9DU01fUEtJX0NQUy5wZGYw
gfAGA1UdHwSB6DCB5TCB4qCB36CB3IZpbGRhcDovL2RpcmVjdG9yeS5kLXRydXN0
Lm5ldC9DTj1ELVRSVVNUJTIwQ0ElMjAyLTIlMjAyMDE5LE89RC1UcnVzdCUyMEdt
YkgsQz1ERT9jZXJ0aWZpY2F0ZXJldm9jYXRpb25saXN0hjJodHRwOi8vY3JsLmQt
dHJ1c3QubmV0L2NybC9kLXRydXN0X2NhXzItMl8yMDE5LmNybIY7aHR0cDovL2Nk
bi5kLXRydXN0LWNsb3VkY3JsLm5ldC9jcmwvZC10cnVzdF9jYV8yLTJfMjAxOS5j
cmwwHQYDVR0OBBYEFJDJkoDRD6VQhNTMmY50IAffJE87MA4GA1UdDwEB/wQEAwIG
wDA9BgkqhkiG9w0BAQowMKANMAsGCWCGSAFlAwQCA6EaMBgGCSqGSIb3DQEBCDAL
BglghkgBZQMEAgOiAwIBQAOCAgEAcqE+lyU0lkF+6xnGJyf5YJQmSXeO7YyGGs3T
j2s5H/d2mCByBk0mcnEAOd3l6Dc4GbcZ3azx4g8dl6jGS3u8IJ0ZMY7n+UK212pp
RBl+EPzS3p5vGfPBAsmbbnKsl+lIiZhlMqdu/lT8wSjR7ypcyKGKMffXU6ZrWQln
pzxSrF8fktyhY6oHx3olfpF68AFWENp8TdimtNuSpAPc5BSpH7IB5E1wVPngwvPU
8OCs78gmq3NK5WrWtzuM6eB5mjIlL+7z6rKWAsNJzy9Qr4fyc0AHf4rGIHMFToLG
u0FmfO4TjOkjlNfajJPjqbZSR2FDJElo3IOakgSYfLuYIAacCGgC7KHhGU5WCjxT
s0OLhpeo3P84cbSRGwNyxBeKL6XZugK7iCJhY1lFwum6mv90jJ216YVi/N5z5Ngj
TMaky3BoPJwrhSMIEQB5shDNp14I5IRX/c87P/+qplAuNSVxQMA5sX4gXme4aBGT
HgE+Ciz0A08UvRHRiRcDzjdFw9XB9dAN8zmNVXRMLyqEVjJNE3bkt7lkOASL3ebB
+qcxljlUXiNudiImH21BJmO5zbY9qRbWIwhYeyRSZVCUVWEdbwdcxxSTE+7vY1Ry
TS+vX95mGMKM3c/xTAkBCRKJ/paCebaRsUXgKM/iuxEwskc/ieezAU/y19rDxroB
LWDd/0E=
-----END CERTIFICATE-----
