Certificate:
    Data:
        Version: 3 (0x2)
        Serial Number:
            3d:72:83:32:f5:9a:57:0b:7b
    Signature Algorithm: ecdsa-with-SHA256
        Issuer: CN = EADTrust ECC 256 SubCA For Qualified Certificates 2019, O = "European Agency of Digital Trust, S.L.", C = ES, 2.5.4.97 = VATES-B85626240, OU = Legal Person
        Validity
            Not Before: May 27 10:00:00 2021 GMT
            Not After : May 27 10:00:00 2023 GMT
        Subject: CN = FIRMA CERTIFICADO COVID DIGITAL UE 1, serialNumber = Q2801221I, OU = SELLO ELECTRONICO, OU = DG SISTEMAS DE INFORMACION Y EQUIPAMIENTOS SANITARIOS, 2.5.4.97 = VATES-Q2801221I, O = SERVICIO MADRILE\C3\91O DE SALUD, C = ES
        Subject Public Key Info:
            Public Key Algorithm: id-ecPublicKey
                Public-Key: (256 bit)
                pub:
                    04:85:ef:a4:be:69:76:b7:1f:fe:ff:08:a9:1d:1e:
                    6d:b5:2c:35:3d:d9:96:18:ba:68:12:ac:cd:89:e9:
                    76:99:6b:19:a2:f7:d2:05:1f:89:ce:b8:bb:36:91:
                    fc:b3:c4:41:4a:71:03:73:49:10:4e:5d:9d:4a:21:
                    02:cb:d0:f8:e5
                ASN1 OID: prime256v1
                NIST CURVE: P-256
        X509v3 extensions:
            X509v3 Basic Constraints: critical
                CA:FALSE
            X509v3 Authority Key Identifier: 
                keyid:D3:4C:6C:3A:BD:36:FE:70:87:23:87:3A:EE:3D:90:CF:CB:9B:F7:21

            Authority Information Access: 
                CA Issuers - URI:http://ca.eadtrust.eu/eadtrust-subca-ecc256eadlp2019.crt
                OCSP - URI:http://ocsp.eadtrust.eu

            X509v3 Issuer Alternative Name: 
                email:ca@eadtrust.eu, URI:http://www.eadtrust.eu, URI:http://ca.eadtrust.eu, URI:http://policy.eadtrust.eu
            X509v3 Subject Alternative Name: 
                DirName:/2.16.724.1.3.5.6.2.1=SELLO ELECTRONICO DE NIVEL MEDIO/2.16.724.1.3.5.6.2.2=: SERVICIO MADRILE\xC3\x91O DE SALUD/2.16.724.1.3.5.6.2.3=Q2801221I
            X509v3 Certificate Policies: 
                Policy: 2.16.724.1.3.5.6.2
                Policy: 0.4.0.194112.1.1
                  User Notice:
                    Explicit Text: European Telecommunications Standards Institute. eIDAS European Regulation Compliant
                Policy: 1.3.6.1.4.1.501.2.1.1.0.41233
                  CPS: http://policy.eadtrust.eu
                  User Notice:
                    Explicit Text: Certificado cualificado de sello electrónico de Administración, órgano o entidad de derecho público, nivel Medio/Sustancial. Consulte las condiciones de uso en http://policy.eadtrust.eu

            X509v3 Extended Key Usage: 
                TLS Web Client Authentication, E-mail Protection
            qcStatements: 
                0..0...+.......0.......I..0......F..0......F.....0......F..0......F...0l.....F..0b00.*https://eadtrust.eu/en/documents-in-force/..en0..(https://eadtrust.eu/documentos-vigentes/..es
            X509v3 CRL Distribution Points: 

                Full Name:
                  URI:http://crl.eadtrust.eu/eadtrust-subca-ecc256eadlp2019.crl

            X509v3 Subject Key Identifier: 
                C9:40:18:D1:BD:E8:80:EF:2D:56:A1:77:FE:D0:93:34:00:6E:31:2E
            X509v3 Key Usage: critical
                Digital Signature, Non Repudiation, Key Encipherment
    Signature Algorithm: ecdsa-with-SHA256
         30:44:02:20:61:52:33:32:7d:7e:b8:77:ff:cc:1b:28:a5:e3:
         cd:08:bf:1b:cc:b8:96:ca:05:0c:8f:55:54:c9:33:85:55:c6:
         02:20:32:48:52:cb:a0:c3:7c:c6:21:d1:9b:36:b0:5c:d4:9b:
         e9:8f:06:e1:29:97:3a:bc:f0:a2:62:62:28:4a:50:fa
-----BEGIN CERTIFICATE-----
MIIHLzCCBtagAwIBAgIJPXKDMvWaVwt7MAoGCCqGSM49BAMCMIGwMT8wPQYDVQQD
DDZFQURUcnVzdCBFQ0MgMjU2IFN1YkNBIEZvciBRdWFsaWZpZWQgQ2VydGlmaWNh
dGVzIDIwMTkxLzAtBgNVBAoMJkV1cm9wZWFuIEFnZW5jeSBvZiBEaWdpdGFsIFRy
dXN0LCBTLkwuMQswCQYDVQQGEwJFUzEYMBYGA1UEYQwPVkFURVMtQjg1NjI2MjQw
MRUwEwYDVQQLDAxMZWdhbCBQZXJzb24wHhcNMjEwNTI3MTAwMDAwWhcNMjMwNTI3
MTAwMDAwWjCB7TEtMCsGA1UEAwwkRklSTUEgQ0VSVElGSUNBRE8gQ09WSUQgRElH
SVRBTCBVRSAxMRIwEAYDVQQFEwlRMjgwMTIyMUkxGjAYBgNVBAsMEVNFTExPIEVM
RUNUUk9OSUNPMT4wPAYDVQQLDDVERyBTSVNURU1BUyBERSBJTkZPUk1BQ0lPTiBZ
IEVRVUlQQU1JRU5UT1MgU0FOSVRBUklPUzEYMBYGA1UEYQwPVkFURVMtUTI4MDEy
MjFJMSUwIwYDVQQKDBxTRVJWSUNJTyBNQURSSUxFw5FPIERFIFNBTFVEMQswCQYD
VQQGEwJFUzBZMBMGByqGSM49AgEGCCqGSM49AwEHA0IABIXvpL5pdrcf/v8IqR0e
bbUsNT3Zlhi6aBKszYnpdplrGaL30gUfic64uzaR/LPEQUpxA3NJEE5dnUohAsvQ
+OWjggSYMIIElDAMBgNVHRMBAf8EAjAAMB8GA1UdIwQYMBaAFNNMbDq9Nv5whyOH
Ou49kM/Lm/chMHkGCCsGAQUFBwEBBG0wazBEBggrBgEFBQcwAoY4aHR0cDovL2Nh
LmVhZHRydXN0LmV1L2VhZHRydXN0LXN1YmNhLWVjYzI1NmVhZGxwMjAxOS5jcnQw
IwYIKwYBBQUHMAGGF2h0dHA6Ly9vY3NwLmVhZHRydXN0LmV1MGMGA1UdEgRcMFqB
DmNhQGVhZHRydXN0LmV1hhZodHRwOi8vd3d3LmVhZHRydXN0LmV1hhVodHRwOi8v
Y2EuZWFkdHJ1c3QuZXWGGWh0dHA6Ly9wb2xpY3kuZWFkdHJ1c3QuZXUwgYgGA1Ud
EQSBgDB+pHwwejEvMC0GCWCFVAEDBQYCAQwgU0VMTE8gRUxFQ1RST05JQ08gREUg
TklWRUwgTUVESU8xLTArBglghVQBAwUGAgIMHjogU0VSVklDSU8gTUFEUklMRcOR
TyBERSBTQUxVRDEYMBYGCWCFVAEDBQYCAwwJUTI4MDEyMjFJMIIBmAYDVR0gBIIB
jzCCAYswCgYIYIVUAQMFBgIwbwYHBACL7EABATBkMGIGCCsGAQUFBwICMFYMVEV1
cm9wZWFuIFRlbGVjb21tdW5pY2F0aW9ucyBTdGFuZGFyZHMgSW5zdGl0dXRlLiBl
SURBUyBFdXJvcGVhbiBSZWd1bGF0aW9uIENvbXBsaWFudDCCAQoGDisGAQQBg3UC
AQEAgsIRMIH3MCUGCCsGAQUFBwIBFhlodHRwOi8vcG9saWN5LmVhZHRydXN0LmV1
MIHNBggrBgEFBQcCAjCBwAyBvUNlcnRpZmljYWRvIGN1YWxpZmljYWRvIGRlIHNl
bGxvIGVsZWN0csOzbmljbyBkZSBBZG1pbmlzdHJhY2nDs24sIMOzcmdhbm8gbyBl
bnRpZGFkIGRlIGRlcmVjaG8gcMO6YmxpY28sIG5pdmVsIE1lZGlvL1N1c3RhbmNp
YWwuIENvbnN1bHRlIGxhcyBjb25kaWNpb25lcyBkZSB1c28gZW4gaHR0cDovL3Bv
bGljeS5lYWR0cnVzdC5ldTAdBgNVHSUEFjAUBggrBgEFBQcDAgYIKwYBBQUHAwQw
gcEGCCsGAQUFBwEDBIG0MIGxMBUGCCsGAQUFBwsCMAkGBwQAi+xJAQIwCAYGBACO
RgEBMAsGBgQAjkYBAwIBDzATBgYEAI5GAQYwCQYHBACORgEGAjBsBgYEAI5GAQUw
YjAwFipodHRwczovL2VhZHRydXN0LmV1L2VuL2RvY3VtZW50cy1pbi1mb3JjZS8T
AmVuMC4WKGh0dHBzOi8vZWFkdHJ1c3QuZXUvZG9jdW1lbnRvcy12aWdlbnRlcy8T
AmVzMEoGA1UdHwRDMEEwP6A9oDuGOWh0dHA6Ly9jcmwuZWFkdHJ1c3QuZXUvZWFk
dHJ1c3Qtc3ViY2EtZWNjMjU2ZWFkbHAyMDE5LmNybDAdBgNVHQ4EFgQUyUAY0b3o
gO8tVqF3/tCTNABuMS4wDgYDVR0PAQH/BAQDAgXgMAoGCCqGSM49BAMCA0cAMEQC
IGFSMzJ9frh3/8wbKKXjzQi/G8y4lsoFDI9VVMkzhVXGAiAySFLLoMN8xiHRmzaw
XNSb6Y8G4SmXOrzwomJiKEpQ+g==
-----END CERTIFICATE-----
