Certificate:
    Data:
        Version: 3 (0x2)
        Serial Number: 3942626524911459623 (0x36b705ef7b615d27)
    Signature Algorithm: ecdsa-with-SHA256
        Issuer: CN = Poland DGC RootCSCA 1, O = Ministry of Health, C = PL
        Validity
            Not Before: May 26 11:49:49 2021 GMT
            Not After : May 26 11:49:49 2023 GMT
        Subject: CN = Recovery DGC Service 1, OU = eHealth Centre, O = Ministry of Health, C = PL
        Subject Public Key Info:
            Public Key Algorithm: id-ecPublicKey
                Public-Key: (256 bit)
                pub:
                    04:77:1b:d6:31:fb:a4:e8:21:c2:6d:f7:d9:58:f4:
                    ba:6d:18:15:62:09:58:74:40:f5:35:3d:45:09:f5:
                    ec:b5:46:7c:d4:05:a6:60:e8:7a:b5:b6:60:38:5f:
                    4e:33:59:73:a9:da:45:0f:5b:8e:98:46:74:03:c5:
                    d7:62:69:01:d4
                ASN1 OID: prime256v1
                NIST CURVE: P-256
        X509v3 extensions:
            X509v3 Authority Key Identifier: 
                keyid:91:79:A2:DA:68:81:12:C0:A3:74:1A:A4:BA:DD:EB:0F:99:EC:8B:01

            X509v3 Extended Key Usage: 
                1.3.6.1.4.1.1847.2021.1.3
            X509v3 CRL Distribution Points: 

                Full Name:
                  URI:http://p1.ezdrowie.gov.pl/ccp1/crl/DGCRootCSCA1.crl

            X509v3 Subject Key Identifier: 
                F3:C3:09:B4:3F:ED:81:E1:44:AA:96:FE:1D:EA:FC:EA:52:37:1B:75
            X509v3 Private Key Usage Period: 
                Not Before: May 26 11:49:49 2021 GMT, Not After: May 26 11:49:49 2022 GMT
            X509v3 Key Usage: 
                Digital Signature
    Signature Algorithm: ecdsa-with-SHA256
         30:45:02:21:00:c0:e9:44:43:48:c2:db:11:86:85:3f:55:75:
         6d:f0:e5:64:31:39:68:03:6c:f0:57:23:82:16:46:9d:a7:6b:
         1f:02:20:6c:27:ba:83:04:95:e4:f0:0c:c0:65:cc:82:d6:df:
         f4:8b:4f:ce:01:71:57:ae:e6:67:3b:c7:f9:ab:d7:39:c9
-----BEGIN CERTIFICATE-----
MIICgDCCAiagAwIBAgIINrcF73thXScwCgYIKoZIzj0EAwIwSjEeMBwGA1UEAwwV
UG9sYW5kIERHQyBSb290Q1NDQSAxMRswGQYDVQQKDBJNaW5pc3RyeSBvZiBIZWFs
dGgxCzAJBgNVBAYTAlBMMB4XDTIxMDUyNjExNDk0OVoXDTIzMDUyNjExNDk0OVow
ZDEfMB0GA1UEAwwWUmVjb3ZlcnkgREdDIFNlcnZpY2UgMTEXMBUGA1UECwwOZUhl
YWx0aCBDZW50cmUxGzAZBgNVBAoMEk1pbmlzdHJ5IG9mIEhlYWx0aDELMAkGA1UE
BhMCUEwwWTATBgcqhkjOPQIBBggqhkjOPQMBBwNCAAR3G9Yx+6ToIcJt99lY9Lpt
GBViCVh0QPU1PUUJ9ey1RnzUBaZg6Hq1tmA4X04zWXOp2kUPW46YRnQDxddiaQHU
o4HbMIHYMB8GA1UdIwQYMBaAFJF5otpogRLAo3QapLrd6w+Z7IsBMBYGA1UdJQQP
MA0GCysGAQQBjjePZQEDMEQGA1UdHwQ9MDswOaA3oDWGM2h0dHA6Ly9wMS5lemRy
b3dpZS5nb3YucGwvY2NwMS9jcmwvREdDUm9vdENTQ0ExLmNybDAdBgNVHQ4EFgQU
88MJtD/tgeFEqpb+Her86lI3G3UwKwYDVR0QBCQwIoAPMjAyMTA1MjYxMTQ5NDla
gQ8yMDIyMDUyNjExNDk0OVowCwYDVR0PBAQDAgeAMAoGCCqGSM49BAMCA0gAMEUC
IQDA6URDSMLbEYaFP1V1bfDlZDE5aANs8FcjghZGnadrHwIgbCe6gwSV5PAMwGXM
gtbf9ItPzgFxV67mZzvH+avXOck=
-----END CERTIFICATE-----
