Certificate:
    Data:
        Version: 3 (0x2)
        Serial Number:
            6f:bd:b8:a5:e5:35:dd:d7:4a:d9:48:9a:5d:f6:7c:94:90:37:2a:90
    Signature Algorithm: ecdsa-with-SHA256
        Issuer: CN = CSCA Saude, serialNumber = 001, O = Republica Portuguesa - Portuguese Republic, C = PT
        Validity
            Not Before: May 21 16:17:11 2021 GMT
            Not After : May 21 16:17:10 2023 GMT
        Subject: CN = DGC DS, serialNumber = 001, O = Republica Portuguesa - Portuguese Republic, C = PT
        Subject Public Key Info:
            Public Key Algorithm: id-ecPublicKey
                Public-Key: (256 bit)
                pub:
                    04:9e:32:bc:03:c6:ad:a3:dd:34:6b:ec:10:d4:86:
                    b1:27:26:9e:50:64:39:97:0b:18:38:24:65:ab:8e:
                    d7:e0:32:86:7b:e3:f7:2f:6d:ae:b5:87:06:4d:6b:
                    42:7a:40:6a:6a:b7:04:cf:34:87:1f:f5:fe:b3:96:
                    9e:11:08:18:60
                ASN1 OID: prime256v1
                NIST CURVE: P-256
        X509v3 extensions:
            X509v3 Basic Constraints: critical
                CA:FALSE
            X509v3 Authority Key Identifier: 
                keyid:7E:32:BC:6F:97:2E:F9:5F:EB:D0:15:47:67:9F:89:8C:CA:21:68:0E

            X509v3 Subject Key Identifier: 
                25:62:2B:94:A2:39:80:14:36:23:02:6A:30:6A:40:5B:81:EA:9E:35
            X509v3 Key Usage: critical
                Digital Signature
    Signature Algorithm: ecdsa-with-SHA256
         30:46:02:21:00:b7:bf:a0:81:88:09:d4:97:85:d3:ce:1f:bc:
         85:88:f0:14:47:f1:61:8d:d5:fe:76:c0:b2:bd:4f:00:9b:8a:
         4b:02:21:00:d8:7b:40:ef:c6:4e:de:32:ec:ec:1a:08:82:1f:
         b1:67:97:ea:68:96:c2:20:53:1d:c1:5c:dd:27:f8:42:bd:66
-----BEGIN CERTIFICATE-----
MIICKTCCAc6gAwIBAgIUb724peU13ddK2UiaXfZ8lJA3KpAwCgYIKoZIzj0EAwIw
ZTETMBEGA1UEAwwKQ1NDQSBTYXVkZTEMMAoGA1UEBRMDMDAxMTMwMQYDVQQKDCpS
ZXB1YmxpY2EgUG9ydHVndWVzYSAtIFBvcnR1Z3Vlc2UgUmVwdWJsaWMxCzAJBgNV
BAYTAlBUMB4XDTIxMDUyMTE2MTcxMVoXDTIzMDUyMTE2MTcxMFowYTEPMA0GA1UE
AwwGREdDIERTMQwwCgYDVQQFEwMwMDExMzAxBgNVBAoMKlJlcHVibGljYSBQb3J0
dWd1ZXNhIC0gUG9ydHVndWVzZSBSZXB1YmxpYzELMAkGA1UEBhMCUFQwWTATBgcq
hkjOPQIBBggqhkjOPQMBBwNCAASeMrwDxq2j3TRr7BDUhrEnJp5QZDmXCxg4JGWr
jtfgMoZ74/cvba61hwZNa0J6QGpqtwTPNIcf9f6zlp4RCBhgo2AwXjAMBgNVHRMB
Af8EAjAAMB8GA1UdIwQYMBaAFH4yvG+XLvlf69AVR2efiYzKIWgOMB0GA1UdDgQW
BBQlYiuUojmAFDYjAmowakBbgeqeNTAOBgNVHQ8BAf8EBAMCB4AwCgYIKoZIzj0E
AwIDSQAwRgIhALe/oIGICdSXhdPOH7yFiPAUR/FhjdX+dsCyvU8Am4pLAiEA2HtA
78ZO3jLs7BoIgh+xZ5fqaJbCIFMdwVzdJ/hCvWY=
-----END CERTIFICATE-----
