Certificate:
    Data:
        Version: 3 (0x2)
        Serial Number:
            73:86:76:d6:c9:19:67:c5:f2:d3:b5:1b:18:ea:27:40:98:7f:de:e6
    Signature Algorithm: sha256WithRSAEncryption
        Issuer: C = FR, O = Gouv, CN = CSCA-FRANCE
        Validity
            Not Before: Aug 12 22:00:00 2021 GMT
            Not After : Aug 12 22:00:00 2023 GMT
        Subject: C = FR, O = DGS, OU = 120036017, CN = DSC_FR_015
        Subject Public Key Info:
            Public Key Algorithm: id-ecPublicKey
                Public-Key: (256 bit)
                pub:
                    04:d3:14:e0:1b:e2:29:c4:ab:06:e3:76:9a:d5:b1:
                    9a:e6:d4:5f:0b:d5:82:da:80:a4:03:4f:09:cf:cb:
                    c7:72:b6:1c:89:53:aa:ad:e1:e4:c9:c1:d1:17:41:
                    08:33:d3:ba:1b:d2:c2:07:2a:5a:b6:24:37:56:82:
                    83:91:45:70:23
                ASN1 OID: prime256v1
                NIST CURVE: P-256
        X509v3 extensions:
            X509v3 Subject Key Identifier: 
                F0:23:EF:60:CB:C5:65:7E:75:42:3C:04:B0:BE:91:99:5A:D8:84:28
            X509v3 Authority Key Identifier: 
                keyid:BE:8A:2E:D6:C9:F9:20:4E:3A:27:03:08:97:4D:EC:FD:D9:7D:C5:E6

            X509v3 Basic Constraints: critical
                CA:FALSE
            X509v3 Key Usage: critical
                Digital Signature
            X509v3 CRL Distribution Points: 

                Full Name:
                  URI:http://ants.gouv.fr/csca_crl

            X509v3 Certificate Policies: 
                Policy: 1.2.250.1.200.31.3.9.1.1

            Authority Information Access: 
                CA Issuers - URI:https://ant.gouv.fr/csca

    Signature Algorithm: sha256WithRSAEncryption
         9f:84:ca:5f:a5:f6:81:65:02:e4:06:e4:f5:5d:92:56:55:f3:
         32:fd:4c:6a:ba:72:21:3f:28:e3:25:e8:f1:0a:76:2e:a5:80:
         79:2e:8c:94:29:eb:88:d7:af:92:b4:d4:f1:18:d1:cc:2f:b4:
         bb:dd:25:b2:c0:34:a0:17:03:f4:b6:da:0b:2b:57:e2:19:52:
         ad:38:17:f1:72:f3:cf:e9:18:ae:85:b8:24:75:79:54:6e:85:
         d6:dd:ac:d5:2d:40:74:cb:86:71:9c:5b:29:dd:9b:a9:69:30:
         42:a4:14:0d:01:a0:b7:d2:d1:00:c7:46:44:66:f3:81:97:73:
         06:44:7a:9f:47:a4:9d:51:cf:9a:32:3d:1b:89:ba:a6:db:d2:
         7c:84:e6:40:7b:4e:75:27:01:8d:17:ec:bb:3b:4a:4b:74:39:
         26:02:0d:eb:74:1b:07:69:33:6f:03:a0:1c:c9:14:55:f5:69:
         bc:bc:1e:9b:7f:6d:09:5e:6d:e6:bd:5b:60:77:28:9d:52:04:
         93:4c:c2:76:04:ea:af:1b:30:ec:26:66:b9:ab:bb:e1:e2:71:
         59:c4:f0:d1:1a:9f:4d:cb:55:94:f0:cc:c6:50:85:22:96:ff:
         d4:24:a0:de:c5:fa:b2:41:dc:c1:38:5f:23:1d:70:98:fe:01:
         c6:5e:b3:90:1f:b3:19:e8:0a:5d:1b:4e:fe:45:8f:11:e0:0c:
         59:e7:53:89:c8:64:30:fc:a3:c5:75:4e:97:2d:26:83:b7:24:
         d7:a6:d1:b1:97:62:4f:21:a8:a4:d5:3b:4d:35:1d:ff:a4:07:
         43:56:9e:bb:b6:29:3b:12:7f:10:20:2a:84:76:ff:8e:ab:30:
         5b:c5:5a:c5:44:79:96:ed:b4:9e:89:7f:1a:4a:e9:39:db:2a:
         47:4c:04:7a:32:4b:2d:54:dc:5d:e4:9d:26:cc:fc:41:a9:05:
         56:6b:62:c3:cb:8b:c6:90:59:fe:a9:0d:bf:b6:c5:69:74:92:
         4b:43:07:dc:8b:1e:2b:10:fd:64:6b:39:ba:9d:6a:93:cb:2a:
         03:11:4d:4c:33:d8:b9:cb:f0:ef:fc:69:00:c0:c7:97:3e:a7:
         fd:53:2d:b3:fd:05:b2:8d:af:a6:7b:4e:83:23:8d:a1:7f:c7:
         8b:37:7e:ae:1d:c3:12:d7:43:13:db:f7:a2:db:0e:22:dd:45:
         0b:81:ed:0d:c8:dd:be:c2:68:d1:eb:12:89:1c:4b:bd:3f:e2:
         d7:72:2d:63:8a:4d:f7:15:bc:06:64:a5:d5:6f:5b:88:ed:8f:
         e2:53:e3:48:04:e3:e0:1d:07:c4:bc:1b:8a:0c:3b:c7:0b:eb:
         e1:de:bf:6c:ad:a5:de:08
-----BEGIN CERTIFICATE-----
MIIEGjCCAgKgAwIBAgIUc4Z21skZZ8Xy07UbGOonQJh/3uYwDQYJKoZIhvcNAQEL
BQAwMjELMAkGA1UEBhMCRlIxDTALBgNVBAoMBEdvdXYxFDASBgNVBAMMC0NTQ0Et
RlJBTkNFMB4XDTIxMDgxMjIyMDAwMFoXDTIzMDgxMjIyMDAwMFowRDELMAkGA1UE
BhMCRlIxDDAKBgNVBAoMA0RHUzESMBAGA1UECwwJMTIwMDM2MDE3MRMwEQYDVQQD
DApEU0NfRlJfMDE1MFkwEwYHKoZIzj0CAQYIKoZIzj0DAQcDQgAE0xTgG+IpxKsG
43aa1bGa5tRfC9WC2oCkA08Jz8vHcrYciVOqreHkycHRF0EIM9O6G9LCBypatiQ3
VoKDkUVwI6OB4DCB3TAdBgNVHQ4EFgQU8CPvYMvFZX51QjwEsL6RmVrYhCgwHwYD
VR0jBBgwFoAUvoou1sn5IE46JwMIl03s/dl9xeYwDAYDVR0TAQH/BAIwADAOBgNV
HQ8BAf8EBAMCB4AwLQYDVR0fBCYwJDAioCCgHoYcaHR0cDovL2FudHMuZ291di5m
ci9jc2NhX2NybDAYBgNVHSAEETAPMA0GCyqBegGBSB8DCQEBMDQGCCsGAQUFBwEB
BCgwJjAkBggrBgEFBQcwAoYYaHR0cHM6Ly9hbnQuZ291di5mci9jc2NhMA0GCSqG
SIb3DQEBCwUAA4ICAQCfhMpfpfaBZQLkBuT1XZJWVfMy/UxqunIhPyjjJejxCnYu
pYB5LoyUKeuI16+StNTxGNHML7S73SWywDSgFwP0ttoLK1fiGVKtOBfxcvPP6Riu
hbgkdXlUboXW3azVLUB0y4ZxnFsp3ZupaTBCpBQNAaC30tEAx0ZEZvOBl3MGRHqf
R6SdUc+aMj0bibqm29J8hOZAe051JwGNF+y7O0pLdDkmAg3rdBsHaTNvA6AcyRRV
9Wm8vB6bf20JXm3mvVtgdyidUgSTTMJ2BOqvGzDsJma5q7vh4nFZxPDRGp9Ny1WU
8MzGUIUilv/UJKDexfqyQdzBOF8jHXCY/gHGXrOQH7MZ6ApdG07+RY8R4AxZ51OJ
yGQw/KPFdU6XLSaDtyTXptGxl2JPIaik1TtNNR3/pAdDVp67tik7En8QICqEdv+O
qzBbxVrFRHmW7bSeiX8aSuk52ypHTAR6MkstVNxd5J0mzPxBqQVWa2LDy4vGkFn+
qQ2/tsVpdJJLQwfcix4rEP1kazm6nWqTyyoDEU1MM9i5y/Dv/GkAwMeXPqf9Uy2z
/QWyja+me06DI42hf8eLN36uHcMS10MT2/ei2w4i3UULge0NyN2+wmjR6xKJHEu9
P+LXci1jik33FbwGZKXVb1uI7Y/iU+NIBOPgHQfEvBuKDDvHC+vh3r9sraXeCA==
-----END CERTIFICATE-----
