Certificate:
    Data:
        Version: 3 (0x2)
        Serial Number:
            64:eb:7e:fa:af:96:42:d2:e5:f4:71:e3:ae:83:1f:27
    Signature Algorithm: rsassaPss
         Hash Algorithm: sha512
         Mask Algorithm: mgf1 with sha512
         Salt Length: 0x40
         Trailer Field: 0xBC (default)
        Issuer: C = DE, O = D-Trust GmbH, CN = D-TRUST CA 2-2 2019, 2.5.4.97 = NTRDE-HRB74346
        Validity
            Not Before: Jun  7 09:53:12 2021 GMT
            Not After : Jun 11 09:53:12 2023 GMT
        Subject: C = DE, O = Robert Koch-Institut, OU = Elektronischer Impfnachweis, CN = Robert Koch-Institut, L = Berlin, postalCode = 13353, street = Nordufer 20, 2.5.4.97 = DT:DE-3023531445, serialNumber = CSM026413347, ST = Berlin
        Subject Public Key Info:
            Public Key Algorithm: id-ecPublicKey
                Public-Key: (256 bit)
                pub:
                    04:b3:39:3e:97:40:55:a0:33:97:66:0e:52:29:e7:
                    8d:6c:b5:00:82:0a:8b:28:1d:9a:dc:d9:4c:5d:67:
                    f1:7d:d7:1d:1e:c3:ea:aa:52:96:70:54:d9:07:30:
                    f7:fe:42:32:c4:98:b9:ae:5c:64:d5:49:36:26:c1:
                    4d:11:b8:ed:ef
                ASN1 OID: prime256v1
                NIST CURVE: P-256
        X509v3 extensions:
            X509v3 Authority Key Identifier: 
                keyid:71:10:32:AE:74:71:7B:54:8E:F1:D6:AB:62:54:AE:FC:3E:C0:BB:16

            qcStatements: 
                0.0......F..0......F..0......F...
            Authority Information Access: 
                OCSP - URI:http://d-trust-ca-2-2-2019.ocsp.d-trust.net
                CA Issuers - URI:http://www.d-trust.net/cgi-bin/D-TRUST_CA_2-2_2019.crt
                CA Issuers - URI:ldap://directory.d-trust.net/CN=D-TRUST%20CA%202-2%202019,O=D-Trust%20GmbH,C=DE?cACertificate?base?

            X509v3 Certificate Policies: 
                Policy: 0.4.0.194112.1.1
                Policy: 1.3.6.1.4.1.4788.2.150.5
                  CPS: http://www.d-trust.net/internet/files/D-TRUST_CSM_PKI_CPS.pdf

            X509v3 CRL Distribution Points: 

                Full Name:
                  URI:ldap://directory.d-trust.net/CN=D-TRUST%20CA%202-2%202019,O=D-Trust%20GmbH,C=DE?certificaterevocationlist
                  URI:http://crl.d-trust.net/crl/d-trust_ca_2-2_2019.crl
                  URI:http://cdn.d-trust-cloudcrl.net/crl/d-trust_ca_2-2_2019.crl

            X509v3 Subject Key Identifier: 
                3F:B3:72:62:04:DA:C2:AC:E9:23:5B:0B:45:6B:E4:D7:70:A6:32:B5
            X509v3 Key Usage: critical
                Digital Signature, Non Repudiation
    Signature Algorithm: rsassaPss
         Hash Algorithm: sha512
         Mask Algorithm: mgf1 with sha512
         Salt Length: 0x40
         Trailer Field: 0xBC (default)

         0d:75:9f:f1:0e:84:8a:60:f3:2c:40:41:c9:67:fe:ba:b7:67:
         bb:86:cb:d0:d5:9b:54:bd:df:47:11:19:b0:97:99:e8:12:35:
         22:75:b6:3b:7c:53:20:b2:4b:87:49:1b:d8:19:73:58:56:47:
         86:fd:bc:74:75:db:ef:9b:b6:fb:17:1b:98:46:2a:c6:0b:32:
         e8:2b:d6:26:86:ae:7c:40:66:6a:bf:a7:5d:7e:d8:03:59:f0:
         39:ed:ce:2d:e4:05:5a:1f:2d:e0:e6:ce:8c:03:35:0f:fb:15:
         2b:5b:6d:42:f0:fe:99:cd:5c:c3:fe:63:52:d1:6e:c8:30:6e:
         40:30:87:80:56:4e:cf:90:90:6e:81:97:07:c2:5b:c7:05:3b:
         54:02:09:d1:5a:d9:c8:c1:79:bd:55:80:e0:a0:e8:7a:4f:82:
         b8:86:d5:9a:2a:f2:a7:c1:f2:66:7c:07:15:43:66:4e:34:8b:
         b5:9c:40:60:10:4e:97:b8:c0:75:ec:5c:8b:38:49:36:e7:3c:
         00:ea:37:1c:9d:77:74:6b:8a:fc:ab:94:43:85:1d:b4:9f:ef:
         e3:a5:d7:3e:8b:88:e7:29:e1:87:56:42:33:4b:a6:67:97:51:
         a4:8c:cc:c7:e4:e5:f4:cc:59:b3:e3:58:cf:59:5e:03:18:ac:
         d5:85:ba:dc:2e:f8:c2:59:e6:e1:4e:1b:ad:7f:54:bc:98:64:
         f6:be:ef:b9:9e:0a:0c:d4:d0:f5:47:f6:5c:97:0c:4a:74:ba:
         52:6b:6d:16:54:02:25:a4:dc:ec:bf:79:be:9f:60:bd:78:e3:
         c7:21:c4:93:02:ec:dc:f9:a7:41:19:a8:af:b0:23:3c:62:2c:
         22:86:53:e7:38:f6:18:73:8f:c4:8f:d1:5a:73:8f:56:9a:dc:
         f5:6d:0c:0c:70:e3:a1:66:dc:28:00:5e:e8:fc:fa:78:1b:c6:
         ef:04:4d:d6:35:e1:a4:58:6b:0d:f7:6b:c1:84:c3:7d:27:0f:
         a5:c4:41:70:da:93:28:7b:9f:d1:af:0d:1a:b3:40:fe:b4:ad:
         45:d3:fd:ac:61:72:2e:1d:d2:41:30:65:48:4a:ff:bd:9c:c4:
         f6:3b:ef:d2:27:eb:00:ce:e8:a0:3c:3d:aa:c2:9f:1c:ca:33:
         6f:03:92:b4:1a:3c:72:36:5f:c6:61:5a:3d:37:59:a4:19:f7:
         13:6a:b7:dc:47:58:99:1f:06:35:09:28:ab:9a:bd:28:2c:01:
         0d:a6:a0:6c:80:a0:59:c5:b6:7e:76:7a:05:e6:35:68:21:2c:
         69:bc:9e:d8:e7:9c:1d:79:0a:67:6a:33:b4:55:fa:e8:b7:79:
         d3:36:43:e2:fa:48:1b:86
-----BEGIN CERTIFICATE-----
MIIHUTCCBQmgAwIBAgIQZOt++q+WQtLl9HHjroMfJzA9BgkqhkiG9w0BAQowMKAN
MAsGCWCGSAFlAwQCA6EaMBgGCSqGSIb3DQEBCDALBglghkgBZQMEAgOiAwIBQDBb
MQswCQYDVQQGEwJERTEVMBMGA1UEChMMRC1UcnVzdCBHbWJIMRwwGgYDVQQDExNE
LVRSVVNUIENBIDItMiAyMDE5MRcwFQYDVQRhEw5OVFJERS1IUkI3NDM0NjAeFw0y
MTA2MDcwOTUzMTJaFw0yMzA2MTEwOTUzMTJaMIHrMQswCQYDVQQGEwJERTEdMBsG
A1UEChMUUm9iZXJ0IEtvY2gtSW5zdGl0dXQxJDAiBgNVBAsTG0VsZWt0cm9uaXNj
aGVyIEltcGZuYWNod2VpczEdMBsGA1UEAxMUUm9iZXJ0IEtvY2gtSW5zdGl0dXQx
DzANBgNVBAcTBkJlcmxpbjEOMAwGA1UEEQwFMTMzNTMxFDASBgNVBAkTC05vcmR1
ZmVyIDIwMRkwFwYDVQRhExBEVDpERS0zMDIzNTMxNDQ1MRUwEwYDVQQFEwxDU00w
MjY0MTMzNDcxDzANBgNVBAgTBkJlcmxpbjBZMBMGByqGSM49AgEGCCqGSM49AwEH
A0IABLM5PpdAVaAzl2YOUinnjWy1AIIKiygdmtzZTF1n8X3XHR7D6qpSlnBU2Qcw
9/5CMsSYua5cZNVJNibBTRG47e+jggLpMIIC5TAfBgNVHSMEGDAWgBRxEDKudHF7
VI7x1qtiVK78PsC7FjAtBggrBgEFBQcBAwQhMB8wCAYGBACORgEBMBMGBgQAjkYB
BjAJBgcEAI5GAQYCMIH+BggrBgEFBQcBAQSB8TCB7jA3BggrBgEFBQcwAYYraHR0
cDovL2QtdHJ1c3QtY2EtMi0yLTIwMTkub2NzcC5kLXRydXN0Lm5ldDBCBggrBgEF
BQcwAoY2aHR0cDovL3d3dy5kLXRydXN0Lm5ldC9jZ2ktYmluL0QtVFJVU1RfQ0Ff
Mi0yXzIwMTkuY3J0MG8GCCsGAQUFBzAChmNsZGFwOi8vZGlyZWN0b3J5LmQtdHJ1
c3QubmV0L0NOPUQtVFJVU1QlMjBDQSUyMDItMiUyMDIwMTksTz1ELVRydXN0JTIw
R21iSCxDPURFP2NBQ2VydGlmaWNhdGU/YmFzZT8wcAYDVR0gBGkwZzAJBgcEAIvs
QAEBMFoGCysGAQQBpTQCgRYFMEswSQYIKwYBBQUHAgEWPWh0dHA6Ly93d3cuZC10
cnVzdC5uZXQvaW50ZXJuZXQvZmlsZXMvRC1UUlVTVF9DU01fUEtJX0NQUy5wZGYw
gfAGA1UdHwSB6DCB5TCB4qCB36CB3IZpbGRhcDovL2RpcmVjdG9yeS5kLXRydXN0
Lm5ldC9DTj1ELVRSVVNUJTIwQ0ElMjAyLTIlMjAyMDE5LE89RC1UcnVzdCUyMEdt
YkgsQz1ERT9jZXJ0aWZpY2F0ZXJldm9jYXRpb25saXN0hjJodHRwOi8vY3JsLmQt
dHJ1c3QubmV0L2NybC9kLXRydXN0X2NhXzItMl8yMDE5LmNybIY7aHR0cDovL2Nk
bi5kLXRydXN0LWNsb3VkY3JsLm5ldC9jcmwvZC10cnVzdF9jYV8yLTJfMjAxOS5j
cmwwHQYDVR0OBBYEFD+zcmIE2sKs6SNbC0Vr5NdwpjK1MA4GA1UdDwEB/wQEAwIG
wDA9BgkqhkiG9w0BAQowMKANMAsGCWCGSAFlAwQCA6EaMBgGCSqGSIb3DQEBCDAL
BglghkgBZQMEAgOiAwIBQAOCAgEADXWf8Q6EimDzLEBByWf+urdnu4bL0NWbVL3f
RxEZsJeZ6BI1InW2O3xTILJLh0kb2BlzWFZHhv28dHXb75u2+xcbmEYqxgsy6CvW
JoaufEBmar+nXX7YA1nwOe3OLeQFWh8t4ObOjAM1D/sVK1ttQvD+mc1cw/5jUtFu
yDBuQDCHgFZOz5CQboGXB8JbxwU7VAIJ0VrZyMF5vVWA4KDoek+CuIbVmiryp8Hy
ZnwHFUNmTjSLtZxAYBBOl7jAdexcizhJNuc8AOo3HJ13dGuK/KuUQ4UdtJ/v46XX
PouI5ynhh1ZCM0umZ5dRpIzMx+Tl9MxZs+NYz1leAxis1YW63C74wlnm4U4brX9U
vJhk9r7vuZ4KDNTQ9Uf2XJcMSnS6UmttFlQCJaTc7L95vp9gvXjjxyHEkwLs3Pmn
QRmor7AjPGIsIoZT5zj2GHOPxI/RWnOPVprc9W0MDHDjoWbcKABe6Pz6eBvG7wRN
1jXhpFhrDfdrwYTDfScPpcRBcNqTKHuf0a8NGrNA/rStRdP9rGFyLh3SQTBlSEr/
vZzE9jvv0ifrAM7ooDw9qsKfHMozbwOStBo8cjZfxmFaPTdZpBn3E2q33EdYmR8G
NQkoq5q9KCwBDaagbICgWcW2fnZ6BeY1aCEsabye2OecHXkKZ2oztFX66Ld50zZD
4vpIG4Y=
-----END CERTIFICATE-----
