Certificate:
    Data:
        Version: 3 (0x2)
        Serial Number:
            6c:db:45:87:94:b2:34:d5:b7:e9:38:f7:95:21:ac:55:9d:72:cc:99
    Signature Algorithm: sha256WithRSAEncryption
        Issuer: C = FR, O = Gouv, CN = CSCA-FRANCE
        Validity
            Not Before: Jun 10 22:00:00 2021 GMT
            Not After : Jun 10 22:00:00 2023 GMT
        Subject: C = FR, O = APHP, OU = 26750045200011, CN = DSC_FR_001
        Subject Public Key Info:
            Public Key Algorithm: id-ecPublicKey
                Public-Key: (256 bit)
                pub:
                    04:46:e3:ea:03:c3:d7:c0:06:65:6f:73:27:22:7f:
                    b7:51:a8:d8:d8:98:d1:92:de:2f:de:b2:38:9d:4b:
                    90:8e:1d:b7:9d:96:7f:de:b0:ea:68:9f:09:6e:8c:
                    3e:a4:a1:60:75:60:39:d6:c6:7a:a5:02:32:21:7e:
                    fa:c1:87:eb:0a
                ASN1 OID: prime256v1
                NIST CURVE: P-256
        X509v3 extensions:
            X509v3 Subject Key Identifier: 
                92:A7:D5:AC:D7:E6:B0:CB:35:50:1F:CD:03:40:B7:29:51:31:DC:EE
            X509v3 Authority Key Identifier: 
                keyid:BE:8A:2E:D6:C9:F9:20:4E:3A:27:03:08:97:4D:EC:FD:D9:7D:C5:E6

            X509v3 Basic Constraints: critical
                CA:FALSE
            X509v3 Key Usage: critical
                Digital Signature
            X509v3 CRL Distribution Points: 

                Full Name:
                  URI:http://ants.gouv.fr/csca_crl

            X509v3 Certificate Policies: 
                Policy: 1.2.250.1.200.31.3.9.1.1

            Authority Information Access: 
                CA Issuers - URI:https://ant.gouv.fr/csca

    Signature Algorithm: sha256WithRSAEncryption
         21:38:c2:d8:85:69:f5:89:5e:37:8d:db:95:45:18:af:81:54:
         f5:8d:8c:07:9a:8b:a3:ee:77:df:f9:2e:e0:56:7c:62:22:55:
         f9:da:37:3f:56:64:03:97:ac:4e:66:30:47:50:18:91:4d:1a:
         a3:6a:7d:6d:74:7d:4b:bc:17:e0:d4:7a:19:5a:fd:c7:68:2e:
         47:6d:f9:0c:bb:49:ea:22:d1:39:cd:b1:70:b4:91:ac:52:91:
         d1:4d:23:ff:c2:b8:ea:2f:cd:e8:e5:a9:24:47:c5:30:fe:22:
         18:86:42:ef:b8:42:87:df:f6:6a:c1:96:11:c0:e2:7f:37:25:
         c9:9c:a8:11:b8:7b:e0:b0:bd:33:6f:07:f9:5f:61:1d:6e:a6:
         93:b4:30:c6:1c:70:9b:83:af:28:f0:2a:a4:43:f8:2e:04:fd:
         23:28:75:c1:15:68:1b:a0:c4:01:d9:ba:ee:aa:e1:aa:54:ed:
         b1:28:86:48:53:61:37:b1:cd:dd:84:d6:c3:60:60:f7:29:f8:
         09:6d:d1:6d:9d:b2:12:bf:16:88:7e:70:a7:dd:a9:d9:b5:08:
         28:9d:2b:07:73:42:d6:22:98:28:6d:8f:8d:c5:74:8d:7c:12:
         b3:20:27:48:df:9d:21:86:69:c7:cf:63:52:d9:5b:6b:17:45:
         da:e7:d9:19:77:f5:8c:3d:c3:b3:95:f2:a2:e9:a5:48:fd:8f:
         8b:72:9b:a3:78:ef:6e:8e:51:46:35:4e:9a:33:18:b6:b3:d4:
         56:cb:7d:6d:8d:6c:6c:3a:6a:ff:b1:b1:0a:17:6e:58:1a:e4:
         d6:c2:fa:9e:fc:c8:17:ce:96:d3:17:40:b5:95:57:00:45:76:
         81:55:3f:10:d7:c9:cd:6c:b2:ca:fd:52:c0:b7:38:cb:61:36:
         e5:14:ce:33:75:70:39:66:77:c2:a9:70:ea:65:96:ad:86:4c:
         b2:7f:c6:98:fe:cb:c3:10:bc:51:39:59:bb:d8:5f:46:9d:80:
         bf:3a:a9:c6:78:23:9e:77:e2:2c:72:9f:27:7b:c1:d4:4e:04:
         f4:88:d1:62:01:1d:69:47:3d:b9:bf:4e:3b:40:51:3b:1b:b8:
         f0:a3:86:13:03:ec:a7:c0:2c:67:55:aa:0a:de:99:32:7c:88:
         97:b2:dc:8f:c4:ca:6e:dd:0e:ed:f7:46:eb:fe:60:0f:0c:25:
         83:1c:5a:6f:c6:ab:cf:71:19:4c:a5:dd:e9:e4:97:23:8a:ea:
         c6:ad:e1:9b:8a:f8:0f:74:96:06:44:f6:d6:6f:f2:b0:a7:ff:
         7d:00:2a:99:14:0f:05:68:62:fb:68:ff:a2:bc:03:ba:70:1b:
         fa:0c:d1:76:5d:7b:e8:c3
-----BEGIN CERTIFICATE-----
MIIEIDCCAgigAwIBAgIUbNtFh5SyNNW36Tj3lSGsVZ1yzJkwDQYJKoZIhvcNAQEL
BQAwMjELMAkGA1UEBhMCRlIxDTALBgNVBAoMBEdvdXYxFDASBgNVBAMMC0NTQ0Et
RlJBTkNFMB4XDTIxMDYxMDIyMDAwMFoXDTIzMDYxMDIyMDAwMFowSjELMAkGA1UE
BhMCRlIxDTALBgNVBAoMBEFQSFAxFzAVBgNVBAsMDjI2NzUwMDQ1MjAwMDExMRMw
EQYDVQQDDApEU0NfRlJfMDAxMFkwEwYHKoZIzj0CAQYIKoZIzj0DAQcDQgAERuPq
A8PXwAZlb3MnIn+3UajY2JjRkt4v3rI4nUuQjh23nZZ/3rDqaJ8Jbow+pKFgdWA5
1sZ6pQIyIX76wYfrCqOB4DCB3TAdBgNVHQ4EFgQUkqfVrNfmsMs1UB/NA0C3KVEx
3O4wHwYDVR0jBBgwFoAUvoou1sn5IE46JwMIl03s/dl9xeYwDAYDVR0TAQH/BAIw
ADAOBgNVHQ8BAf8EBAMCB4AwLQYDVR0fBCYwJDAioCCgHoYcaHR0cDovL2FudHMu
Z291di5mci9jc2NhX2NybDAYBgNVHSAEETAPMA0GCyqBegGBSB8DCQEBMDQGCCsG
AQUFBwEBBCgwJjAkBggrBgEFBQcwAoYYaHR0cHM6Ly9hbnQuZ291di5mci9jc2Nh
MA0GCSqGSIb3DQEBCwUAA4ICAQAhOMLYhWn1iV43jduVRRivgVT1jYwHmouj7nff
+S7gVnxiIlX52jc/VmQDl6xOZjBHUBiRTRqjan1tdH1LvBfg1HoZWv3HaC5HbfkM
u0nqItE5zbFwtJGsUpHRTSP/wrjqL83o5akkR8Uw/iIYhkLvuEKH3/ZqwZYRwOJ/
NyXJnKgRuHvgsL0zbwf5X2EdbqaTtDDGHHCbg68o8CqkQ/guBP0jKHXBFWgboMQB
2bruquGqVO2xKIZIU2E3sc3dhNbDYGD3KfgJbdFtnbISvxaIfnCn3anZtQgonSsH
c0LWIpgobY+NxXSNfBKzICdI350hhmnHz2NS2VtrF0Xa59kZd/WMPcOzlfKi6aVI
/Y+LcpujeO9ujlFGNU6aMxi2s9RWy31tjWxsOmr/sbEKF25YGuTWwvqe/MgXzpbT
F0C1lVcARXaBVT8Q18nNbLLK/VLAtzjLYTblFM4zdXA5ZnfCqXDqZZathkyyf8aY
/svDELxROVm72F9GnYC/OqnGeCOed+Iscp8ne8HUTgT0iNFiAR1pRz25v047QFE7
G7jwo4YTA+ynwCxnVaoK3pkyfIiXstyPxMpu3Q7t90br/mAPDCWDHFpvxqvPcRlM
pd3p5JcjiurGreGbivgPdJYGRPbWb/Kwp/99ACqZFA8FaGL7aP+ivAO6cBv6DNF2
XXvoww==
-----END CERTIFICATE-----
