Certificate:
    Data:
        Version: 3 (0x2)
        Serial Number: 1162912965785808457 (0x10237f2e565bee49)
    Signature Algorithm: ecdsa-with-SHA256
        Issuer: C = LI, L = Vaduz, O = Liechtensteinische Landesverwaltung, CN = DGC-NB-CSCA-PROD-20210608, emailAddress = webmaster@llv.li
        Validity
            Not Before: Jun  8 07:54:00 2021 GMT
            Not After : Jun  8 07:54:00 2023 GMT
        Subject: C = LI, L = Vaduz, O = Liechtensteinische Landesverwaltung, CN = DGC-NB-DSC-VACCINATION-PROD-20210608, emailAddress = webmaster@llv.li
        Subject Public Key Info:
            Public Key Algorithm: id-ecPublicKey
                Public-Key: (256 bit)
                pub:
                    04:94:73:93:29:03:de:dc:66:4a:08:02:2c:68:16:
                    cf:a4:07:c9:67:7d:1f:b4:85:2c:6f:fa:fa:80:7b:
                    b5:f5:c2:36:d5:73:1f:89:90:d0:b8:8d:f0:7b:cd:
                    9e:ce:c9:b2:8c:bf:e3:7e:bd:73:95:16:2a:5c:b9:
                    9b:a8:ea:e4:24
                ASN1 OID: prime256v1
                NIST CURVE: P-256
        X509v3 extensions:
            X509v3 Basic Constraints: critical
                CA:FALSE
            X509v3 Subject Key Identifier: 
                37:06:F1:5C:8E:C1:BA:44:46:AA:C0:44:8D:71:95:B5:06:33:53:C0
            X509v3 Authority Key Identifier: 
                keyid:F4:9E:78:7C:16:DF:0E:7B:04:53:0C:D6:9A:78:34:28:1C:4D:DF:85

            X509v3 Key Usage: critical
                Digital Signature
            X509v3 CRL Distribution Points: 

                Full Name:
                  URI:http://crl.llv.li/DGC-NB-CSCA-PROD-20210608

            Netscape Comment: 
                xca certificate
            X509v3 Extended Key Usage: 
                1.3.6.1.4.1.1847.2021.1.2
    Signature Algorithm: ecdsa-with-SHA256
         30:44:02:20:41:27:7c:1e:52:82:66:ad:ba:09:6e:44:e0:46:
         e1:0d:3a:71:57:41:ba:50:e8:e1:2e:2f:40:95:ce:d2:58:f6:
         02:20:01:32:d2:e9:e6:90:50:03:f7:12:f6:4b:0a:95:89:02:
         ba:3f:d7:d9:34:e7:33:7c:88:3e:19:e0:68:43:7f:ec
-----BEGIN CERTIFICATE-----
MIIC+jCCAqGgAwIBAgIIECN/LlZb7kkwCgYIKoZIzj0EAwIwgZAxCzAJBgNVBAYT
AkxJMQ4wDAYDVQQHEwVWYWR1ejEsMCoGA1UEChMjTGllY2h0ZW5zdGVpbmlzY2hl
IExhbmRlc3ZlcndhbHR1bmcxIjAgBgNVBAMTGURHQy1OQi1DU0NBLVBST0QtMjAy
MTA2MDgxHzAdBgkqhkiG9w0BCQEWEHdlYm1hc3RlckBsbHYubGkwHhcNMjEwNjA4
MDc1NDAwWhcNMjMwNjA4MDc1NDAwWjCBmzELMAkGA1UEBhMCTEkxDjAMBgNVBAcT
BVZhZHV6MSwwKgYDVQQKEyNMaWVjaHRlbnN0ZWluaXNjaGUgTGFuZGVzdmVyd2Fs
dHVuZzEtMCsGA1UEAxMkREdDLU5CLURTQy1WQUNDSU5BVElPTi1QUk9ELTIwMjEw
NjA4MR8wHQYJKoZIhvcNAQkBFhB3ZWJtYXN0ZXJAbGx2LmxpMFkwEwYHKoZIzj0C
AQYIKoZIzj0DAQcDQgAElHOTKQPe3GZKCAIsaBbPpAfJZ30ftIUsb/r6gHu19cI2
1XMfiZDQuI3we82ezsmyjL/jfr1zlRYqXLmbqOrkJKOB1zCB1DAMBgNVHRMBAf8E
AjAAMB0GA1UdDgQWBBQ3BvFcjsG6REaqwESNcZW1BjNTwDAfBgNVHSMEGDAWgBT0
nnh8Ft8OewRTDNaaeDQoHE3fhTAOBgNVHQ8BAf8EBAMCB4AwPAYDVR0fBDUwMzAx
oC+gLYYraHR0cDovL2NybC5sbHYubGkvREdDLU5CLUNTQ0EtUFJPRC0yMDIxMDYw
ODAeBglghkgBhvhCAQ0EERYPeGNhIGNlcnRpZmljYXRlMBYGA1UdJQQPMA0GCysG
AQQBjjePZQECMAoGCCqGSM49BAMCA0cAMEQCIEEnfB5SgmatugluROBG4Q06cVdB
ulDo4S4vQJXO0lj2AiABMtLp5pBQA/cS9ksKlYkCuj/X2TTnM3yIPhngaEN/7A==
-----END CERTIFICATE-----
