Certificate:
    Data:
        Version: 3 (0x2)
        Serial Number: 504560785 (0x1e12fc91)
    Signature Algorithm: sha256WithRSAEncryption
        Issuer: C = FI, O = Vaestorekisterikeskus CA, OU = Sosiaali- ja terveydenhuollon palveluvarmenteet, CN = VRK CA for Social Welfare and Health Care Service Providers
        Validity
            Not Before: Jun 18 11:00:00 2021 GMT
            Not After : Jun 18 20:59:59 2023 GMT
        Subject: C = FI, ST = Finland, L = Helsinki, O = Kansanelakelaitos, OU = Kanta, serialNumber = 1.2.246.556.12.21.2, CN = Todistuspalvelu
        Subject Public Key Info:
            Public Key Algorithm: id-ecPublicKey
                Public-Key: (256 bit)
                pub:
                    04:7a:92:9c:2d:f9:d3:64:87:a3:f6:04:8d:25:59:
                    91:f2:c4:58:30:c8:33:b6:71:bd:87:46:46:5b:1e:
                    c3:d5:7d:60:df:65:7f:1a:d2:5c:e7:91:e4:a0:7f:
                    af:aa:46:e4:84:a2:67:bc:30:49:d4:97:6c:6e:42:
                    8a:98:12:5b:d9
                ASN1 OID: prime256v1
                NIST CURVE: P-256
        X509v3 extensions:
            X509v3 Authority Key Identifier: 
                keyid:1D:24:45:C1:0A:47:6C:62:4B:FC:67:A0:69:9F:FC:85:9F:B0:71:CB

            X509v3 Subject Key Identifier: 
                5D:E6:83:3D:62:6F:E6:26:D9:8D:4F:14:3B:25:F2:94:A9:65:5C:3C
            X509v3 Key Usage: critical
                Digital Signature, Non Repudiation
            X509v3 Certificate Policies: 
                Policy: 0.4.0.2042.1.7
                Policy: 1.2.246.517.1.10.10.2
                  CPS: http://www.fineid.fi/cps9/
                  User Notice:
                    Explicit Text: Varmennepolitiikka on saatavilla - Certifikat policy finns - Certificate policy is available http://www.fineid.fi/cps9

            X509v3 Subject Alternative Name: 
                email:tekninentuki@kanta.fi
            X509v3 Basic Constraints: critical
                CA:FALSE
            X509v3 CRL Distribution Points: 

                Full Name:
                  URI:http://proxy.fineid.fi/crl/vrkshspc.crl

            X509v3 Extended Key Usage: 
                1.3.6.1.4.1.0.1847.2021.1.1, 1.3.6.1.4.1.0.1847.2021.1.2, 1.3.6.1.4.1.0.1847.2021.1.3
            Authority Information Access: 
                CA Issuers - URI:http://proxy.fineid.fi/ca/vrkshsp.crt
                OCSP - URI:http://ocsp.fineid.fi/vrkshsp

    Signature Algorithm: sha256WithRSAEncryption
         03:c3:bf:8c:93:eb:0d:ec:4f:5d:f8:36:79:e5:32:e5:70:1e:
         e8:dd:22:03:fa:70:a8:e2:e8:f2:b1:21:7b:cc:73:2e:8a:01:
         50:67:67:3f:81:70:37:62:f1:8d:0c:b4:46:87:db:77:53:a1:
         c1:57:cd:10:96:2a:35:bd:df:a7:75:95:04:ef:d0:33:5b:3c:
         17:7b:b7:da:95:c5:36:76:40:5c:7c:07:75:fe:23:36:6e:8d:
         cf:0d:a7:36:0b:28:2d:c0:ec:82:26:56:95:43:b3:f2:73:7b:
         45:1d:65:01:b6:94:a2:8f:7f:e7:c9:8c:c8:67:3c:4e:2e:0b:
         3a:aa:f4:68:f4:18:40:15:65:c8:e5:ce:0c:bc:f5:10:b1:08:
         7f:97:39:e9:c2:6e:c6:2c:d1:5f:b9:28:2e:8a:54:14:14:9b:
         73:9c:ae:9f:c2:ae:5f:a2:89:13:c8:1c:bd:62:00:3d:90:63:
         d3:2a:06:9a:15:61:57:00:68:e6:b4:79:97:64:8a:c7:2b:76:
         f2:46:81:a6:39:f9:d0:54:40:66:ed:dc:16:3e:f1:c6:13:7e:
         c2:ca:13:d1:d0:1f:4a:fe:f5:d0:2c:ca:fc:a8:e9:f1:0f:97:
         5c:df:8a:ae:2c:36:02:c4:6e:8f:f7:d1:f4:60:64:18:fc:dd:
         99:32:f4:98:8d:cf:ff:6c:73:5f:0d:48:40:38:2d:b3:72:a6:
         25:d1:59:9c:cf:76:c7:de:ed:b3:15:16:a2:a8:9e:76:2e:82:
         cd:43:38:f5:fb:39:87:47:a1:19:d6:cf:75:88:9f:2d:04:52:
         3e:20:ce:1e:77:68:8c:17:7b:5a:86:9c:ed:e3:13:3b:1e:57:
         9d:03:50:43:f4:04:69:0e:3d:fb:f9:94:bc:f6:15:31:74:b9:
         54:7f:d4:3b:aa:6d:ce:2f:87:1d:9d:0d:25:89:d9:4f:81:88:
         c7:05:de:d0:4d:ba:71:60:75:87:1f:45:39:d8:02:f3:68:04:
         bc:26:1b:d2:3d:8a:70:f9:b8:36:38:63:40:e9:33:a7:c5:7c:
         b5:9f:82:71:bb:88:48:2e:7c:e6:80:89:3f:bb:f2:68:55:56:
         49:e9:48:ae:0c:29:09:17:d9:fa:2e:fc:6a:d3:9a:ed:61:e9:
         95:09:0b:cd:1c:18:f2:43:34:36:33:70:8c:0d:65:af:01:50:
         4b:0e:1f:e7:7f:78:b0:89:6a:e7:2b:3d:f3:2f:87:a7:5f:33:
         c5:95:e4:f6:b8:a8:66:3f:d5:4c:4c:4f:8e:9a:4e:96:94:02:
         eb:4a:e1:16:01:46:f6:d1:9f:eb:b8:22:11:c0:96:e2:34:ee:
         1f:97:63:0e:a8:5c:28:a1
-----BEGIN CERTIFICATE-----
MIIGOTCCBCGgAwIBAgIEHhL8kTANBgkqhkiG9w0BAQsFADCBsDELMAkGA1UEBhMC
RkkxITAfBgNVBAoTGFZhZXN0b3Jla2lzdGVyaWtlc2t1cyBDQTE4MDYGA1UECxMv
U29zaWFhbGktIGphIHRlcnZleWRlbmh1b2xsb24gcGFsdmVsdXZhcm1lbnRlZXQx
RDBCBgNVBAMTO1ZSSyBDQSBmb3IgU29jaWFsIFdlbGZhcmUgYW5kIEhlYWx0aCBD
YXJlIFNlcnZpY2UgUHJvdmlkZXJzMB4XDTIxMDYxODExMDAwMFoXDTIzMDYxODIw
NTk1OVowgZYxCzAJBgNVBAYTAkZJMRAwDgYDVQQIDAdGaW5sYW5kMREwDwYDVQQH
DAhIZWxzaW5raTEaMBgGA1UECgwRS2Fuc2FuZWxha2VsYWl0b3MxDjAMBgNVBAsM
BUthbnRhMRwwGgYDVQQFExMxLjIuMjQ2LjU1Ni4xMi4yMS4yMRgwFgYDVQQDDA9U
b2Rpc3R1c3BhbHZlbHUwWTATBgcqhkjOPQIBBggqhkjOPQMBBwNCAAR6kpwt+dNk
h6P2BI0lWZHyxFgwyDO2cb2HRkZbHsPVfWDfZX8a0lznkeSgf6+qRuSEome8MEnU
l2xuQoqYElvZo4ICPDCCAjgwHwYDVR0jBBgwFoAUHSRFwQpHbGJL/GegaZ/8hZ+w
ccswHQYDVR0OBBYEFF3mgz1ib+Ym2Y1PFDsl8pSpZVw8MA4GA1UdDwEB/wQEAwIG
wDCB1QYDVR0gBIHNMIHKMAgGBgQAj3oBBzCBvQYJKoF2hAUBCgoCMIGvMCYGCCsG
AQUFBwIBFhpodHRwOi8vd3d3LmZpbmVpZC5maS9jcHM5LzCBhAYIKwYBBQUHAgIw
eBp2VmFybWVubmVwb2xpdGlpa2thIG9uIHNhYXRhdmlsbGEgLSBDZXJ0aWZpa2F0
IHBvbGljeSBmaW5ucyAtIENlcnRpZmljYXRlIHBvbGljeSBpcyBhdmFpbGFibGUg
aHR0cDovL3d3dy5maW5laWQuZmkvY3BzOTAgBgNVHREEGTAXgRV0ZWtuaW5lbnR1
a2lAa2FudGEuZmkwDwYDVR0TAQH/BAUwAwEBADA4BgNVHR8EMTAvMC2gK6Aphido
dHRwOi8vcHJveHkuZmluZWlkLmZpL2NybC92cmtzaHNwYy5jcmwwMwYDVR0lBCww
KgYMKwYBBAEAjjePZQEBBgwrBgEEAQCON49lAQIGDCsGAQQBAI43j2UBAzBsBggr
BgEFBQcBAQRgMF4wMQYIKwYBBQUHMAKGJWh0dHA6Ly9wcm94eS5maW5laWQuZmkv
Y2EvdnJrc2hzcC5jcnQwKQYIKwYBBQUHMAGGHWh0dHA6Ly9vY3NwLmZpbmVpZC5m
aS92cmtzaHNwMA0GCSqGSIb3DQEBCwUAA4ICAQADw7+Mk+sN7E9d+DZ55TLlcB7o
3SID+nCo4ujysSF7zHMuigFQZ2c/gXA3YvGNDLRGh9t3U6HBV80Qlio1vd+ndZUE
79AzWzwXe7falcU2dkBcfAd1/iM2bo3PDac2CygtwOyCJlaVQ7Pyc3tFHWUBtpSi
j3/nyYzIZzxOLgs6qvRo9BhAFWXI5c4MvPUQsQh/lznpwm7GLNFfuSguilQUFJtz
nK6fwq5fookTyBy9YgA9kGPTKgaaFWFXAGjmtHmXZIrHK3byRoGmOfnQVEBm7dwW
PvHGE37CyhPR0B9K/vXQLMr8qOnxD5dc34quLDYCxG6P99H0YGQY/N2ZMvSYjc//
bHNfDUhAOC2zcqYl0Vmcz3bH3u2zFRaiqJ52LoLNQzj1+zmHR6EZ1s91iJ8tBFI+
IM4ed2iMF3tahpzt4xM7HledA1BD9ARpDj37+ZS89hUxdLlUf9Q7qm3OL4cdnQ0l
idlPgYjHBd7QTbpxYHWHH0U52ALzaAS8JhvSPYpw+bg2OGNA6TOnxXy1n4Jxu4hI
LnzmgIk/u/JoVVZJ6UiuDCkJF9n6Lvxq05rtYemVCQvNHBjyQzQ2M3CMDWWvAVBL
Dh/nf3iwiWrnKz3zL4enXzPFleT2uKhmP9VMTE+Omk6WlALrSuEWAUb20Z/ruCIR
wJbiNO4fl2MOqFwooQ==
-----END CERTIFICATE-----
