Certificate:
    Data:
        Version: 3 (0x2)
        Serial Number:
            44:30:53:80:a6:a0:0f:fd:92:10:cd:8b:38:5c:c0:8e
    Signature Algorithm: rsassaPss
         Hash Algorithm: sha512
         Mask Algorithm: mgf1 with sha512
         Salt Length: 0x40
         Trailer Field: 0xBC (default)
        Issuer: C = DE, O = D-Trust GmbH, CN = D-TRUST CA 2-2 2019, 2.5.4.97 = NTRDE-HRB74346
        Validity
            Not Before: Jun 24 13:15:37 2021 GMT
            Not After : Jun 28 13:15:37 2023 GMT
        Subject: C = DE, O = Robert Koch-Institut, OU = Elektronischer Impfnachweis, CN = Robert Koch-Institut, L = Berlin, postalCode = 13353, street = Nordufer 20, 2.5.4.97 = DT:DE-3023531445, serialNumber = CSM026571191, ST = Berlin
        Subject Public Key Info:
            Public Key Algorithm: id-ecPublicKey
                Public-Key: (256 bit)
                pub:
                    04:6d:06:4f:a2:a7:e3:a5:3c:7c:9b:fc:00:65:95:
                    a4:de:ea:03:c7:37:e9:88:84:ac:35:2b:99:83:ff:
                    bd:54:df:dc:49:e7:eb:10:71:51:bd:0c:0c:d8:08:
                    cd:ea:f3:a3:87:35:4c:76:36:75:e0:c4:91:25:43:
                    09:12:ef:39:2f
                ASN1 OID: prime256v1
                NIST CURVE: P-256
        X509v3 extensions:
            X509v3 Authority Key Identifier: 
                keyid:71:10:32:AE:74:71:7B:54:8E:F1:D6:AB:62:54:AE:FC:3E:C0:BB:16

            qcStatements: 
                0.0......F..0......F..0......F...
            Authority Information Access: 
                OCSP - URI:http://d-trust-ca-2-2-2019.ocsp.d-trust.net
                CA Issuers - URI:http://www.d-trust.net/cgi-bin/D-TRUST_CA_2-2_2019.crt
                CA Issuers - URI:ldap://directory.d-trust.net/CN=D-TRUST%20CA%202-2%202019,O=D-Trust%20GmbH,C=DE?cACertificate?base?

            X509v3 Certificate Policies: 
                Policy: 0.4.0.194112.1.1
                Policy: 1.3.6.1.4.1.4788.2.150.5
                  CPS: http://www.d-trust.net/internet/files/D-TRUST_CSM_PKI_CPS.pdf

            X509v3 CRL Distribution Points: 

                Full Name:
                  URI:http://crl.d-trust.net/crl/d-trust_ca_2-2_2019.crl
                  URI:http://cdn.d-trust-cloudcrl.net/crl/d-trust_ca_2-2_2019.crl
                  URI:ldap://directory.d-trust.net/CN=D-TRUST%20CA%202-2%202019,O=D-Trust%20GmbH,C=DE?certificaterevocationlist

            X509v3 Subject Key Identifier: 
                39:10:C6:15:4C:1E:4A:D9:23:D1:ED:CE:07:44:44:19:9E:85:E7:17
            X509v3 Key Usage: critical
                Digital Signature, Non Repudiation
    Signature Algorithm: rsassaPss
         Hash Algorithm: sha512
         Mask Algorithm: mgf1 with sha512
         Salt Length: 0x40
         Trailer Field: 0xBC (default)

         68:24:53:6c:fb:cc:eb:9f:15:eb:a3:b5:40:3e:3b:a3:9b:e4:
         82:9c:99:89:be:55:39:88:e4:7e:a8:e8:e0:ad:db:7c:8d:98:
         59:e8:be:5f:5d:c7:ec:6b:05:f6:03:75:45:0c:7b:8d:12:7e:
         bc:b1:9c:ae:73:11:ec:04:a2:30:42:5f:e2:2a:57:14:b0:17:
         a5:17:b5:ba:14:62:bc:e8:10:48:74:d0:50:3e:96:b8:f8:65:
         a4:f4:da:b9:c2:00:bc:f5:94:b4:58:a7:fa:c9:5d:20:41:f4:
         3c:85:45:0e:5f:5e:65:09:8d:53:3d:38:63:c6:88:bd:58:68:
         31:32:e0:3d:c7:41:66:78:b5:1f:44:f0:da:d6:58:7f:9d:18:
         2a:e2:f6:9e:66:59:56:06:81:c7:2a:31:d2:3b:85:0c:b9:d5:
         07:a0:d2:84:76:ab:d7:11:6e:13:57:c9:95:30:59:3b:51:db:
         6f:ad:a7:1a:c7:a3:ce:82:55:c5:3f:44:54:04:e0:3a:30:d0:
         5d:16:c5:c9:23:58:d2:03:c1:45:51:89:83:8b:3d:3d:c0:4e:
         09:6e:2f:02:77:4a:f6:f0:c5:2f:3a:a5:e4:e7:aa:2e:4e:f2:
         4d:17:ca:c2:73:11:8e:87:c8:d3:b9:6b:78:1b:6c:06:8b:23:
         70:27:75:9e:21:ea:0e:5e:cf:eb:a2:b1:57:8c:29:82:7c:cf:
         91:8b:cd:53:e5:ca:76:a2:38:22:76:e1:90:2d:d7:a9:d2:37:
         1d:5e:fe:ee:3f:e3:bb:f7:9c:15:4a:32:42:1d:a6:44:62:f4:
         ce:b8:c2:f3:6d:ec:3d:60:79:41:23:3f:2c:34:88:58:05:6e:
         26:0a:cc:fc:6a:e4:7d:e8:29:d7:1b:67:07:7d:bf:5f:f9:2c:
         f7:11:16:e1:45:73:9c:34:b1:f7:80:63:b4:05:66:83:d1:c4:
         0a:f2:65:4f:9d:fb:fa:f3:91:03:6d:2d:e1:a9:2a:9d:4f:5c:
         43:ce:db:88:14:27:14:4a:37:00:1f:83:d5:19:dd:2e:c2:fe:
         9d:b5:59:ff:7a:3e:fe:3b:50:33:ab:b9:36:30:a7:47:a0:a5:
         fe:f4:14:59:9c:46:3a:1a:4d:ea:a6:9c:51:d7:8b:96:cb:09:
         6e:56:0c:da:57:1b:c6:5a:64:fb:d7:53:4e:69:76:15:27:fb:
         eb:62:b5:4f:2e:fd:73:da:34:69:1c:c6:40:2a:46:20:2c:2b:
         87:ad:ca:3e:4a:97:53:fa:d3:50:0c:8e:39:da:db:74:96:bf:
         ae:35:6c:e9:e0:d5:b6:a3:1e:5d:a5:f8:f2:ae:ba:d6:d1:34:
         c4:a6:88:db:68:27:53:86
-----BEGIN CERTIFICATE-----
MIIHUTCCBQmgAwIBAgIQRDBTgKagD/2SEM2LOFzAjjA9BgkqhkiG9w0BAQowMKAN
MAsGCWCGSAFlAwQCA6EaMBgGCSqGSIb3DQEBCDALBglghkgBZQMEAgOiAwIBQDBb
MQswCQYDVQQGEwJERTEVMBMGA1UEChMMRC1UcnVzdCBHbWJIMRwwGgYDVQQDExNE
LVRSVVNUIENBIDItMiAyMDE5MRcwFQYDVQRhEw5OVFJERS1IUkI3NDM0NjAeFw0y
MTA2MjQxMzE1MzdaFw0yMzA2MjgxMzE1MzdaMIHrMQswCQYDVQQGEwJERTEdMBsG
A1UEChMUUm9iZXJ0IEtvY2gtSW5zdGl0dXQxJDAiBgNVBAsTG0VsZWt0cm9uaXNj
aGVyIEltcGZuYWNod2VpczEdMBsGA1UEAxMUUm9iZXJ0IEtvY2gtSW5zdGl0dXQx
DzANBgNVBAcTBkJlcmxpbjEOMAwGA1UEEQwFMTMzNTMxFDASBgNVBAkTC05vcmR1
ZmVyIDIwMRkwFwYDVQRhExBEVDpERS0zMDIzNTMxNDQ1MRUwEwYDVQQFEwxDU00w
MjY1NzExOTExDzANBgNVBAgTBkJlcmxpbjBZMBMGByqGSM49AgEGCCqGSM49AwEH
A0IABG0GT6Kn46U8fJv8AGWVpN7qA8c36YiErDUrmYP/vVTf3Enn6xBxUb0MDNgI
zerzo4c1THY2deDEkSVDCRLvOS+jggLpMIIC5TAfBgNVHSMEGDAWgBRxEDKudHF7
VI7x1qtiVK78PsC7FjAtBggrBgEFBQcBAwQhMB8wCAYGBACORgEBMBMGBgQAjkYB
BjAJBgcEAI5GAQYCMIH+BggrBgEFBQcBAQSB8TCB7jA3BggrBgEFBQcwAYYraHR0
cDovL2QtdHJ1c3QtY2EtMi0yLTIwMTkub2NzcC5kLXRydXN0Lm5ldDBCBggrBgEF
BQcwAoY2aHR0cDovL3d3dy5kLXRydXN0Lm5ldC9jZ2ktYmluL0QtVFJVU1RfQ0Ff
Mi0yXzIwMTkuY3J0MG8GCCsGAQUFBzAChmNsZGFwOi8vZGlyZWN0b3J5LmQtdHJ1
c3QubmV0L0NOPUQtVFJVU1QlMjBDQSUyMDItMiUyMDIwMTksTz1ELVRydXN0JTIw
R21iSCxDPURFP2NBQ2VydGlmaWNhdGU/YmFzZT8wcAYDVR0gBGkwZzAJBgcEAIvs
QAEBMFoGCysGAQQBpTQCgRYFMEswSQYIKwYBBQUHAgEWPWh0dHA6Ly93d3cuZC10
cnVzdC5uZXQvaW50ZXJuZXQvZmlsZXMvRC1UUlVTVF9DU01fUEtJX0NQUy5wZGYw
gfAGA1UdHwSB6DCB5TCB4qCB36CB3IYyaHR0cDovL2NybC5kLXRydXN0Lm5ldC9j
cmwvZC10cnVzdF9jYV8yLTJfMjAxOS5jcmyGO2h0dHA6Ly9jZG4uZC10cnVzdC1j
bG91ZGNybC5uZXQvY3JsL2QtdHJ1c3RfY2FfMi0yXzIwMTkuY3JshmlsZGFwOi8v
ZGlyZWN0b3J5LmQtdHJ1c3QubmV0L0NOPUQtVFJVU1QlMjBDQSUyMDItMiUyMDIw
MTksTz1ELVRydXN0JTIwR21iSCxDPURFP2NlcnRpZmljYXRlcmV2b2NhdGlvbmxp
c3QwHQYDVR0OBBYEFDkQxhVMHkrZI9HtzgdERBmehecXMA4GA1UdDwEB/wQEAwIG
wDA9BgkqhkiG9w0BAQowMKANMAsGCWCGSAFlAwQCA6EaMBgGCSqGSIb3DQEBCDAL
BglghkgBZQMEAgOiAwIBQAOCAgEAaCRTbPvM658V66O1QD47o5vkgpyZib5VOYjk
fqjo4K3bfI2YWei+X13H7GsF9gN1RQx7jRJ+vLGcrnMR7ASiMEJf4ipXFLAXpRe1
uhRivOgQSHTQUD6WuPhlpPTaucIAvPWUtFin+sldIEH0PIVFDl9eZQmNUz04Y8aI
vVhoMTLgPcdBZni1H0Tw2tZYf50YKuL2nmZZVgaBxyox0juFDLnVB6DShHar1xFu
E1fJlTBZO1Hbb62nGsejzoJVxT9EVATgOjDQXRbFySNY0gPBRVGJg4s9PcBOCW4v
AndK9vDFLzql5OeqLk7yTRfKwnMRjofI07lreBtsBosjcCd1niHqDl7P66KxV4wp
gnzPkYvNU+XKdqI4InbhkC3XqdI3HV7+7j/ju/ecFUoyQh2mRGL0zrjC823sPWB5
QSM/LDSIWAVuJgrM/Grkfegp1xtnB32/X/ks9xEW4UVznDSx94BjtAVmg9HECvJl
T537+vORA20t4akqnU9cQ87biBQnFEo3AB+D1RndLsL+nbVZ/3o+/jtQM6u5NjCn
R6Cl/vQUWZxGOhpN6qacUdeLlssJblYM2lcbxlpk+9dTTml2FSf762K1Ty79c9o0
aRzGQCpGICwrh63KPkqXU/rTUAyOOdrbdJa/rjVs6eDVtqMeXaX48q661tE0xKaI
22gnU4Y=
-----END CERTIFICATE-----
