Certificate:
    Data:
        Version: 3 (0x2)
        Serial Number: 6895597208549143435 (0x5fb2152071bf338b)
    Signature Algorithm: rsassaPss
         Hash Algorithm: sha256
         Mask Algorithm: mgf1 with sha256
         Salt Length: 0x20
         Trailer Field: 0xBC (default)
        Issuer: C = LU, O = INCERT public agency, CN = Grand Duchy of Luxembourg CSCA
        Validity
            Not Before: Jun  9 09:50:05 2021 GMT
            Not After : Jun  9 09:50:05 2023 GMT
        Subject: C = LU, O = Ministry of Health, CN = Grand Duchy of Luxembourg DS DCC 2
        Subject Public Key Info:
            Public Key Algorithm: id-ecPublicKey
                Public-Key: (256 bit)
                pub:
                    04:bc:8b:3f:1f:c3:61:b4:4d:b7:ab:9b:51:f3:85:
                    7d:5b:06:db:74:60:dc:de:18:7b:9a:3a:d7:a2:6e:
                    0f:47:38:c6:46:e4:af:7c:2f:4e:20:52:ed:47:33:
                    a8:86:c7:67:6d:c1:3a:d8:55:8d:f8:5c:f4:f6:e8:
                    09:71:aa:a1:b4
                ASN1 OID: prime256v1
                NIST CURVE: P-256
        X509v3 extensions:
            X509v3 Subject Key Identifier: 
                BE:80:93:3F:EC:40:D3:FD:67:9B:14:B6:18:AB:53:6B:1A:74:4D:80
            X509v3 Authority Key Identifier: 
                keyid:1A:CF:47:C7:98:E5:35:4C:8F:9F:55:AB:A8:9A:F9:E3:C7:3C:9D:7B

            X509v3 Issuer Alternative Name: 
                email:csca@incert.lu, DirName:/L=LUX
            X509v3 Private Key Usage Period: 
                Not Before: Jun  9 09:50:05 2021 GMT, Not After: Dec  6 09:50:05 2021 GMT
            X509v3 CRL Distribution Points: 

                Full Name:
                  URI:http://repository.incert.lu/csca.crl

            X509v3 Key Usage: critical
                Digital Signature
            X509v3 Subject Alternative Name: 
                email:csca@incert.lu, DirName:/L=LUX
    Signature Algorithm: rsassaPss
         Hash Algorithm: sha256
         Mask Algorithm: mgf1 with sha256
         Salt Length: 0x20
         Trailer Field: 0xBC (default)

         a4:f5:6d:0a:68:2c:9a:49:6d:bd:ea:01:b6:1c:42:46:4a:3c:
         d4:1a:e5:a8:ac:5c:58:8b:96:62:01:58:7c:cf:60:8e:bb:05:
         62:6e:fc:28:c3:39:e1:d4:3e:0c:e9:72:08:83:7b:7d:ed:e5:
         96:9c:9d:c7:13:c0:c1:99:61:79:d9:43:c8:cd:c0:ec:40:8b:
         ff:fb:34:99:09:1c:4b:6b:31:c6:10:f6:9a:92:78:aa:a7:37:
         04:f0:31:eb:50:9b:5b:b9:ac:78:c0:b6:33:12:65:dc:96:30:
         c8:c3:21:c5:f9:67:69:57:88:f8:28:3b:9e:3c:7d:82:ab:c1:
         b7:82:96:81:43:93:aa:96:ae:4f:c9:73:a3:4a:c8:d8:15:12:
         15:6f:93:01:cb:7c:39:68:4b:b0:68:96:7d:88:e1:e4:f8:55:
         f4:c0:5e:de:74:ff:31:2c:bb:82:87:20:3a:43:4c:33:05:36:
         0e:4a:4d:8b:a0:38:51:ce:42:2b:1e:eb:3e:68:62:69:f0:64:
         1f:79:38:a7:c5:19:1d:31:78:34:7c:24:df:8a:9f:64:dc:76:
         24:e9:8a:7f:3b:8e:1b:72:1f:30:92:70:52:e5:59:b1:ee:9b:
         dc:bf:38:a2:8d:80:af:f6:85:64:6b:8a:4c:94:f7:3a:3f:3a:
         61:f0:4a:d7:ed:3a:48:20:05:27:83:56:dc:11:90:20:0a:66:
         92:bd:21:75:96:44:d0:a3:fe:09:11:9d:50:c3:7a:0d:de:85:
         0f:6a:47:29:14:f8:19:14:88:c8:b6:2e:12:c3:55:42:13:09:
         98:66:47:24:bd:e3:11:cf:e4:fa:02:63:9b:54:6a:70:8d:c6:
         48:23:63:0b:c3:1c:c5:3c:84:83:cb:f2:bb:0e:74:7c:5c:ee:
         d2:ba:8d:a6:af:04:fe:d9:6c:31:b5:5b:76:c4:71:85:35:a1:
         a2:96:bd:b6:32:3c:18:49:3e:70:15:0d:51:f6:48:b5:3a:f2:
         07:44:71:d8:cc:b6:23:8f:68:7d:48:98:44:61:43:67:05:f4:
         ac:c2:b1:4f:ec:bc:2a:0e:26:b1:1d:da:54:19:eb:11:68:76:
         48:9c:83:45:cd:e2:c7:57:2b:2c:a9:74:f8:9c:f8:2b:da:8b:
         fd:37:dc:37:62:4b:58:bb:1c:7e:7d:84:ed:19:f6:5e:88:da:
         0b:09:1d:42:c3:31:e4:a7:27:14:c1:f5:3b:de:b3:bf:62:61:
         24:5d:06:87:26:f8:b1:df:4f:cb:af:c1:1c:27:eb:e4:a6:4c:
         3e:ff:b6:dc:c7:9b:f1:ff:9b:f9:35:86:c2:cf:64:33:4c:76:
         7f:a4:32:e5:c2:88:49:e7
-----BEGIN CERTIFICATE-----
MIIE3zCCApOgAwIBAgIIX7IVIHG/M4swQQYJKoZIhvcNAQEKMDSgDzANBglghkgB
ZQMEAgEFAKEcMBoGCSqGSIb3DQEBCDANBglghkgBZQMEAgEFAKIDAgEgMFUxCzAJ
BgNVBAYTAkxVMR0wGwYDVQQKDBRJTkNFUlQgcHVibGljIGFnZW5jeTEnMCUGA1UE
AwweR3JhbmQgRHVjaHkgb2YgTHV4ZW1ib3VyZyBDU0NBMB4XDTIxMDYwOTA5NTAw
NVoXDTIzMDYwOTA5NTAwNVowVzELMAkGA1UEBhMCTFUxGzAZBgNVBAoMEk1pbmlz
dHJ5IG9mIEhlYWx0aDErMCkGA1UEAwwiR3JhbmQgRHVjaHkgb2YgTHV4ZW1ib3Vy
ZyBEUyBEQ0MgMjBZMBMGByqGSM49AgEGCCqGSM49AwEHA0IABLyLPx/DYbRNt6ub
UfOFfVsG23Rg3N4Ye5o616JuD0c4xkbkr3wvTiBS7UczqIbHZ23BOthVjfhc9Pbo
CXGqobSjggESMIIBDjAdBgNVHQ4EFgQUvoCTP+xA0/1nmxS2GKtTaxp0TYAwHwYD
VR0jBBgwFoAUGs9Hx5jlNUyPn1WrqJr548c8nXswKwYDVR0SBCQwIoEOY3NjYUBp
bmNlcnQubHWkEDAOMQwwCgYDVQQHDANMVVgwKwYDVR0QBCQwIoAPMjAyMTA2MDkw
OTUwMDVagQ8yMDIxMTIwNjA5NTAwNVowNQYDVR0fBC4wLDAqoCigJoYkaHR0cDov
L3JlcG9zaXRvcnkuaW5jZXJ0Lmx1L2NzY2EuY3JsMA4GA1UdDwEB/wQEAwIHgDAr
BgNVHREEJDAigQ5jc2NhQGluY2VydC5sdaQQMA4xDDAKBgNVBAcMA0xVWDBBBgkq
hkiG9w0BAQowNKAPMA0GCWCGSAFlAwQCAQUAoRwwGgYJKoZIhvcNAQEIMA0GCWCG
SAFlAwQCAQUAogMCASADggIBAKT1bQpoLJpJbb3qAbYcQkZKPNQa5aisXFiLlmIB
WHzPYI67BWJu/CjDOeHUPgzpcgiDe33t5ZacnccTwMGZYXnZQ8jNwOxAi//7NJkJ
HEtrMcYQ9pqSeKqnNwTwMetQm1u5rHjAtjMSZdyWMMjDIcX5Z2lXiPgoO548fYKr
wbeCloFDk6qWrk/Jc6NKyNgVEhVvkwHLfDloS7Boln2I4eT4VfTAXt50/zEsu4KH
IDpDTDMFNg5KTYugOFHOQise6z5oYmnwZB95OKfFGR0xeDR8JN+Kn2TcdiTpin87
jhtyHzCScFLlWbHum9y/OKKNgK/2hWRrikyU9zo/OmHwStftOkggBSeDVtwRkCAK
ZpK9IXWWRNCj/gkRnVDDeg3ehQ9qRykU+BkUiMi2LhLDVUITCZhmRyS94xHP5PoC
Y5tUanCNxkgjYwvDHMU8hIPL8rsOdHxc7tK6jaavBP7ZbDG1W3bEcYU1oaKWvbYy
PBhJPnAVDVH2SLU68gdEcdjMtiOPaH1ImERhQ2cF9KzCsU/svCoOJrEd2lQZ6xFo
dkicg0XN4sdXKyypdPic+Cvai/033DdiS1i7HH59hO0Z9l6I2gsJHULDMeSnJxTB
9Tves79iYSRdBocm+LHfT8uvwRwn6+SmTD7/ttzHm/H/m/k1hsLPZDNMdn+kMuXC
iEnn
-----END CERTIFICATE-----
