Certificate:
    Data:
        Version: 3 (0x2)
        Serial Number:
            68:2a:ca:a7:fa:22:7e:46:55:ec:03:c4:ff:04:fa:b7
    Signature Algorithm: rsassaPss
         Hash Algorithm: sha512
         Mask Algorithm: mgf1 with sha512
         Salt Length: 0x40
         Trailer Field: 0xBC (default)
        Issuer: C = DE, O = D-Trust GmbH, CN = D-TRUST CA 2-2 2019, 2.5.4.97 = NTRDE-HRB74346
        Validity
            Not Before: Jun 24 13:18:05 2021 GMT
            Not After : Jun 28 13:18:05 2023 GMT
        Subject: C = DE, O = Robert Koch-Institut, OU = Elektronischer Impfnachweis, CN = Robert Koch-Institut, L = Berlin, postalCode = 13353, street = Nordufer 20, 2.5.4.97 = DT:DE-3023531445, serialNumber = CSM026571243, ST = Berlin
        Subject Public Key Info:
            Public Key Algorithm: id-ecPublicKey
                Public-Key: (256 bit)
                pub:
                    04:0d:15:48:aa:ee:ee:a3:81:ce:81:79:57:cb:16:
                    01:97:62:f5:6a:bc:71:bc:37:f0:7e:09:d8:1e:38:
                    15:29:0a:45:12:3f:a1:57:d6:04:8d:21:02:25:2f:
                    98:ae:11:ab:e5:15:d9:53:b7:91:cc:ab:df:2a:d4:
                    48:d4:f3:9a:c3
                ASN1 OID: prime256v1
                NIST CURVE: P-256
        X509v3 extensions:
            X509v3 Authority Key Identifier: 
                keyid:71:10:32:AE:74:71:7B:54:8E:F1:D6:AB:62:54:AE:FC:3E:C0:BB:16

            qcStatements: 
                0.0......F..0......F..0......F...
            Authority Information Access: 
                OCSP - URI:http://d-trust-ca-2-2-2019.ocsp.d-trust.net
                CA Issuers - URI:http://www.d-trust.net/cgi-bin/D-TRUST_CA_2-2_2019.crt
                CA Issuers - URI:ldap://directory.d-trust.net/CN=D-TRUST%20CA%202-2%202019,O=D-Trust%20GmbH,C=DE?cACertificate?base?

            X509v3 Certificate Policies: 
                Policy: 0.4.0.194112.1.1
                Policy: 1.3.6.1.4.1.4788.2.150.5
                  CPS: http://www.d-trust.net/internet/files/D-TRUST_CSM_PKI_CPS.pdf

            X509v3 CRL Distribution Points: 

                Full Name:
                  URI:http://crl.d-trust.net/crl/d-trust_ca_2-2_2019.crl
                  URI:http://cdn.d-trust-cloudcrl.net/crl/d-trust_ca_2-2_2019.crl
                  URI:ldap://directory.d-trust.net/CN=D-TRUST%20CA%202-2%202019,O=D-Trust%20GmbH,C=DE?certificaterevocationlist

            X509v3 Subject Key Identifier: 
                2F:C1:85:49:C3:D8:4F:F8:56:36:6F:6C:5D:C6:0A:20:AA:78:BF:06
            X509v3 Key Usage: critical
                Digital Signature, Non Repudiation
    Signature Algorithm: rsassaPss
         Hash Algorithm: sha512
         Mask Algorithm: mgf1 with sha512
         Salt Length: 0x40
         Trailer Field: 0xBC (default)

         7c:71:3d:c6:de:01:e6:de:e3:cb:bf:31:d6:53:21:04:ca:f3:
         93:25:b9:de:e5:dd:65:97:e8:93:93:28:dc:ae:df:3f:48:3d:
         d8:9d:c5:31:91:5c:68:14:d3:2d:92:0e:10:a9:c3:85:2d:61:
         d0:d3:42:f7:d8:d3:4e:86:44:54:15:82:07:6e:54:0a:f6:7e:
         a1:41:0c:47:1d:e7:61:ec:e0:4a:18:97:da:2e:9f:05:6b:e6:
         9f:8f:d4:20:cc:9b:a7:b8:a4:14:23:01:7e:91:6e:ba:8d:48:
         d3:d6:a7:b8:ec:a0:ab:30:9e:5f:2e:24:22:d8:06:6d:65:c9:
         8f:66:0e:6d:9a:68:9c:88:73:dc:a1:d0:64:1f:fd:b3:28:9f:
         f1:ee:6b:53:96:21:b6:a4:26:e2:53:f0:8a:e0:28:26:e7:e8:
         0e:bf:ec:13:b4:ff:a4:cf:47:f3:de:52:ba:e9:d2:7a:03:f3:
         b8:fd:3c:9f:67:1f:4b:83:32:46:c9:36:f2:f4:b6:74:08:23:
         1c:26:12:62:cc:a0:93:1d:8b:99:fd:93:8f:95:08:0f:72:70:
         6c:06:5c:f4:d2:7d:be:0c:ca:39:e4:0c:54:fb:dd:01:02:c3:
         a1:79:2f:41:93:94:39:65:42:bc:75:c5:8d:3b:ee:5c:b1:f6:
         03:24:dd:87:85:fc:5c:ba:41:97:f3:e2:86:0f:07:65:98:06:
         61:54:8c:ad:87:c8:d9:7c:87:98:d4:73:32:f0:ba:b7:3a:5e:
         de:ca:f7:95:55:71:68:86:73:08:b0:b2:5d:00:0e:dd:d8:41:
         58:c8:64:6f:56:76:3b:95:99:69:0a:52:8b:f7:3a:f7:25:7b:
         f6:c0:c8:39:ff:97:61:3e:18:c3:ce:16:98:9b:62:20:a4:9e:
         b7:75:ae:34:5a:49:83:dc:34:54:d8:02:57:22:3f:e9:59:90:
         e8:f1:44:af:07:79:9e:a6:e8:f7:b2:73:17:4e:65:e3:f6:4c:
         fc:4a:20:80:8c:01:bc:2d:78:c4:9f:56:ad:ea:e8:27:c7:d3:
         4f:11:76:a8:b5:a4:92:f7:00:e0:3f:2d:29:33:32:d5:c2:b3:
         f4:42:40:22:78:02:8d:c9:c2:58:fd:f5:57:c5:f0:dd:df:04:
         a3:f3:a2:33:22:08:76:f0:4f:52:97:d9:5d:16:a8:da:cb:ed:
         cf:e4:f5:37:fe:af:81:34:43:a0:16:69:a1:81:f9:12:3b:5e:
         ed:56:d9:72:8b:6f:3d:cd:9b:6c:cf:81:db:58:60:34:d6:22:
         e9:0a:58:81:56:a7:04:77:06:d8:6b:1f:bd:48:22:00:fe:9a:
         95:7a:91:f0:25:63:b6:72
-----BEGIN CERTIFICATE-----
MIIHUTCCBQmgAwIBAgIQaCrKp/oifkZV7APE/wT6tzA9BgkqhkiG9w0BAQowMKAN
MAsGCWCGSAFlAwQCA6EaMBgGCSqGSIb3DQEBCDALBglghkgBZQMEAgOiAwIBQDBb
MQswCQYDVQQGEwJERTEVMBMGA1UEChMMRC1UcnVzdCBHbWJIMRwwGgYDVQQDExNE
LVRSVVNUIENBIDItMiAyMDE5MRcwFQYDVQRhEw5OVFJERS1IUkI3NDM0NjAeFw0y
MTA2MjQxMzE4MDVaFw0yMzA2MjgxMzE4MDVaMIHrMQswCQYDVQQGEwJERTEdMBsG
A1UEChMUUm9iZXJ0IEtvY2gtSW5zdGl0dXQxJDAiBgNVBAsTG0VsZWt0cm9uaXNj
aGVyIEltcGZuYWNod2VpczEdMBsGA1UEAxMUUm9iZXJ0IEtvY2gtSW5zdGl0dXQx
DzANBgNVBAcTBkJlcmxpbjEOMAwGA1UEEQwFMTMzNTMxFDASBgNVBAkTC05vcmR1
ZmVyIDIwMRkwFwYDVQRhExBEVDpERS0zMDIzNTMxNDQ1MRUwEwYDVQQFEwxDU00w
MjY1NzEyNDMxDzANBgNVBAgTBkJlcmxpbjBZMBMGByqGSM49AgEGCCqGSM49AwEH
A0IABA0VSKru7qOBzoF5V8sWAZdi9Wq8cbw38H4J2B44FSkKRRI/oVfWBI0hAiUv
mK4Rq+UV2VO3kcyr3yrUSNTzmsOjggLpMIIC5TAfBgNVHSMEGDAWgBRxEDKudHF7
VI7x1qtiVK78PsC7FjAtBggrBgEFBQcBAwQhMB8wCAYGBACORgEBMBMGBgQAjkYB
BjAJBgcEAI5GAQYCMIH+BggrBgEFBQcBAQSB8TCB7jA3BggrBgEFBQcwAYYraHR0
cDovL2QtdHJ1c3QtY2EtMi0yLTIwMTkub2NzcC5kLXRydXN0Lm5ldDBCBggrBgEF
BQcwAoY2aHR0cDovL3d3dy5kLXRydXN0Lm5ldC9jZ2ktYmluL0QtVFJVU1RfQ0Ff
Mi0yXzIwMTkuY3J0MG8GCCsGAQUFBzAChmNsZGFwOi8vZGlyZWN0b3J5LmQtdHJ1
c3QubmV0L0NOPUQtVFJVU1QlMjBDQSUyMDItMiUyMDIwMTksTz1ELVRydXN0JTIw
R21iSCxDPURFP2NBQ2VydGlmaWNhdGU/YmFzZT8wcAYDVR0gBGkwZzAJBgcEAIvs
QAEBMFoGCysGAQQBpTQCgRYFMEswSQYIKwYBBQUHAgEWPWh0dHA6Ly93d3cuZC10
cnVzdC5uZXQvaW50ZXJuZXQvZmlsZXMvRC1UUlVTVF9DU01fUEtJX0NQUy5wZGYw
gfAGA1UdHwSB6DCB5TCB4qCB36CB3IYyaHR0cDovL2NybC5kLXRydXN0Lm5ldC9j
cmwvZC10cnVzdF9jYV8yLTJfMjAxOS5jcmyGO2h0dHA6Ly9jZG4uZC10cnVzdC1j
bG91ZGNybC5uZXQvY3JsL2QtdHJ1c3RfY2FfMi0yXzIwMTkuY3JshmlsZGFwOi8v
ZGlyZWN0b3J5LmQtdHJ1c3QubmV0L0NOPUQtVFJVU1QlMjBDQSUyMDItMiUyMDIw
MTksTz1ELVRydXN0JTIwR21iSCxDPURFP2NlcnRpZmljYXRlcmV2b2NhdGlvbmxp
c3QwHQYDVR0OBBYEFC/BhUnD2E/4VjZvbF3GCiCqeL8GMA4GA1UdDwEB/wQEAwIG
wDA9BgkqhkiG9w0BAQowMKANMAsGCWCGSAFlAwQCA6EaMBgGCSqGSIb3DQEBCDAL
BglghkgBZQMEAgOiAwIBQAOCAgEAfHE9xt4B5t7jy78x1lMhBMrzkyW53uXdZZfo
k5Mo3K7fP0g92J3FMZFcaBTTLZIOEKnDhS1h0NNC99jTToZEVBWCB25UCvZ+oUEM
Rx3nYezgShiX2i6fBWvmn4/UIMybp7ikFCMBfpFuuo1I09anuOygqzCeXy4kItgG
bWXJj2YObZponIhz3KHQZB/9syif8e5rU5YhtqQm4lPwiuAoJufoDr/sE7T/pM9H
895SuunSegPzuP08n2cfS4MyRsk28vS2dAgjHCYSYsygkx2Lmf2Tj5UID3JwbAZc
9NJ9vgzKOeQMVPvdAQLDoXkvQZOUOWVCvHXFjTvuXLH2AyTdh4X8XLpBl/Pihg8H
ZZgGYVSMrYfI2XyHmNRzMvC6tzpe3sr3lVVxaIZzCLCyXQAO3dhBWMhkb1Z2O5WZ
aQpSi/c69yV79sDIOf+XYT4Yw84WmJtiIKSet3WuNFpJg9w0VNgCVyI/6VmQ6PFE
rwd5nqbo97JzF05l4/ZM/EoggIwBvC14xJ9WreroJ8fTTxF2qLWkkvcA4D8tKTMy
1cKz9EJAIngCjcnCWP31V8Xw3d8Eo/OiMyIIdvBPUpfZXRao2svtz+T1N/6vgTRD
oBZpoYH5Ejte7VbZcotvPc2bbM+B21hgNNYi6QpYgVanBHcG2GsfvUgiAP6alXqR
8CVjtnI=
-----END CERTIFICATE-----
