Certificate:
    Data:
        Version: 3 (0x2)
        Serial Number:
            63:b6:42:1d:1f:ca:33:73:ee:ef:39:31:19:7e:da:ea:bd:b1:59:3f
    Signature Algorithm: sha256WithRSAEncryption
        Issuer: C = FR, O = Gouv, CN = CSCA-FRANCE
        Validity
            Not Before: Jul 14 22:00:00 2021 GMT
            Not After : Jul 14 22:00:00 2023 GMT
        Subject: C = FR, O = CNAM, OU = 180035024, CN = DSC_FR_020
        Subject Public Key Info:
            Public Key Algorithm: id-ecPublicKey
                Public-Key: (256 bit)
                pub:
                    04:0a:6b:dd:f5:be:7a:b0:7b:9c:1c:48:bb:18:18:
                    ea:6a:96:72:e8:80:19:e0:c1:48:16:0e:c0:72:bf:
                    39:8d:7a:7f:a0:14:8d:cc:50:4f:f4:29:e4:b3:02:
                    d1:e6:fc:26:af:cd:fa:b9:2f:49:2f:9b:1d:77:32:
                    d3:e0:ae:3e:e4
                ASN1 OID: prime256v1
                NIST CURVE: P-256
        X509v3 extensions:
            X509v3 Subject Key Identifier: 
                66:8A:31:A0:80:44:5C:ED:81:2B:F8:8E:34:65:02:EE:F9:C7:72:0B
            X509v3 Authority Key Identifier: 
                keyid:BE:8A:2E:D6:C9:F9:20:4E:3A:27:03:08:97:4D:EC:FD:D9:7D:C5:E6

            X509v3 Basic Constraints: critical
                CA:FALSE
            X509v3 Key Usage: critical
                Digital Signature
            X509v3 CRL Distribution Points: 

                Full Name:
                  URI:http://ants.gouv.fr/csca_crl

            X509v3 Certificate Policies: 
                Policy: 1.2.250.1.200.31.3.9.1.1

            Authority Information Access: 
                CA Issuers - URI:https://ant.gouv.fr/csca

    Signature Algorithm: sha256WithRSAEncryption
         0c:ab:3c:a7:3a:e6:13:8f:19:13:1c:8d:6c:66:bc:91:5e:c2:
         8c:98:c2:7d:61:93:38:47:f3:c5:a0:3a:5f:b8:0b:d2:46:87:
         56:7b:cf:78:da:b8:c9:08:7a:09:99:74:9b:0a:c4:99:dc:6f:
         b9:72:91:79:f5:3e:9c:28:3f:a6:b6:e7:e8:20:30:0b:68:ab:
         0c:75:39:85:2e:3c:42:fc:9a:ec:9c:2a:35:33:0e:53:ae:a9:
         84:5b:37:14:3b:97:3a:95:2f:9b:f7:de:fb:0e:95:cb:d3:34:
         22:a6:ca:bb:b9:04:5a:2c:d9:f7:6d:c6:e5:88:eb:71:48:27:
         4e:e1:7d:c5:9d:29:39:dd:87:8d:88:7d:79:f3:4e:99:b7:9d:
         6b:42:66:24:44:0a:c6:2e:7e:58:01:a3:39:3a:a2:74:35:df:
         87:f1:be:da:30:7f:25:ae:bb:93:2a:19:49:e3:07:04:4c:fb:
         23:22:7c:84:1a:d4:59:15:95:e6:81:33:21:14:1d:32:56:76:
         c4:f0:fd:4b:d9:d2:d3:44:f4:f6:09:25:da:78:71:f9:4e:e7:
         4e:a4:4f:41:af:aa:28:c8:9e:8d:00:36:ef:e1:30:0e:0b:33:
         92:5e:61:50:c4:de:a8:1e:71:03:6d:65:d9:2a:81:ab:3e:16:
         fa:fd:d6:07:2d:33:88:33:52:f5:06:b9:1c:2d:7e:95:9a:7f:
         ed:1f:b7:de:97:c6:64:c3:82:f6:2c:36:fb:2c:82:f9:20:bc:
         70:5c:14:07:f8:ae:c1:9f:b4:d3:de:8b:57:4c:19:b2:10:7b:
         e1:98:d4:ff:fb:14:34:92:0b:e7:f6:56:68:d1:a8:86:72:28:
         ac:9f:27:6f:33:05:9b:6a:cf:7d:4e:ba:74:e6:a7:7d:0d:37:
         22:4a:ed:22:56:f1:1f:62:0e:02:e0:6c:0b:b1:64:d4:e1:fa:
         0c:33:28:38:94:62:6b:b3:92:00:eb:f5:51:3e:bd:e8:ce:d1:
         e0:cb:4a:c9:68:42:8a:23:5a:8f:14:f6:8d:22:5b:be:95:63:
         e5:89:92:f3:71:bb:71:f6:ec:60:7b:bc:c7:b5:46:c6:bc:0c:
         5f:2c:9e:ca:12:8f:87:c0:fd:c5:70:98:75:1a:e4:02:8e:61:
         85:df:44:4c:b4:48:e1:07:89:1c:f4:2f:c3:b5:0e:2f:75:29:
         a2:0f:9f:66:66:97:05:e1:1e:b4:69:75:63:c3:d0:1b:62:47:
         8d:8d:01:50:67:25:36:fb:c1:02:91:fa:8c:43:16:88:e3:14:
         32:39:d1:fa:61:3c:14:2d:8b:07:91:89:49:c8:ea:d4:c2:e3:
         68:3a:98:a6:3e:5f:da:32
-----BEGIN CERTIFICATE-----
MIIEGzCCAgOgAwIBAgIUY7ZCHR/KM3Pu7zkxGX7a6r2xWT8wDQYJKoZIhvcNAQEL
BQAwMjELMAkGA1UEBhMCRlIxDTALBgNVBAoMBEdvdXYxFDASBgNVBAMMC0NTQ0Et
RlJBTkNFMB4XDTIxMDcxNDIyMDAwMFoXDTIzMDcxNDIyMDAwMFowRTELMAkGA1UE
BhMCRlIxDTALBgNVBAoMBENOQU0xEjAQBgNVBAsMCTE4MDAzNTAyNDETMBEGA1UE
AwwKRFNDX0ZSXzAyMDBZMBMGByqGSM49AgEGCCqGSM49AwEHA0IABApr3fW+erB7
nBxIuxgY6mqWcuiAGeDBSBYOwHK/OY16f6AUjcxQT/Qp5LMC0eb8Jq/N+rkvSS+b
HXcy0+CuPuSjgeAwgd0wHQYDVR0OBBYEFGaKMaCARFztgSv4jjRlAu75x3ILMB8G
A1UdIwQYMBaAFL6KLtbJ+SBOOicDCJdN7P3ZfcXmMAwGA1UdEwEB/wQCMAAwDgYD
VR0PAQH/BAQDAgeAMC0GA1UdHwQmMCQwIqAgoB6GHGh0dHA6Ly9hbnRzLmdvdXYu
ZnIvY3NjYV9jcmwwGAYDVR0gBBEwDzANBgsqgXoBgUgfAwkBATA0BggrBgEFBQcB
AQQoMCYwJAYIKwYBBQUHMAKGGGh0dHBzOi8vYW50LmdvdXYuZnIvY3NjYTANBgkq
hkiG9w0BAQsFAAOCAgEADKs8pzrmE48ZExyNbGa8kV7CjJjCfWGTOEfzxaA6X7gL
0kaHVnvPeNq4yQh6CZl0mwrEmdxvuXKRefU+nCg/prbn6CAwC2irDHU5hS48Qvya
7JwqNTMOU66phFs3FDuXOpUvm/fe+w6Vy9M0IqbKu7kEWizZ923G5YjrcUgnTuF9
xZ0pOd2HjYh9efNOmbeda0JmJEQKxi5+WAGjOTqidDXfh/G+2jB/Ja67kyoZSeMH
BEz7IyJ8hBrUWRWV5oEzIRQdMlZ2xPD9S9nS00T09gkl2nhx+U7nTqRPQa+qKMie
jQA27+EwDgszkl5hUMTeqB5xA21l2SqBqz4W+v3WBy0ziDNS9Qa5HC1+lZp/7R+3
3pfGZMOC9iw2+yyC+SC8cFwUB/iuwZ+0096LV0wZshB74ZjU//sUNJIL5/ZWaNGo
hnIorJ8nbzMFm2rPfU66dOanfQ03IkrtIlbxH2IOAuBsC7Fk1OH6DDMoOJRia7OS
AOv1UT696M7R4MtKyWhCiiNajxT2jSJbvpVj5YmS83G7cfbsYHu8x7VGxrwMXyye
yhKPh8D9xXCYdRrkAo5hhd9ETLRI4QeJHPQvw7UOL3Upog+fZmaXBeEetGl1Y8PQ
G2JHjY0BUGclNvvBApH6jEMWiOMUMjnR+mE8FC2LB5GJScjq1MLjaDqYpj5f2jI=
-----END CERTIFICATE-----
