Certificate:
    Data:
        Version: 3 (0x2)
        Serial Number:
            54:e4:94:26:30:01:a2:8a:62:79:f0:0b:56:8f:15:83
    Signature Algorithm: rsassaPss
         Hash Algorithm: sha512
         Mask Algorithm: mgf1 with sha512
         Salt Length: 0x40
         Trailer Field: 0xBC (default)
        Issuer: C = DE, O = D-Trust GmbH, CN = D-TRUST CA 2-2 2019, 2.5.4.97 = NTRDE-HRB74346
        Validity
            Not Before: Jun  7 10:25:38 2021 GMT
            Not After : Jun 11 10:25:38 2023 GMT
        Subject: C = DE, O = Robert Koch-Institut, OU = Elektronischer Impfnachweis, CN = Robert Koch-Institut, L = Berlin, postalCode = 13353, street = Nordufer 20, 2.5.4.97 = DT:DE-3023531445, serialNumber = CSM026414115, ST = Berlin
        Subject Public Key Info:
            Public Key Algorithm: id-ecPublicKey
                Public-Key: (256 bit)
                pub:
                    04:77:e8:2b:3e:72:79:f2:9a:d9:bc:e7:8b:0b:7b:
                    e2:f4:fd:a6:9e:a9:6f:bc:63:5f:b1:b4:f4:1e:6c:
                    40:54:70:28:34:1e:f7:3d:3d:78:f4:88:46:5a:13:
                    59:15:23:05:45:e9:7b:be:ef:2f:8b:8c:0f:a1:a4:
                    ae:22:3a:da:3f
                ASN1 OID: prime256v1
                NIST CURVE: P-256
        X509v3 extensions:
            X509v3 Authority Key Identifier: 
                keyid:71:10:32:AE:74:71:7B:54:8E:F1:D6:AB:62:54:AE:FC:3E:C0:BB:16

            qcStatements: 
                0.0......F..0......F..0......F...
            Authority Information Access: 
                OCSP - URI:http://d-trust-ca-2-2-2019.ocsp.d-trust.net
                CA Issuers - URI:http://www.d-trust.net/cgi-bin/D-TRUST_CA_2-2_2019.crt
                CA Issuers - URI:ldap://directory.d-trust.net/CN=D-TRUST%20CA%202-2%202019,O=D-Trust%20GmbH,C=DE?cACertificate?base?

            X509v3 Certificate Policies: 
                Policy: 0.4.0.194112.1.1
                Policy: 1.3.6.1.4.1.4788.2.150.5
                  CPS: http://www.d-trust.net/internet/files/D-TRUST_CSM_PKI_CPS.pdf

            X509v3 CRL Distribution Points: 

                Full Name:
                  URI:ldap://directory.d-trust.net/CN=D-TRUST%20CA%202-2%202019,O=D-Trust%20GmbH,C=DE?certificaterevocationlist
                  URI:http://crl.d-trust.net/crl/d-trust_ca_2-2_2019.crl
                  URI:http://cdn.d-trust-cloudcrl.net/crl/d-trust_ca_2-2_2019.crl

            X509v3 Subject Key Identifier: 
                36:F9:C9:95:4A:55:14:DA:9D:2E:5C:40:0C:4B:30:52:26:51:23:F5
            X509v3 Key Usage: critical
                Digital Signature, Non Repudiation
    Signature Algorithm: rsassaPss
         Hash Algorithm: sha512
         Mask Algorithm: mgf1 with sha512
         Salt Length: 0x40
         Trailer Field: 0xBC (default)

         3d:a8:2b:69:97:ed:b5:4e:3e:e1:32:fa:2d:9c:12:b0:fb:2b:
         53:5d:08:ce:57:5c:53:f8:49:d3:21:97:d6:58:86:75:0f:54:
         34:2d:2e:d1:95:99:7e:a2:50:3e:92:df:0c:22:6d:a7:cd:a7:
         e3:94:63:04:82:46:95:ef:76:4e:32:2d:81:06:99:34:06:fa:
         c6:2a:2a:3b:bf:38:85:dd:39:dd:91:92:10:8a:93:68:c2:72:
         e6:2b:e6:f6:d5:d6:59:47:da:27:c2:b4:14:ad:b3:d8:92:82:
         0a:cc:e5:79:09:0a:6d:a1:59:88:62:f3:d9:e5:ac:0c:ba:5c:
         db:6d:bb:0c:86:a1:ca:9d:22:ab:1f:d1:07:3a:19:b8:f0:3c:
         f1:85:85:1b:7a:30:1a:9f:73:d0:6d:98:67:ac:98:96:fe:82:
         98:f9:12:e2:60:a0:45:32:c3:89:38:43:79:31:ab:4c:a5:18:
         99:a0:bf:4a:36:ba:05:14:2c:ac:f6:bf:1d:6d:f9:65:ec:fb:
         38:74:19:bb:c6:82:59:27:9b:59:97:e6:4d:b2:19:84:68:cb:
         fc:3f:9e:06:5e:d5:86:d1:4c:80:0c:15:ae:1e:0e:b4:64:4f:
         db:af:86:77:04:c2:6f:db:8e:bf:51:60:4b:75:52:0f:ab:dd:
         bb:d2:de:5a:6b:ab:52:80:b4:4e:50:7b:dd:d5:49:a3:30:eb:
         d5:2f:7c:e8:4c:04:b2:99:a0:a3:38:93:2c:5c:6c:de:06:2f:
         92:5b:b1:c4:bb:76:47:f6:d9:33:5f:2f:1e:78:4f:b9:2d:4a:
         23:07:7b:13:c4:0f:08:13:2a:2e:51:dc:db:c2:4b:80:67:dd:
         f6:97:1a:e3:ca:df:d2:d0:99:53:b4:77:4d:1e:ee:40:7b:f5:
         c0:be:74:a6:2e:89:0b:87:28:ce:5e:d5:45:bf:71:47:2f:bb:
         da:73:63:e1:0f:ce:da:5e:b5:0b:22:c9:17:ee:0e:14:b9:19:
         92:0c:e7:fe:55:71:20:f8:7f:8d:81:ab:28:0a:3c:c9:86:3b:
         75:77:f2:a4:e1:ac:a3:2b:b2:9d:2a:2d:da:2c:31:f6:be:1f:
         44:02:ed:5c:66:3c:68:87:b0:a4:59:f9:60:b2:0c:29:01:8c:
         a5:65:0e:b8:b1:11:86:25:a6:97:d6:49:72:91:b8:c6:e9:16:
         ae:30:a7:ca:7a:23:ee:e8:77:d8:f6:5d:45:38:bf:cb:b5:38:
         b1:79:91:70:7b:06:cc:99:b4:59:9a:29:47:0c:e7:e4:3f:e7:
         0b:bb:e9:73:a0:dd:b8:de:27:a1:60:17:2c:4a:0c:e2:ea:3e:
         10:0b:a6:12:dd:fa:5d:a9
-----BEGIN CERTIFICATE-----
MIIHUTCCBQmgAwIBAgIQVOSUJjABoopiefALVo8VgzA9BgkqhkiG9w0BAQowMKAN
MAsGCWCGSAFlAwQCA6EaMBgGCSqGSIb3DQEBCDALBglghkgBZQMEAgOiAwIBQDBb
MQswCQYDVQQGEwJERTEVMBMGA1UEChMMRC1UcnVzdCBHbWJIMRwwGgYDVQQDExNE
LVRSVVNUIENBIDItMiAyMDE5MRcwFQYDVQRhEw5OVFJERS1IUkI3NDM0NjAeFw0y
MTA2MDcxMDI1MzhaFw0yMzA2MTExMDI1MzhaMIHrMQswCQYDVQQGEwJERTEdMBsG
A1UEChMUUm9iZXJ0IEtvY2gtSW5zdGl0dXQxJDAiBgNVBAsTG0VsZWt0cm9uaXNj
aGVyIEltcGZuYWNod2VpczEdMBsGA1UEAxMUUm9iZXJ0IEtvY2gtSW5zdGl0dXQx
DzANBgNVBAcTBkJlcmxpbjEOMAwGA1UEEQwFMTMzNTMxFDASBgNVBAkTC05vcmR1
ZmVyIDIwMRkwFwYDVQRhExBEVDpERS0zMDIzNTMxNDQ1MRUwEwYDVQQFEwxDU00w
MjY0MTQxMTUxDzANBgNVBAgTBkJlcmxpbjBZMBMGByqGSM49AgEGCCqGSM49AwEH
A0IABHfoKz5yefKa2bzniwt74vT9pp6pb7xjX7G09B5sQFRwKDQe9z09ePSIRloT
WRUjBUXpe77vL4uMD6GkriI62j+jggLpMIIC5TAfBgNVHSMEGDAWgBRxEDKudHF7
VI7x1qtiVK78PsC7FjAtBggrBgEFBQcBAwQhMB8wCAYGBACORgEBMBMGBgQAjkYB
BjAJBgcEAI5GAQYCMIH+BggrBgEFBQcBAQSB8TCB7jA3BggrBgEFBQcwAYYraHR0
cDovL2QtdHJ1c3QtY2EtMi0yLTIwMTkub2NzcC5kLXRydXN0Lm5ldDBCBggrBgEF
BQcwAoY2aHR0cDovL3d3dy5kLXRydXN0Lm5ldC9jZ2ktYmluL0QtVFJVU1RfQ0Ff
Mi0yXzIwMTkuY3J0MG8GCCsGAQUFBzAChmNsZGFwOi8vZGlyZWN0b3J5LmQtdHJ1
c3QubmV0L0NOPUQtVFJVU1QlMjBDQSUyMDItMiUyMDIwMTksTz1ELVRydXN0JTIw
R21iSCxDPURFP2NBQ2VydGlmaWNhdGU/YmFzZT8wcAYDVR0gBGkwZzAJBgcEAIvs
QAEBMFoGCysGAQQBpTQCgRYFMEswSQYIKwYBBQUHAgEWPWh0dHA6Ly93d3cuZC10
cnVzdC5uZXQvaW50ZXJuZXQvZmlsZXMvRC1UUlVTVF9DU01fUEtJX0NQUy5wZGYw
gfAGA1UdHwSB6DCB5TCB4qCB36CB3IZpbGRhcDovL2RpcmVjdG9yeS5kLXRydXN0
Lm5ldC9DTj1ELVRSVVNUJTIwQ0ElMjAyLTIlMjAyMDE5LE89RC1UcnVzdCUyMEdt
YkgsQz1ERT9jZXJ0aWZpY2F0ZXJldm9jYXRpb25saXN0hjJodHRwOi8vY3JsLmQt
dHJ1c3QubmV0L2NybC9kLXRydXN0X2NhXzItMl8yMDE5LmNybIY7aHR0cDovL2Nk
bi5kLXRydXN0LWNsb3VkY3JsLm5ldC9jcmwvZC10cnVzdF9jYV8yLTJfMjAxOS5j
cmwwHQYDVR0OBBYEFDb5yZVKVRTanS5cQAxLMFImUSP1MA4GA1UdDwEB/wQEAwIG
wDA9BgkqhkiG9w0BAQowMKANMAsGCWCGSAFlAwQCA6EaMBgGCSqGSIb3DQEBCDAL
BglghkgBZQMEAgOiAwIBQAOCAgEAPagraZfttU4+4TL6LZwSsPsrU10IzldcU/hJ
0yGX1liGdQ9UNC0u0ZWZfqJQPpLfDCJtp82n45RjBIJGle92TjItgQaZNAb6xioq
O784hd053ZGSEIqTaMJy5ivm9tXWWUfaJ8K0FK2z2JKCCszleQkKbaFZiGLz2eWs
DLpc2227DIahyp0iqx/RBzoZuPA88YWFG3owGp9z0G2YZ6yYlv6CmPkS4mCgRTLD
iThDeTGrTKUYmaC/Sja6BRQsrPa/HW35Zez7OHQZu8aCWSebWZfmTbIZhGjL/D+e
Bl7VhtFMgAwVrh4OtGRP26+GdwTCb9uOv1FgS3VSD6vdu9LeWmurUoC0TlB73dVJ
ozDr1S986EwEspmgoziTLFxs3gYvkluxxLt2R/bZM18vHnhPuS1KIwd7E8QPCBMq
LlHc28JLgGfd9pca48rf0tCZU7R3TR7uQHv1wL50pi6JC4cozl7VRb9xRy+72nNj
4Q/O2l61CyLJF+4OFLkZkgzn/lVxIPh/jYGrKAo8yYY7dXfypOGsoyuynSot2iwx
9r4fRALtXGY8aIewpFn5YLIMKQGMpWUOuLERhiWml9ZJcpG4xukWrjCnynoj7uh3
2PZdRTi/y7U4sXmRcHsGzJm0WZopRwzn5D/nC7vpc6DduN4noWAXLEoM4uo+EAum
Et36Xak=
-----END CERTIFICATE-----
