Certificate:
    Data:
        Version: 3 (0x2)
        Serial Number:
            3d:40:26:ac:df:70:06:7f:9e:56:e1:ea:32:9f:1b:fd:b9:5f:3c:f3
    Signature Algorithm: sha256WithRSAEncryption
        Issuer: C = FR, O = Gouv, CN = CSCA-FRANCE
        Validity
            Not Before: Aug 14 22:00:00 2021 GMT
            Not After : Aug 14 22:00:00 2023 GMT
        Subject: C = FR, O = CNAM, OU = 180035024, CN = DSC_FR_021
        Subject Public Key Info:
            Public Key Algorithm: id-ecPublicKey
                Public-Key: (256 bit)
                pub:
                    04:d4:f0:29:4d:0f:e7:14:0e:89:71:85:2e:a3:b1:
                    a0:3f:e8:0f:48:a7:fd:f0:14:21:f3:c2:0a:1c:eb:
                    7f:c8:d4:bc:66:b8:f1:8c:bf:a5:55:8e:84:1f:8c:
                    b2:41:d6:d0:64:6a:92:f5:dd:92:7b:97:71:37:0c:
                    79:0b:78:f1:90
                ASN1 OID: prime256v1
                NIST CURVE: P-256
        X509v3 extensions:
            X509v3 Subject Key Identifier: 
                84:5B:B9:C1:08:69:C7:A2:FA:A4:BA:0C:5B:2E:72:51:90:A3:6A:3B
            X509v3 Authority Key Identifier: 
                keyid:BE:8A:2E:D6:C9:F9:20:4E:3A:27:03:08:97:4D:EC:FD:D9:7D:C5:E6

            X509v3 Basic Constraints: critical
                CA:FALSE
            X509v3 Key Usage: critical
                Digital Signature
            X509v3 CRL Distribution Points: 

                Full Name:
                  URI:http://ants.gouv.fr/csca_crl

            X509v3 Certificate Policies: 
                Policy: 1.2.250.1.200.31.3.9.1.1

            Authority Information Access: 
                CA Issuers - URI:https://ant.gouv.fr/csca

    Signature Algorithm: sha256WithRSAEncryption
         85:88:53:69:f3:23:54:a9:b2:00:52:61:4f:1e:f4:dc:a1:36:
         d7:57:cf:47:1d:d8:95:68:9d:e8:97:94:34:32:2e:61:34:1f:
         20:2d:32:3e:5b:ed:68:53:38:67:d4:d5:8a:81:dc:4f:0c:1e:
         11:fa:8d:8b:5d:2c:19:53:5b:5a:65:80:93:54:59:85:ac:b4:
         d5:50:b3:ce:c0:95:b1:c3:66:8b:6f:fb:9f:ea:80:20:76:56:
         80:bc:80:3a:32:59:da:35:43:89:d0:bc:31:61:90:8d:bf:ea:
         76:9b:b5:ce:1e:3a:00:88:95:99:f5:1f:87:2b:c1:7d:73:fb:
         75:02:a0:c7:e9:cf:ad:5f:87:87:1c:2e:69:51:9c:8b:f2:9c:
         70:52:07:a0:eb:b4:ae:db:63:b9:47:e0:d8:70:90:0a:be:02:
         8c:b2:99:f9:11:d7:9f:2e:b3:8d:f0:f7:47:d4:f5:b1:c9:dd:
         12:42:68:b7:62:ff:7f:49:48:21:97:b3:fa:84:f1:fd:6a:3c:
         8a:f3:68:cb:d0:bd:4f:7a:72:e9:ab:36:00:28:65:cf:5a:d7:
         48:d3:ec:74:96:7d:33:6a:5c:0a:4f:33:d4:8f:1f:02:ca:4e:
         bb:eb:84:7a:f5:cf:8a:0d:b4:73:10:73:d6:42:73:1e:b0:26:
         bd:83:d3:07:d2:53:c1:91:ea:7a:4d:b0:ae:20:10:ff:b3:b2:
         f7:68:56:c6:bf:fa:b6:79:1d:3c:2e:5a:29:4c:f4:9c:46:01:
         bc:95:96:ab:7a:8e:e0:ed:46:05:70:81:b7:c5:5d:5e:49:60:
         3c:7b:d9:0b:29:b6:61:cd:57:28:c7:61:b4:c5:4d:a4:e3:8e:
         65:5e:92:a1:24:e3:a2:2e:91:dc:4b:b6:55:23:10:09:df:11:
         29:87:3b:0e:32:ec:b3:41:45:eb:2e:6a:62:30:6a:9a:2c:e3:
         57:93:0a:4f:1b:71:28:50:3a:d9:05:05:d2:32:3f:f4:3c:a9:
         53:53:e4:dd:58:9a:b3:d4:69:16:42:e2:1c:4d:d4:71:57:46:
         31:b4:ef:01:ce:21:c0:7f:db:90:eb:60:d1:6e:e5:aa:71:ac:
         25:35:9d:73:c3:1b:9d:9d:db:95:5b:6b:5f:29:6f:78:70:3f:
         21:78:04:46:1c:88:dc:9d:18:0a:0d:e9:5a:32:5b:13:09:c4:
         aa:5b:54:6b:49:fd:de:8d:12:ea:c0:ef:ef:c9:6d:d6:e2:80:
         32:b7:b5:f8:95:10:d2:53:4d:1e:57:6d:96:35:7a:76:f7:10:
         ed:1f:9e:6e:cd:c6:11:95:32:0c:8d:b4:7e:68:48:70:d6:42:
         b6:63:9e:85:99:b9:7f:23
-----BEGIN CERTIFICATE-----
MIIEGzCCAgOgAwIBAgIUPUAmrN9wBn+eVuHqMp8b/blfPPMwDQYJKoZIhvcNAQEL
BQAwMjELMAkGA1UEBhMCRlIxDTALBgNVBAoMBEdvdXYxFDASBgNVBAMMC0NTQ0Et
RlJBTkNFMB4XDTIxMDgxNDIyMDAwMFoXDTIzMDgxNDIyMDAwMFowRTELMAkGA1UE
BhMCRlIxDTALBgNVBAoMBENOQU0xEjAQBgNVBAsMCTE4MDAzNTAyNDETMBEGA1UE
AwwKRFNDX0ZSXzAyMTBZMBMGByqGSM49AgEGCCqGSM49AwEHA0IABNTwKU0P5xQO
iXGFLqOxoD/oD0in/fAUIfPCChzrf8jUvGa48Yy/pVWOhB+MskHW0GRqkvXdknuX
cTcMeQt48ZCjgeAwgd0wHQYDVR0OBBYEFIRbucEIacei+qS6DFsuclGQo2o7MB8G
A1UdIwQYMBaAFL6KLtbJ+SBOOicDCJdN7P3ZfcXmMAwGA1UdEwEB/wQCMAAwDgYD
VR0PAQH/BAQDAgeAMC0GA1UdHwQmMCQwIqAgoB6GHGh0dHA6Ly9hbnRzLmdvdXYu
ZnIvY3NjYV9jcmwwGAYDVR0gBBEwDzANBgsqgXoBgUgfAwkBATA0BggrBgEFBQcB
AQQoMCYwJAYIKwYBBQUHMAKGGGh0dHBzOi8vYW50LmdvdXYuZnIvY3NjYTANBgkq
hkiG9w0BAQsFAAOCAgEAhYhTafMjVKmyAFJhTx703KE211fPRx3YlWid6JeUNDIu
YTQfIC0yPlvtaFM4Z9TVioHcTwweEfqNi10sGVNbWmWAk1RZhay01VCzzsCVscNm
i2/7n+qAIHZWgLyAOjJZ2jVDidC8MWGQjb/qdpu1zh46AIiVmfUfhyvBfXP7dQKg
x+nPrV+HhxwuaVGci/KccFIHoOu0rttjuUfg2HCQCr4CjLKZ+RHXny6zjfD3R9T1
scndEkJot2L/f0lIIZez+oTx/Wo8ivNoy9C9T3py6as2AChlz1rXSNPsdJZ9M2pc
Ck8z1I8fAspOu+uEevXPig20cxBz1kJzHrAmvYPTB9JTwZHqek2wriAQ/7Oy92hW
xr/6tnkdPC5aKUz0nEYBvJWWq3qO4O1GBXCBt8VdXklgPHvZCym2Yc1XKMdhtMVN
pOOOZV6SoSTjoi6R3Eu2VSMQCd8RKYc7DjLss0FF6y5qYjBqmizjV5MKTxtxKFA6
2QUF0jI/9DypU1Pk3Vias9RpFkLiHE3UcVdGMbTvAc4hwH/bkOtg0W7lqnGsJTWd
c8MbnZ3blVtrXylveHA/IXgERhyI3J0YCg3pWjJbEwnEqltUa0n93o0S6sDv78lt
1uKAMre1+JUQ0lNNHldtljV6dvcQ7R+ebs3GEZUyDI20fmhIcNZCtmOehZm5fyM=
-----END CERTIFICATE-----
