Certificate:
    Data:
        Version: 3 (0x2)
        Serial Number:
            7a:d6:4a:a5:37:15:ef:0d:7f:cc:7f:1d:0d:4d:ec:04
    Signature Algorithm: rsassaPss
         Hash Algorithm: sha512
         Mask Algorithm: mgf1 with sha512
         Salt Length: 0x40
         Trailer Field: 0xBC (default)
        Issuer: C = DE, O = D-Trust GmbH, CN = D-TRUST CA 2-2 2019, 2.5.4.97 = NTRDE-HRB74346
        Validity
            Not Before: Jun 18 10:12:55 2021 GMT
            Not After : Jun 22 10:12:55 2023 GMT
        Subject: C = DE, O = Robert Koch-Institut, OU = Elektronischer Impfnachweis, CN = Robert Koch-Institut, L = Berlin, postalCode = 13353, street = Nordufer 20, 2.5.4.97 = DT:DE-3023531445, serialNumber = CSM026523255, ST = Berlin
        Subject Public Key Info:
            Public Key Algorithm: id-ecPublicKey
                Public-Key: (256 bit)
                pub:
                    04:cc:8c:c7:46:a9:3b:ea:f0:c6:21:40:23:dd:d2:
                    28:dd:45:5e:bf:8d:6d:6a:4e:4f:e6:8c:4e:fb:36:
                    8e:96:c2:a7:c5:43:5b:a3:dc:aa:21:ca:4e:a3:bb:
                    2d:23:c5:8b:ae:27:f8:45:16:a2:66:84:34:b6:f6:
                    a1:48:71:f6:8b
                ASN1 OID: prime256v1
                NIST CURVE: P-256
        X509v3 extensions:
            X509v3 Extended Key Usage: 
                1.3.6.1.4.1.1847.2021.1.1
            X509v3 Authority Key Identifier: 
                keyid:71:10:32:AE:74:71:7B:54:8E:F1:D6:AB:62:54:AE:FC:3E:C0:BB:16

            qcStatements: 
                0.0......F..0......F..0......F...
            Authority Information Access: 
                CA Issuers - URI:http://www.d-trust.net/cgi-bin/D-TRUST_CA_2-2_2019.crt
                CA Issuers - URI:ldap://directory.d-trust.net/CN=D-TRUST%20CA%202-2%202019,O=D-Trust%20GmbH,C=DE?cACertificate?base?

            X509v3 Certificate Policies: 
                Policy: 0.4.0.194112.1.1
                Policy: 1.3.6.1.4.1.4788.2.150.5
                  CPS: http://www.d-trust.net/internet/files/D-TRUST_CSM_PKI_CPS.pdf

            X509v3 CRL Distribution Points: 

                Full Name:
                  URI:http://crl.d-trust.net/crl/d-trust_ca_2-2_2019.crl
                  URI:http://cdn.d-trust-cloudcrl.net/crl/d-trust_ca_2-2_2019.crl
                  URI:ldap://directory.d-trust.net/CN=D-TRUST%20CA%202-2%202019,O=D-Trust%20GmbH,C=DE?certificaterevocationlist

            X509v3 Subject Key Identifier: 
                7F:52:B9:73:81:E5:4B:F9:4F:93:97:A1:8D:62:B9:D0:33:3E:C5:9B
            X509v3 Key Usage: critical
                Digital Signature, Non Repudiation
    Signature Algorithm: rsassaPss
         Hash Algorithm: sha512
         Mask Algorithm: mgf1 with sha512
         Salt Length: 0x40
         Trailer Field: 0xBC (default)

         cb:5e:8b:3f:26:30:e9:da:44:e1:8a:99:a0:86:ca:6e:5e:72:
         96:d9:e7:b1:76:39:26:82:13:df:45:67:92:30:6a:94:6e:3a:
         0e:96:8f:62:3d:99:bb:4f:e2:30:a0:1e:e4:21:50:81:10:63:
         83:95:67:fe:2e:4a:45:62:90:13:f1:c6:a4:5a:57:e0:ac:cf:
         5a:e3:c5:99:de:53:f5:bc:d5:2e:1e:f2:dd:28:9d:3d:44:74:
         fe:40:b7:65:f5:73:d8:fe:41:75:07:a9:19:24:72:bb:bd:9e:
         7f:8e:ea:ce:05:b6:ea:0b:57:89:81:4f:72:cf:47:13:95:6d:
         a0:98:04:70:4a:84:3d:ba:56:e8:9c:96:1b:9c:cb:67:82:15:
         f8:4f:18:a5:9e:84:eb:d7:e1:95:5c:a2:3e:23:50:0a:6a:05:
         f2:e9:25:fc:93:db:80:2a:02:19:e5:89:92:66:64:4c:1e:ff:
         c9:19:c5:06:c4:12:3d:1a:61:e0:6b:20:2c:c6:93:29:b2:cc:
         cc:a3:80:ed:ae:47:e9:9c:51:63:70:e2:89:dd:75:7f:d5:16:
         2a:06:0a:c8:d3:19:6d:b0:a4:ae:7f:5b:0f:ed:2c:70:c2:0f:
         62:5d:0b:75:12:3b:1c:85:f1:1b:2d:87:0d:ed:11:a7:ed:2a:
         4b:c5:80:f3:32:7b:2f:43:7a:12:21:83:c0:a0:5e:17:28:68:
         c9:1d:0e:22:fe:cd:30:f8:2a:76:65:f9:28:62:71:0f:16:81:
         00:46:cd:c9:9b:55:3a:8e:c6:a8:90:8e:c9:b3:25:bf:5c:6c:
         f6:22:9d:48:26:2d:51:e2:5a:9d:13:d9:ef:1b:e7:70:55:2e:
         4d:2d:fd:5a:00:89:34:01:35:b4:b5:fa:49:c3:f5:3c:14:5a:
         88:0e:30:46:43:8c:f6:c1:1f:e4:e5:c5:ab:e2:c5:f7:94:c6:
         30:bf:20:b1:4b:b2:6a:83:54:06:fc:48:b0:df:8a:ac:a5:90:
         20:66:4d:0c:3a:88:6d:0c:7b:d8:0b:04:6c:ba:56:eb:46:b4:
         4f:8b:dd:f6:76:26:96:50:18:f4:ed:e3:c2:5d:0d:0a:89:64:
         61:87:12:8c:b9:11:d8:5b:f5:fc:2e:df:75:50:22:13:3d:e4:
         7f:c8:f7:41:63:7e:75:a8:e3:2a:0d:a1:c5:bc:d3:85:95:d6:
         dd:a9:48:9f:0a:ca:84:f5:be:ae:d6:05:74:e1:b1:16:72:7b:
         71:18:4a:43:82:fb:d4:c2:75:c7:4a:bb:67:b2:d8:f3:83:13:
         4e:bd:c3:bb:e1:e7:8a:0c:8d:ec:66:29:11:57:16:6d:d1:70:
         88:43:28:2d:0e:75:5f:4d
-----BEGIN CERTIFICATE-----
MIIHMDCCBOigAwIBAgIQetZKpTcV7w1/zH8dDU3sBDA9BgkqhkiG9w0BAQowMKAN
MAsGCWCGSAFlAwQCA6EaMBgGCSqGSIb3DQEBCDALBglghkgBZQMEAgOiAwIBQDBb
MQswCQYDVQQGEwJERTEVMBMGA1UEChMMRC1UcnVzdCBHbWJIMRwwGgYDVQQDExNE
LVRSVVNUIENBIDItMiAyMDE5MRcwFQYDVQRhEw5OVFJERS1IUkI3NDM0NjAeFw0y
MTA2MTgxMDEyNTVaFw0yMzA2MjIxMDEyNTVaMIHrMQswCQYDVQQGEwJERTEdMBsG
A1UEChMUUm9iZXJ0IEtvY2gtSW5zdGl0dXQxJDAiBgNVBAsTG0VsZWt0cm9uaXNj
aGVyIEltcGZuYWNod2VpczEdMBsGA1UEAxMUUm9iZXJ0IEtvY2gtSW5zdGl0dXQx
DzANBgNVBAcTBkJlcmxpbjEOMAwGA1UEEQwFMTMzNTMxFDASBgNVBAkTC05vcmR1
ZmVyIDIwMRkwFwYDVQRhExBEVDpERS0zMDIzNTMxNDQ1MRUwEwYDVQQFEwxDU00w
MjY1MjMyNTUxDzANBgNVBAgTBkJlcmxpbjBZMBMGByqGSM49AgEGCCqGSM49AwEH
A0IABMyMx0apO+rwxiFAI93SKN1FXr+NbWpOT+aMTvs2jpbCp8VDW6PcqiHKTqO7
LSPFi64n+EUWomaENLb2oUhx9oujggLIMIICxDAWBgNVHSUEDzANBgsrBgEEAY43
j2UBATAfBgNVHSMEGDAWgBRxEDKudHF7VI7x1qtiVK78PsC7FjAtBggrBgEFBQcB
AwQhMB8wCAYGBACORgEBMBMGBgQAjkYBBjAJBgcEAI5GAQYCMIHFBggrBgEFBQcB
AQSBuDCBtTBCBggrBgEFBQcwAoY2aHR0cDovL3d3dy5kLXRydXN0Lm5ldC9jZ2kt
YmluL0QtVFJVU1RfQ0FfMi0yXzIwMTkuY3J0MG8GCCsGAQUFBzAChmNsZGFwOi8v
ZGlyZWN0b3J5LmQtdHJ1c3QubmV0L0NOPUQtVFJVU1QlMjBDQSUyMDItMiUyMDIw
MTksTz1ELVRydXN0JTIwR21iSCxDPURFP2NBQ2VydGlmaWNhdGU/YmFzZT8wcAYD
VR0gBGkwZzAJBgcEAIvsQAEBMFoGCysGAQQBpTQCgRYFMEswSQYIKwYBBQUHAgEW
PWh0dHA6Ly93d3cuZC10cnVzdC5uZXQvaW50ZXJuZXQvZmlsZXMvRC1UUlVTVF9D
U01fUEtJX0NQUy5wZGYwgfAGA1UdHwSB6DCB5TCB4qCB36CB3IYyaHR0cDovL2Ny
bC5kLXRydXN0Lm5ldC9jcmwvZC10cnVzdF9jYV8yLTJfMjAxOS5jcmyGO2h0dHA6
Ly9jZG4uZC10cnVzdC1jbG91ZGNybC5uZXQvY3JsL2QtdHJ1c3RfY2FfMi0yXzIw
MTkuY3JshmlsZGFwOi8vZGlyZWN0b3J5LmQtdHJ1c3QubmV0L0NOPUQtVFJVU1Ql
MjBDQSUyMDItMiUyMDIwMTksTz1ELVRydXN0JTIwR21iSCxDPURFP2NlcnRpZmlj
YXRlcmV2b2NhdGlvbmxpc3QwHQYDVR0OBBYEFH9SuXOB5Uv5T5OXoY1iudAzPsWb
MA4GA1UdDwEB/wQEAwIGwDA9BgkqhkiG9w0BAQowMKANMAsGCWCGSAFlAwQCA6Ea
MBgGCSqGSIb3DQEBCDALBglghkgBZQMEAgOiAwIBQAOCAgEAy16LPyYw6dpE4YqZ
oIbKbl5yltnnsXY5JoIT30VnkjBqlG46DpaPYj2Zu0/iMKAe5CFQgRBjg5Vn/i5K
RWKQE/HGpFpX4KzPWuPFmd5T9bzVLh7y3SidPUR0/kC3ZfVz2P5BdQepGSRyu72e
f47qzgW26gtXiYFPcs9HE5VtoJgEcEqEPbpW6JyWG5zLZ4IV+E8YpZ6E69fhlVyi
PiNQCmoF8ukl/JPbgCoCGeWJkmZkTB7/yRnFBsQSPRph4GsgLMaTKbLMzKOA7a5H
6ZxRY3Diid11f9UWKgYKyNMZbbCkrn9bD+0scMIPYl0LdRI7HIXxGy2HDe0Rp+0q
S8WA8zJ7L0N6EiGDwKBeFyhoyR0OIv7NMPgqdmX5KGJxDxaBAEbNyZtVOo7GqJCO
ybMlv1xs9iKdSCYtUeJanRPZ7xvncFUuTS39WgCJNAE1tLX6ScP1PBRaiA4wRkOM
9sEf5OXFq+LF95TGML8gsUuyaoNUBvxIsN+KrKWQIGZNDDqIbQx72AsEbLpW60a0
T4vd9nYmllAY9O3jwl0NColkYYcSjLkR2Fv1/C7fdVAiEz3kf8j3QWN+dajjKg2h
xbzThZXW3alInwrKhPW+rtYFdOGxFnJ7cRhKQ4L71MJ1x0q7Z7LY84MTTr3Du+Hn
igyN7GYpEVcWbdFwiEMoLQ51X00=
-----END CERTIFICATE-----
