Certificate:
    Data:
        Version: 3 (0x2)
        Serial Number:
            75:35:dd:bd:ff:22:30:89:ac:56:a0:df:f8:84:d0:14
    Signature Algorithm: rsassaPss
         Hash Algorithm: sha512
         Mask Algorithm: mgf1 with sha512
         Salt Length: 0x40
         Trailer Field: 0xBC (default)
        Issuer: C = DE, O = D-Trust GmbH, CN = D-TRUST CA 2-2 2019, 2.5.4.97 = NTRDE-HRB74346
        Validity
            Not Before: Jun 24 13:13:27 2021 GMT
            Not After : Jun 28 13:13:27 2023 GMT
        Subject: C = DE, O = Robert Koch-Institut, OU = Elektronischer Impfnachweis, CN = Robert Koch-Institut, L = Berlin, postalCode = 13353, street = Nordufer 20, 2.5.4.97 = DT:DE-3023531445, serialNumber = CSM026571146, ST = Berlin
        Subject Public Key Info:
            Public Key Algorithm: id-ecPublicKey
                Public-Key: (256 bit)
                pub:
                    04:51:d3:cf:b2:4f:71:cd:8d:6f:33:5c:dd:8e:0b:
                    c7:0e:c4:42:49:3e:79:63:d4:89:04:95:17:23:9b:
                    aa:19:be:9c:92:94:fb:c5:01:46:6e:6f:96:19:0b:
                    85:27:d1:34:c3:76:72:ca:a6:fd:3f:f6:ec:30:94:
                    26:26:4a:e9:92
                ASN1 OID: prime256v1
                NIST CURVE: P-256
        X509v3 extensions:
            X509v3 Authority Key Identifier: 
                keyid:71:10:32:AE:74:71:7B:54:8E:F1:D6:AB:62:54:AE:FC:3E:C0:BB:16

            qcStatements: 
                0.0......F..0......F..0......F...
            Authority Information Access: 
                OCSP - URI:http://d-trust-ca-2-2-2019.ocsp.d-trust.net
                CA Issuers - URI:http://www.d-trust.net/cgi-bin/D-TRUST_CA_2-2_2019.crt
                CA Issuers - URI:ldap://directory.d-trust.net/CN=D-TRUST%20CA%202-2%202019,O=D-Trust%20GmbH,C=DE?cACertificate?base?

            X509v3 Certificate Policies: 
                Policy: 0.4.0.194112.1.1
                Policy: 1.3.6.1.4.1.4788.2.150.5
                  CPS: http://www.d-trust.net/internet/files/D-TRUST_CSM_PKI_CPS.pdf

            X509v3 CRL Distribution Points: 

                Full Name:
                  URI:http://crl.d-trust.net/crl/d-trust_ca_2-2_2019.crl
                  URI:http://cdn.d-trust-cloudcrl.net/crl/d-trust_ca_2-2_2019.crl
                  URI:ldap://directory.d-trust.net/CN=D-TRUST%20CA%202-2%202019,O=D-Trust%20GmbH,C=DE?certificaterevocationlist

            X509v3 Subject Key Identifier: 
                0C:29:0A:AA:E4:5B:23:5C:FA:0D:1D:00:5B:BD:10:26:BB:5C:BB:97
            X509v3 Key Usage: critical
                Digital Signature, Non Repudiation
    Signature Algorithm: rsassaPss
         Hash Algorithm: sha512
         Mask Algorithm: mgf1 with sha512
         Salt Length: 0x40
         Trailer Field: 0xBC (default)

         4b:5c:3f:9e:2b:13:f3:c0:f2:ae:16:85:86:14:da:88:3d:b8:
         15:5a:39:0c:11:7f:02:9b:4a:0c:19:d5:4c:30:8d:10:2f:d9:
         ce:c6:a2:88:26:0d:56:04:4a:3a:87:64:97:12:f7:5c:4a:29:
         d5:fd:53:e7:de:3e:33:32:01:7a:ca:83:bc:be:01:c2:c0:05:
         20:21:c0:3b:71:fa:5e:30:7a:40:05:a0:16:bb:3f:70:c0:16:
         32:9c:19:2c:d4:af:72:d0:6c:80:a5:34:0d:ab:75:3c:26:24:
         45:cc:53:4e:ff:28:dd:51:74:e3:42:df:83:e8:26:c7:19:fa:
         56:41:1a:82:48:0e:cd:f4:49:17:99:1b:e6:7f:47:bf:f1:60:
         d2:4f:ea:ea:81:a9:f6:9a:cb:07:93:45:cd:2f:aa:58:9a:21:
         14:f1:f9:fb:f1:94:f0:9f:44:ba:7d:bd:09:42:29:f0:86:1f:
         e4:9b:ce:82:25:0d:67:32:3a:30:f7:99:c8:de:b0:ba:13:82:
         2b:dc:a3:fe:43:35:cb:29:7d:b3:cb:2f:b8:84:2b:ad:dc:0d:
         39:b1:b5:ff:b1:01:5d:b9:27:a3:57:e1:82:4e:32:3c:5e:95:
         73:aa:3b:7e:52:a6:c4:b5:8b:95:0c:86:2d:0e:25:60:63:5c:
         36:67:f5:30:d7:78:ea:6c:16:27:d2:da:47:57:e4:87:98:9e:
         8b:98:a1:fb:05:fa:ec:8f:10:3e:64:31:a8:d5:db:bc:b5:81:
         68:a9:07:a8:b7:bd:f1:f0:ed:59:f0:a1:51:08:1d:54:07:ed:
         f8:17:04:cb:07:2b:3c:01:14:7c:41:dc:16:7e:28:43:1e:ff:
         f8:aa:5f:b2:a1:15:5d:08:6a:3c:c3:8f:30:64:2a:af:6e:8a:
         bb:6c:0c:9c:53:6c:ab:26:81:1d:a1:5f:33:ab:d2:27:17:44:
         50:23:ba:3d:c0:d7:5b:45:64:64:17:66:32:39:bc:f4:d5:d8:
         d9:1e:01:f4:70:34:64:6f:0e:a4:44:b0:0e:0b:bb:f6:0d:66:
         3f:ee:0e:29:72:8a:97:13:34:01:24:02:f2:5c:c8:65:56:43:
         c9:24:be:14:0b:a5:34:54:fc:d2:00:56:15:2b:78:86:36:3d:
         37:eb:bb:99:7a:5e:b6:21:42:37:e7:97:f3:4e:8a:08:e3:63:
         fd:65:5f:ca:3d:61:c4:c3:0d:2c:15:8c:09:7e:ad:2c:53:76:
         24:1a:7f:7d:e0:48:2f:11:f0:34:41:ce:5f:57:30:0c:9d:b9:
         2c:aa:54:15:65:c8:77:0e:06:e2:b7:ff:e0:6c:77:94:30:4e:
         ef:12:c5:33:db:9f:3a:3a
-----BEGIN CERTIFICATE-----
MIIHUTCCBQmgAwIBAgIQdTXdvf8iMImsVqDf+ITQFDA9BgkqhkiG9w0BAQowMKAN
MAsGCWCGSAFlAwQCA6EaMBgGCSqGSIb3DQEBCDALBglghkgBZQMEAgOiAwIBQDBb
MQswCQYDVQQGEwJERTEVMBMGA1UEChMMRC1UcnVzdCBHbWJIMRwwGgYDVQQDExNE
LVRSVVNUIENBIDItMiAyMDE5MRcwFQYDVQRhEw5OVFJERS1IUkI3NDM0NjAeFw0y
MTA2MjQxMzEzMjdaFw0yMzA2MjgxMzEzMjdaMIHrMQswCQYDVQQGEwJERTEdMBsG
A1UEChMUUm9iZXJ0IEtvY2gtSW5zdGl0dXQxJDAiBgNVBAsTG0VsZWt0cm9uaXNj
aGVyIEltcGZuYWNod2VpczEdMBsGA1UEAxMUUm9iZXJ0IEtvY2gtSW5zdGl0dXQx
DzANBgNVBAcTBkJlcmxpbjEOMAwGA1UEEQwFMTMzNTMxFDASBgNVBAkTC05vcmR1
ZmVyIDIwMRkwFwYDVQRhExBEVDpERS0zMDIzNTMxNDQ1MRUwEwYDVQQFEwxDU00w
MjY1NzExNDYxDzANBgNVBAgTBkJlcmxpbjBZMBMGByqGSM49AgEGCCqGSM49AwEH
A0IABFHTz7JPcc2NbzNc3Y4Lxw7EQkk+eWPUiQSVFyObqhm+nJKU+8UBRm5vlhkL
hSfRNMN2csqm/T/27DCUJiZK6ZKjggLpMIIC5TAfBgNVHSMEGDAWgBRxEDKudHF7
VI7x1qtiVK78PsC7FjAtBggrBgEFBQcBAwQhMB8wCAYGBACORgEBMBMGBgQAjkYB
BjAJBgcEAI5GAQYCMIH+BggrBgEFBQcBAQSB8TCB7jA3BggrBgEFBQcwAYYraHR0
cDovL2QtdHJ1c3QtY2EtMi0yLTIwMTkub2NzcC5kLXRydXN0Lm5ldDBCBggrBgEF
BQcwAoY2aHR0cDovL3d3dy5kLXRydXN0Lm5ldC9jZ2ktYmluL0QtVFJVU1RfQ0Ff
Mi0yXzIwMTkuY3J0MG8GCCsGAQUFBzAChmNsZGFwOi8vZGlyZWN0b3J5LmQtdHJ1
c3QubmV0L0NOPUQtVFJVU1QlMjBDQSUyMDItMiUyMDIwMTksTz1ELVRydXN0JTIw
R21iSCxDPURFP2NBQ2VydGlmaWNhdGU/YmFzZT8wcAYDVR0gBGkwZzAJBgcEAIvs
QAEBMFoGCysGAQQBpTQCgRYFMEswSQYIKwYBBQUHAgEWPWh0dHA6Ly93d3cuZC10
cnVzdC5uZXQvaW50ZXJuZXQvZmlsZXMvRC1UUlVTVF9DU01fUEtJX0NQUy5wZGYw
gfAGA1UdHwSB6DCB5TCB4qCB36CB3IYyaHR0cDovL2NybC5kLXRydXN0Lm5ldC9j
cmwvZC10cnVzdF9jYV8yLTJfMjAxOS5jcmyGO2h0dHA6Ly9jZG4uZC10cnVzdC1j
bG91ZGNybC5uZXQvY3JsL2QtdHJ1c3RfY2FfMi0yXzIwMTkuY3JshmlsZGFwOi8v
ZGlyZWN0b3J5LmQtdHJ1c3QubmV0L0NOPUQtVFJVU1QlMjBDQSUyMDItMiUyMDIw
MTksTz1ELVRydXN0JTIwR21iSCxDPURFP2NlcnRpZmljYXRlcmV2b2NhdGlvbmxp
c3QwHQYDVR0OBBYEFAwpCqrkWyNc+g0dAFu9ECa7XLuXMA4GA1UdDwEB/wQEAwIG
wDA9BgkqhkiG9w0BAQowMKANMAsGCWCGSAFlAwQCA6EaMBgGCSqGSIb3DQEBCDAL
BglghkgBZQMEAgOiAwIBQAOCAgEAS1w/nisT88DyrhaFhhTaiD24FVo5DBF/AptK
DBnVTDCNEC/ZzsaiiCYNVgRKOodklxL3XEop1f1T594+MzIBesqDvL4BwsAFICHA
O3H6XjB6QAWgFrs/cMAWMpwZLNSvctBsgKU0Dat1PCYkRcxTTv8o3VF040Lfg+gm
xxn6VkEagkgOzfRJF5kb5n9Hv/Fg0k/q6oGp9prLB5NFzS+qWJohFPH5+/GU8J9E
un29CUIp8IYf5JvOgiUNZzI6MPeZyN6wuhOCK9yj/kM1yyl9s8svuIQrrdwNObG1
/7EBXbkno1fhgk4yPF6Vc6o7flKmxLWLlQyGLQ4lYGNcNmf1MNd46mwWJ9LaR1fk
h5iei5ih+wX67I8QPmQxqNXbvLWBaKkHqLe98fDtWfChUQgdVAft+BcEywcrPAEU
fEHcFn4oQx7/+KpfsqEVXQhqPMOPMGQqr26Ku2wMnFNsqyaBHaFfM6vSJxdEUCO6
PcDXW0VkZBdmMjm89NXY2R4B9HA0ZG8OpESwDgu79g1mP+4OKXKKlxM0ASQC8lzI
ZVZDySS+FAulNFT80gBWFSt4hjY9N+u7mXpetiFCN+eX806KCONj/WVfyj1hxMMN
LBWMCX6tLFN2JBp/feBILxHwNEHOX1cwDJ25LKpUFWXIdw4G4rf/4Gx3lDBO7xLF
M9ufOjo=
-----END CERTIFICATE-----
