Certificate:
    Data:
        Version: 3 (0x2)
        Serial Number:
            49:3f:c3:66:99:e1:a9:84:73:e3:1a:e0:28:94:0e:26
    Signature Algorithm: rsassaPss
         Hash Algorithm: sha512
         Mask Algorithm: mgf1 with sha512
         Salt Length: 0x40
         Trailer Field: 0xBC (default)
        Issuer: C = DE, O = D-Trust GmbH, CN = D-TRUST CA 2-2 2019, 2.5.4.97 = NTRDE-HRB74346
        Validity
            Not Before: Jun 11 14:52:44 2021 GMT
            Not After : Jun 15 14:52:44 2023 GMT
        Subject: C = DE, O = Robert Koch-Institut, OU = Elektronischer Impfnachweis, CN = Robert Koch-Institut, L = Berlin, postalCode = 13353, street = Nordufer 20, 2.5.4.97 = DT:DE-3023531445, serialNumber = CSM026460071, ST = Berlin
        Subject Public Key Info:
            Public Key Algorithm: id-ecPublicKey
                Public-Key: (256 bit)
                pub:
                    04:78:bd:76:7e:7e:fe:9d:43:56:fb:d4:fd:cc:92:
                    da:89:91:75:f2:b7:f3:2f:52:3b:df:97:d3:fb:7c:
                    ee:2a:bc:91:dc:ad:a8:30:83:01:0c:56:eb:ac:b5:
                    6f:6b:75:1e:38:46:5a:cf:eb:14:c1:42:96:1c:c8:
                    36:1e:04:2d:b6
                ASN1 OID: prime256v1
                NIST CURVE: P-256
        X509v3 extensions:
            X509v3 Authority Key Identifier: 
                keyid:71:10:32:AE:74:71:7B:54:8E:F1:D6:AB:62:54:AE:FC:3E:C0:BB:16

            qcStatements: 
                0.0......F..0......F..0......F...
            Authority Information Access: 
                OCSP - URI:http://d-trust-ca-2-2-2019.ocsp.d-trust.net
                CA Issuers - URI:http://www.d-trust.net/cgi-bin/D-TRUST_CA_2-2_2019.crt
                CA Issuers - URI:ldap://directory.d-trust.net/CN=D-TRUST%20CA%202-2%202019,O=D-Trust%20GmbH,C=DE?cACertificate?base?

            X509v3 Certificate Policies: 
                Policy: 0.4.0.194112.1.1
                Policy: 1.3.6.1.4.1.4788.2.150.5
                  CPS: http://www.d-trust.net/internet/files/D-TRUST_CSM_PKI_CPS.pdf

            X509v3 CRL Distribution Points: 

                Full Name:
                  URI:ldap://directory.d-trust.net/CN=D-TRUST%20CA%202-2%202019,O=D-Trust%20GmbH,C=DE?certificaterevocationlist
                  URI:http://crl.d-trust.net/crl/d-trust_ca_2-2_2019.crl
                  URI:http://cdn.d-trust-cloudcrl.net/crl/d-trust_ca_2-2_2019.crl

            X509v3 Subject Key Identifier: 
                2A:8D:58:60:66:D8:18:75:48:48:77:97:C3:0B:6B:D7:38:27:5C:CA
            X509v3 Key Usage: critical
                Digital Signature, Non Repudiation
    Signature Algorithm: rsassaPss
         Hash Algorithm: sha512
         Mask Algorithm: mgf1 with sha512
         Salt Length: 0x40
         Trailer Field: 0xBC (default)

         14:5d:c4:20:b0:d8:75:06:60:67:15:11:ce:68:67:99:06:59:
         dd:6e:79:15:2a:23:dd:c2:e6:cc:9e:71:20:cd:b3:ed:3f:ce:
         6b:6d:57:c1:e9:c9:ed:82:13:15:09:04:0e:91:d4:bc:10:e3:
         2f:85:75:53:69:d9:4f:48:46:6c:f5:52:b1:80:58:67:88:3a:
         a5:6f:e9:e2:31:12:19:29:88:9a:c4:6d:11:71:53:de:55:d9:
         87:fe:b4:ea:0f:e6:59:a4:49:89:8e:e8:7c:3c:2c:d1:7e:c3:
         c5:33:a0:74:c1:e3:09:06:3d:38:0a:7a:93:f2:da:9b:c9:3c:
         d1:3b:16:cf:5c:9e:97:4b:c0:0f:07:e8:af:9c:4c:fa:8a:19:
         1b:ac:68:2b:78:56:bf:e1:ff:6a:86:a9:d5:c0:1a:f6:e0:78:
         e1:b0:a5:b0:17:ac:fd:42:44:92:ea:d3:0f:64:10:99:b4:a3:
         d3:52:cc:1c:c1:80:46:e8:b3:89:93:0b:e8:cf:41:ce:0c:c0:
         0c:59:d3:4f:da:e3:82:29:a6:5c:e9:2a:c8:d9:11:45:a1:d0:
         64:e8:90:69:1d:03:15:1d:89:50:b4:d3:4c:b8:29:c1:8e:9a:
         a7:46:f8:da:97:c0:f9:3e:99:7e:d2:f5:30:d3:12:bc:b8:0e:
         63:8e:5c:0d:49:1a:e0:a3:d3:bc:e3:e8:a5:5f:09:83:fd:14:
         45:8c:b6:7f:0c:d7:1b:fe:e7:10:0c:14:bd:76:20:75:4e:f6:
         67:94:36:c0:f2:a2:1d:05:1b:fe:ca:c8:7d:34:d3:fe:10:bd:
         c2:97:e4:65:2f:43:38:c0:8f:24:3b:16:13:45:5a:18:bf:da:
         39:d5:ee:cb:41:bb:2a:8b:0f:1f:f9:d4:9c:05:82:8f:a5:9c:
         c4:b7:b6:38:83:16:0d:92:a9:41:f4:cc:d9:14:a8:5d:d9:4d:
         a9:9f:d0:a2:cc:af:07:f7:19:a2:a7:49:5d:29:e4:73:b0:8d:
         0e:a1:06:34:27:e8:d9:e5:7b:c1:68:c1:73:e8:c7:fe:c9:16:
         19:1a:ce:ab:7e:96:bc:5e:86:1d:78:7c:8d:56:05:9b:59:e1:
         ec:1e:76:3b:9c:cb:7e:f4:60:bc:9d:18:7c:eb:42:00:ed:22:
         08:1a:43:69:24:22:72:2a:66:da:e4:71:4e:7a:0e:4a:fa:30:
         6f:10:f2:69:88:09:ec:ec:5d:10:5c:1d:2e:ae:a5:70:2b:8a:
         a7:bf:e6:45:01:ec:1c:2b:21:66:7d:c0:62:46:d5:20:d0:3a:
         65:bf:42:6e:d2:06:48:7b:7b:cf:8f:47:98:a1:cb:f3:fe:b8:
         31:92:d9:4f:29:ba:4a:63
-----BEGIN CERTIFICATE-----
MIIHUTCCBQmgAwIBAgIQST/DZpnhqYRz4xrgKJQOJjA9BgkqhkiG9w0BAQowMKAN
MAsGCWCGSAFlAwQCA6EaMBgGCSqGSIb3DQEBCDALBglghkgBZQMEAgOiAwIBQDBb
MQswCQYDVQQGEwJERTEVMBMGA1UEChMMRC1UcnVzdCBHbWJIMRwwGgYDVQQDExNE
LVRSVVNUIENBIDItMiAyMDE5MRcwFQYDVQRhEw5OVFJERS1IUkI3NDM0NjAeFw0y
MTA2MTExNDUyNDRaFw0yMzA2MTUxNDUyNDRaMIHrMQswCQYDVQQGEwJERTEdMBsG
A1UEChMUUm9iZXJ0IEtvY2gtSW5zdGl0dXQxJDAiBgNVBAsTG0VsZWt0cm9uaXNj
aGVyIEltcGZuYWNod2VpczEdMBsGA1UEAxMUUm9iZXJ0IEtvY2gtSW5zdGl0dXQx
DzANBgNVBAcTBkJlcmxpbjEOMAwGA1UEEQwFMTMzNTMxFDASBgNVBAkTC05vcmR1
ZmVyIDIwMRkwFwYDVQRhExBEVDpERS0zMDIzNTMxNDQ1MRUwEwYDVQQFEwxDU00w
MjY0NjAwNzExDzANBgNVBAgTBkJlcmxpbjBZMBMGByqGSM49AgEGCCqGSM49AwEH
A0IABHi9dn5+/p1DVvvU/cyS2omRdfK38y9SO9+X0/t87iq8kdytqDCDAQxW66y1
b2t1HjhGWs/rFMFClhzINh4ELbajggLpMIIC5TAfBgNVHSMEGDAWgBRxEDKudHF7
VI7x1qtiVK78PsC7FjAtBggrBgEFBQcBAwQhMB8wCAYGBACORgEBMBMGBgQAjkYB
BjAJBgcEAI5GAQYCMIH+BggrBgEFBQcBAQSB8TCB7jA3BggrBgEFBQcwAYYraHR0
cDovL2QtdHJ1c3QtY2EtMi0yLTIwMTkub2NzcC5kLXRydXN0Lm5ldDBCBggrBgEF
BQcwAoY2aHR0cDovL3d3dy5kLXRydXN0Lm5ldC9jZ2ktYmluL0QtVFJVU1RfQ0Ff
Mi0yXzIwMTkuY3J0MG8GCCsGAQUFBzAChmNsZGFwOi8vZGlyZWN0b3J5LmQtdHJ1
c3QubmV0L0NOPUQtVFJVU1QlMjBDQSUyMDItMiUyMDIwMTksTz1ELVRydXN0JTIw
R21iSCxDPURFP2NBQ2VydGlmaWNhdGU/YmFzZT8wcAYDVR0gBGkwZzAJBgcEAIvs
QAEBMFoGCysGAQQBpTQCgRYFMEswSQYIKwYBBQUHAgEWPWh0dHA6Ly93d3cuZC10
cnVzdC5uZXQvaW50ZXJuZXQvZmlsZXMvRC1UUlVTVF9DU01fUEtJX0NQUy5wZGYw
gfAGA1UdHwSB6DCB5TCB4qCB36CB3IZpbGRhcDovL2RpcmVjdG9yeS5kLXRydXN0
Lm5ldC9DTj1ELVRSVVNUJTIwQ0ElMjAyLTIlMjAyMDE5LE89RC1UcnVzdCUyMEdt
YkgsQz1ERT9jZXJ0aWZpY2F0ZXJldm9jYXRpb25saXN0hjJodHRwOi8vY3JsLmQt
dHJ1c3QubmV0L2NybC9kLXRydXN0X2NhXzItMl8yMDE5LmNybIY7aHR0cDovL2Nk
bi5kLXRydXN0LWNsb3VkY3JsLm5ldC9jcmwvZC10cnVzdF9jYV8yLTJfMjAxOS5j
cmwwHQYDVR0OBBYEFCqNWGBm2Bh1SEh3l8MLa9c4J1zKMA4GA1UdDwEB/wQEAwIG
wDA9BgkqhkiG9w0BAQowMKANMAsGCWCGSAFlAwQCA6EaMBgGCSqGSIb3DQEBCDAL
BglghkgBZQMEAgOiAwIBQAOCAgEAFF3EILDYdQZgZxURzmhnmQZZ3W55FSoj3cLm
zJ5xIM2z7T/Oa21XwenJ7YITFQkEDpHUvBDjL4V1U2nZT0hGbPVSsYBYZ4g6pW/p
4jESGSmImsRtEXFT3lXZh/606g/mWaRJiY7ofDws0X7DxTOgdMHjCQY9OAp6k/La
m8k80TsWz1yel0vADwfor5xM+ooZG6xoK3hWv+H/aoap1cAa9uB44bClsBes/UJE
kurTD2QQmbSj01LMHMGARuiziZML6M9BzgzADFnTT9rjgimmXOkqyNkRRaHQZOiQ
aR0DFR2JULTTTLgpwY6ap0b42pfA+T6ZftL1MNMSvLgOY45cDUka4KPTvOPopV8J
g/0URYy2fwzXG/7nEAwUvXYgdU72Z5Q2wPKiHQUb/srIfTTT/hC9wpfkZS9DOMCP
JDsWE0VaGL/aOdXuy0G7KosPH/nUnAWCj6WcxLe2OIMWDZKpQfTM2RSoXdlNqZ/Q
osyvB/cZoqdJXSnkc7CNDqEGNCfo2eV7wWjBc+jH/skWGRrOq36WvF6GHXh8jVYF
m1nh7B52O5zLfvRgvJ0YfOtCAO0iCBpDaSQicipm2uRxTnoOSvowbxDyaYgJ7Oxd
EFwdLq6lcCuKp7/mRQHsHCshZn3AYkbVINA6Zb9CbtIGSHt7z49HmKHL8/64MZLZ
Tym6SmM=
-----END CERTIFICATE-----
