Certificate:
    Data:
        Version: 3 (0x2)
        Serial Number:
            1b:15:bd:ef:23:72:df:44:9e:7e:e9:9e:34:03:f7:cd:9c:08:34:b3
    Signature Algorithm: sha256WithRSAEncryption
        Issuer: C = FR, O = Gouv, CN = CSCA-FRANCE
        Validity
            Not Before: Sep 23 22:00:00 2021 GMT
            Not After : Sep 23 22:00:00 2023 GMT
        Subject: C = FR, O = DGS, OU = 120036017, CN = DSC_FR_017
        Subject Public Key Info:
            Public Key Algorithm: id-ecPublicKey
                Public-Key: (256 bit)
                pub:
                    04:94:a1:6a:e0:f4:81:95:52:6e:c9:2a:17:3f:78:
                    00:30:ba:3a:bf:c0:7f:30:23:83:61:12:b5:38:55:
                    26:06:4e:c9:fe:47:e7:46:6b:ff:6b:a9:2c:04:88:
                    21:c2:30:dc:e2:76:71:d7:62:0a:52:f8:69:b9:a9:
                    15:92:14:c6:c5
                ASN1 OID: prime256v1
                NIST CURVE: P-256
        X509v3 extensions:
            X509v3 Subject Key Identifier: 
                EB:92:9F:D3:64:62:E7:CF:FA:34:C2:8F:AF:7D:C9:F9:6C:FC:96:B6
            X509v3 Authority Key Identifier: 
                keyid:BE:8A:2E:D6:C9:F9:20:4E:3A:27:03:08:97:4D:EC:FD:D9:7D:C5:E6

            X509v3 Basic Constraints: critical
                CA:FALSE
            X509v3 Key Usage: critical
                Digital Signature
            X509v3 CRL Distribution Points: 

                Full Name:
                  URI:http://ants.gouv.fr/csca_crl

            X509v3 Certificate Policies: 
                Policy: 1.2.250.1.200.31.3.9.1.1

            Authority Information Access: 
                CA Issuers - URI:https://ant.gouv.fr/csca

    Signature Algorithm: sha256WithRSAEncryption
         80:0f:b2:00:9e:c2:1a:d9:5a:c6:76:6a:7b:92:fe:53:8f:8f:
         65:85:8e:05:83:3a:61:bd:40:7c:61:c3:c6:3f:2f:84:b6:b0:
         06:8b:eb:94:d6:12:93:fe:76:c6:78:1f:36:7f:dd:a7:8f:5d:
         a2:41:41:79:ee:0c:11:49:a9:46:01:4b:e5:93:3e:1c:db:62:
         fd:76:de:69:95:ae:ee:e7:84:c8:d3:c1:8f:3a:64:79:c1:4b:
         3c:ce:2c:58:69:90:e3:01:d3:6b:f9:66:df:81:b0:f3:aa:27:
         f0:96:1a:e3:20:c6:ca:c0:27:d6:db:6d:7c:ee:1c:5c:ad:08:
         03:e2:05:5c:f7:6e:c4:ca:bb:85:98:9c:71:48:33:49:df:73:
         71:16:46:74:b9:74:b9:4c:c3:7d:81:62:ee:23:ec:61:72:8b:
         0b:79:6f:52:97:0b:1c:2c:8f:56:36:a0:62:83:39:67:fe:72:
         c0:1d:8c:c1:a5:2f:a5:a6:b1:d5:39:af:a3:27:39:2d:94:96:
         c0:4c:1e:34:04:2c:fd:8e:91:9c:08:38:24:51:30:8d:67:9c:
         f7:a4:e1:da:b3:6a:d5:9b:66:81:2d:c1:d5:b6:d5:5b:a6:cf:
         b2:9d:8c:32:5a:d4:88:da:3a:fd:a0:de:86:cd:dc:92:e8:96:
         72:93:1b:ea:1a:86:4e:de:87:61:c5:ee:b5:8a:85:61:8f:28:
         47:f9:ef:66:40:8b:e9:33:ba:89:db:f9:b1:50:5a:77:34:3d:
         b9:db:09:a7:19:6f:45:bb:36:c5:6a:61:ff:48:60:fa:2e:2a:
         4f:57:25:ca:e2:85:b6:9f:16:1c:37:b1:63:75:cd:70:ff:9a:
         c7:5f:3d:ec:61:f2:06:39:17:eb:ba:64:9e:46:77:c8:75:78:
         25:7e:c4:22:f9:3d:7d:70:0f:e4:c1:bb:86:6a:08:c6:1e:7b:
         4d:d9:b9:d9:3f:f1:43:be:cd:3b:3e:08:b1:34:08:b7:e7:b0:
         40:02:ec:29:1c:a3:07:8b:05:d2:8d:35:b8:b2:6c:78:f9:a8:
         11:54:89:46:67:8c:ee:11:05:cb:3e:91:52:c1:6d:24:b4:f7:
         8b:76:be:03:46:d7:cb:f1:c4:5a:bf:94:2c:e5:3a:c6:d3:67:
         37:94:93:ff:3d:00:27:a5:7a:5b:18:12:26:8c:09:81:b1:ab:
         7e:d2:6e:e7:b8:15:3b:23:1d:c5:fc:0e:47:06:44:a5:48:75:
         20:bf:0f:59:7b:73:d9:53:1c:39:8a:0b:0c:9b:47:84:71:de:
         a1:de:18:71:57:c1:d9:71:2e:34:23:9d:f2:f6:5e:b7:82:bf:
         63:d4:c6:ac:ec:17:dc:79
-----BEGIN CERTIFICATE-----
MIIEGjCCAgKgAwIBAgIUGxW97yNy30SefumeNAP3zZwINLMwDQYJKoZIhvcNAQEL
BQAwMjELMAkGA1UEBhMCRlIxDTALBgNVBAoMBEdvdXYxFDASBgNVBAMMC0NTQ0Et
RlJBTkNFMB4XDTIxMDkyMzIyMDAwMFoXDTIzMDkyMzIyMDAwMFowRDELMAkGA1UE
BhMCRlIxDDAKBgNVBAoMA0RHUzESMBAGA1UECwwJMTIwMDM2MDE3MRMwEQYDVQQD
DApEU0NfRlJfMDE3MFkwEwYHKoZIzj0CAQYIKoZIzj0DAQcDQgAElKFq4PSBlVJu
ySoXP3gAMLo6v8B/MCODYRK1OFUmBk7J/kfnRmv/a6ksBIghwjDc4nZx12IKUvhp
uakVkhTGxaOB4DCB3TAdBgNVHQ4EFgQU65Kf02Ri58/6NMKPr33J+Wz8lrYwHwYD
VR0jBBgwFoAUvoou1sn5IE46JwMIl03s/dl9xeYwDAYDVR0TAQH/BAIwADAOBgNV
HQ8BAf8EBAMCB4AwLQYDVR0fBCYwJDAioCCgHoYcaHR0cDovL2FudHMuZ291di5m
ci9jc2NhX2NybDAYBgNVHSAEETAPMA0GCyqBegGBSB8DCQEBMDQGCCsGAQUFBwEB
BCgwJjAkBggrBgEFBQcwAoYYaHR0cHM6Ly9hbnQuZ291di5mci9jc2NhMA0GCSqG
SIb3DQEBCwUAA4ICAQCAD7IAnsIa2VrGdmp7kv5Tj49lhY4FgzphvUB8YcPGPy+E
trAGi+uU1hKT/nbGeB82f92nj12iQUF57gwRSalGAUvlkz4c22L9dt5pla7u54TI
08GPOmR5wUs8zixYaZDjAdNr+WbfgbDzqifwlhrjIMbKwCfW22187hxcrQgD4gVc
927EyruFmJxxSDNJ33NxFkZ0uXS5TMN9gWLuI+xhcosLeW9SlwscLI9WNqBigzln
/nLAHYzBpS+lprHVOa+jJzktlJbATB40BCz9jpGcCDgkUTCNZ5z3pOHas2rVm2aB
LcHVttVbps+ynYwyWtSI2jr9oN6GzdyS6JZykxvqGoZO3odhxe61ioVhjyhH+e9m
QIvpM7qJ2/mxUFp3ND252wmnGW9FuzbFamH/SGD6LipPVyXK4oW2nxYcN7Fjdc1w
/5rHXz3sYfIGORfrumSeRnfIdXglfsQi+T19cA/kwbuGagjGHntN2bnZP/FDvs07
PgixNAi357BAAuwpHKMHiwXSjTW4smx4+agRVIlGZ4zuEQXLPpFSwW0ktPeLdr4D
RtfL8cRav5Qs5TrG02c3lJP/PQAnpXpbGBImjAmBsat+0m7nuBU7Ix3F/A5HBkSl
SHUgvw9Ze3PZUxw5igsMm0eEcd6h3hhxV8HZcS40I53y9l63gr9j1Mas7BfceQ==
-----END CERTIFICATE-----
