Certificate:
    Data:
        Version: 3 (0x2)
        Serial Number:
            51:ed:93:18:25:2e:b1:3e:77:a1:20:0e:10:b0:be:27
    Signature Algorithm: rsassaPss
         Hash Algorithm: sha512
         Mask Algorithm: mgf1 with sha512
         Salt Length: 0x40
         Trailer Field: 0xBC (default)
        Issuer: C = DE, O = D-Trust GmbH, CN = D-TRUST CA 2-2 2019, 2.5.4.97 = NTRDE-HRB74346
        Validity
            Not Before: Jun 11 14:53:43 2021 GMT
            Not After : Jun 15 14:53:43 2023 GMT
        Subject: C = DE, O = Robert Koch-Institut, OU = Elektronischer Impfnachweis, CN = Robert Koch-Institut, L = Berlin, postalCode = 13353, street = Nordufer 20, 2.5.4.97 = DT:DE-3023531445, serialNumber = CSM026460099, ST = Berlin
        Subject Public Key Info:
            Public Key Algorithm: id-ecPublicKey
                Public-Key: (256 bit)
                pub:
                    04:e6:ca:8e:a5:6e:31:eb:a1:e6:72:9a:2c:a3:1e:
                    34:e8:b1:51:5b:21:88:bc:7d:82:03:e0:e2:ee:98:
                    2f:59:82:09:2d:7e:ec:a1:31:37:e9:82:b1:e7:7b:
                    cf:61:15:21:2a:dc:de:c4:9e:e7:23:dd:0c:b4:29:
                    60:e8:db:13:03
                ASN1 OID: prime256v1
                NIST CURVE: P-256
        X509v3 extensions:
            X509v3 Authority Key Identifier: 
                keyid:71:10:32:AE:74:71:7B:54:8E:F1:D6:AB:62:54:AE:FC:3E:C0:BB:16

            qcStatements: 
                0.0......F..0......F..0......F...
            Authority Information Access: 
                OCSP - URI:http://d-trust-ca-2-2-2019.ocsp.d-trust.net
                CA Issuers - URI:http://www.d-trust.net/cgi-bin/D-TRUST_CA_2-2_2019.crt
                CA Issuers - URI:ldap://directory.d-trust.net/CN=D-TRUST%20CA%202-2%202019,O=D-Trust%20GmbH,C=DE?cACertificate?base?

            X509v3 Certificate Policies: 
                Policy: 0.4.0.194112.1.1
                Policy: 1.3.6.1.4.1.4788.2.150.5
                  CPS: http://www.d-trust.net/internet/files/D-TRUST_CSM_PKI_CPS.pdf

            X509v3 CRL Distribution Points: 

                Full Name:
                  URI:ldap://directory.d-trust.net/CN=D-TRUST%20CA%202-2%202019,O=D-Trust%20GmbH,C=DE?certificaterevocationlist
                  URI:http://crl.d-trust.net/crl/d-trust_ca_2-2_2019.crl
                  URI:http://cdn.d-trust-cloudcrl.net/crl/d-trust_ca_2-2_2019.crl

            X509v3 Subject Key Identifier: 
                AA:A6:73:92:FF:E9:13:4A:83:75:FE:B3:F3:FC:7D:9D:65:A5:60:59
            X509v3 Key Usage: critical
                Digital Signature, Non Repudiation
    Signature Algorithm: rsassaPss
         Hash Algorithm: sha512
         Mask Algorithm: mgf1 with sha512
         Salt Length: 0x40
         Trailer Field: 0xBC (default)

         61:3e:a8:89:99:81:68:af:16:f0:89:2b:0b:24:7c:f1:9b:6f:
         eb:7a:09:ef:b9:2f:75:b1:a9:79:80:50:84:17:9f:1b:0c:93:
         db:0e:ff:ed:f3:13:ac:54:de:30:6d:eb:5c:5c:4f:6b:ff:f9:
         98:e9:8e:57:28:6f:11:d5:83:ea:f2:0a:1c:00:5c:ca:ee:8f:
         fc:91:40:5d:36:6d:01:db:f7:c0:2c:c6:90:b3:db:f3:ab:bb:
         1d:da:d4:a9:63:8b:64:25:ec:aa:72:cd:a2:47:ce:c1:9e:2d:
         2a:46:8e:1d:fc:7e:98:5e:a2:0c:0c:52:8d:11:6f:3e:53:de:
         f1:23:9c:af:33:01:24:83:c2:a2:24:a4:07:b0:74:9d:0a:f7:
         07:3e:d0:28:b8:79:50:78:61:c9:ce:e6:14:96:c4:df:c9:fa:
         07:12:81:c2:48:3a:92:01:71:50:71:7b:45:f9:b7:ec:10:31:
         05:9a:aa:06:84:ae:82:e2:9e:7d:90:48:45:df:6c:0b:8e:a0:
         9e:bd:a9:c4:63:79:72:d5:02:12:df:ba:f8:6e:e5:e8:b4:b1:
         50:ea:7d:af:09:60:ad:36:34:a6:d5:63:93:6a:52:06:c9:47:
         26:eb:e1:a9:2e:d9:95:ab:15:f9:e7:8c:10:7d:05:8e:ac:55:
         2a:04:11:58:77:67:7e:3a:6f:34:ee:2d:86:76:4a:d2:d7:16:
         fc:1f:43:8b:f5:2e:2a:37:e9:2a:13:3e:ac:32:2b:8d:78:e9:
         b3:23:84:4b:13:1b:4b:73:8e:b5:e2:01:05:91:b5:d6:7c:b4:
         cd:7a:71:f0:95:ff:ec:6c:9e:9b:d4:a8:84:41:51:79:74:21:
         d1:4d:1e:3e:a5:d3:d1:5b:27:e7:98:ed:e4:94:ad:c4:06:4d:
         d5:05:99:80:36:8a:55:b1:6c:61:16:f0:9e:13:f5:7c:86:19:
         72:91:1c:0a:e9:3a:de:c4:6d:4d:b2:13:d0:ae:a3:53:c8:2b:
         59:d6:eb:3d:8e:c7:40:03:2a:16:d2:db:90:99:53:49:7b:f9:
         8c:b8:77:5c:16:03:58:32:60:dc:3a:26:d1:34:44:9a:8e:b7:
         b6:fd:67:0b:96:ff:e9:24:30:34:d0:dc:c5:86:f6:47:d8:dd:
         de:79:dd:ff:75:9d:0f:33:7b:21:89:a4:2c:23:b7:cd:47:ff:
         62:d4:8c:f9:70:55:b7:ed:06:ac:c2:a3:fc:c2:dd:5b:ba:ca:
         7d:23:72:8c:75:c2:47:d8:23:44:65:40:6d:44:33:de:11:0f:
         6a:29:8c:c9:50:fb:15:c4:4f:0c:3f:73:ae:80:3c:d7:d0:f9:
         d2:70:51:ae:7c:57:39:65
-----BEGIN CERTIFICATE-----
MIIHUTCCBQmgAwIBAgIQUe2TGCUusT53oSAOELC+JzA9BgkqhkiG9w0BAQowMKAN
MAsGCWCGSAFlAwQCA6EaMBgGCSqGSIb3DQEBCDALBglghkgBZQMEAgOiAwIBQDBb
MQswCQYDVQQGEwJERTEVMBMGA1UEChMMRC1UcnVzdCBHbWJIMRwwGgYDVQQDExNE
LVRSVVNUIENBIDItMiAyMDE5MRcwFQYDVQRhEw5OVFJERS1IUkI3NDM0NjAeFw0y
MTA2MTExNDUzNDNaFw0yMzA2MTUxNDUzNDNaMIHrMQswCQYDVQQGEwJERTEdMBsG
A1UEChMUUm9iZXJ0IEtvY2gtSW5zdGl0dXQxJDAiBgNVBAsTG0VsZWt0cm9uaXNj
aGVyIEltcGZuYWNod2VpczEdMBsGA1UEAxMUUm9iZXJ0IEtvY2gtSW5zdGl0dXQx
DzANBgNVBAcTBkJlcmxpbjEOMAwGA1UEEQwFMTMzNTMxFDASBgNVBAkTC05vcmR1
ZmVyIDIwMRkwFwYDVQRhExBEVDpERS0zMDIzNTMxNDQ1MRUwEwYDVQQFEwxDU00w
MjY0NjAwOTkxDzANBgNVBAgTBkJlcmxpbjBZMBMGByqGSM49AgEGCCqGSM49AwEH
A0IABObKjqVuMeuh5nKaLKMeNOixUVshiLx9ggPg4u6YL1mCCS1+7KExN+mCsed7
z2EVISrc3sSe5yPdDLQpYOjbEwOjggLpMIIC5TAfBgNVHSMEGDAWgBRxEDKudHF7
VI7x1qtiVK78PsC7FjAtBggrBgEFBQcBAwQhMB8wCAYGBACORgEBMBMGBgQAjkYB
BjAJBgcEAI5GAQYCMIH+BggrBgEFBQcBAQSB8TCB7jA3BggrBgEFBQcwAYYraHR0
cDovL2QtdHJ1c3QtY2EtMi0yLTIwMTkub2NzcC5kLXRydXN0Lm5ldDBCBggrBgEF
BQcwAoY2aHR0cDovL3d3dy5kLXRydXN0Lm5ldC9jZ2ktYmluL0QtVFJVU1RfQ0Ff
Mi0yXzIwMTkuY3J0MG8GCCsGAQUFBzAChmNsZGFwOi8vZGlyZWN0b3J5LmQtdHJ1
c3QubmV0L0NOPUQtVFJVU1QlMjBDQSUyMDItMiUyMDIwMTksTz1ELVRydXN0JTIw
R21iSCxDPURFP2NBQ2VydGlmaWNhdGU/YmFzZT8wcAYDVR0gBGkwZzAJBgcEAIvs
QAEBMFoGCysGAQQBpTQCgRYFMEswSQYIKwYBBQUHAgEWPWh0dHA6Ly93d3cuZC10
cnVzdC5uZXQvaW50ZXJuZXQvZmlsZXMvRC1UUlVTVF9DU01fUEtJX0NQUy5wZGYw
gfAGA1UdHwSB6DCB5TCB4qCB36CB3IZpbGRhcDovL2RpcmVjdG9yeS5kLXRydXN0
Lm5ldC9DTj1ELVRSVVNUJTIwQ0ElMjAyLTIlMjAyMDE5LE89RC1UcnVzdCUyMEdt
YkgsQz1ERT9jZXJ0aWZpY2F0ZXJldm9jYXRpb25saXN0hjJodHRwOi8vY3JsLmQt
dHJ1c3QubmV0L2NybC9kLXRydXN0X2NhXzItMl8yMDE5LmNybIY7aHR0cDovL2Nk
bi5kLXRydXN0LWNsb3VkY3JsLm5ldC9jcmwvZC10cnVzdF9jYV8yLTJfMjAxOS5j
cmwwHQYDVR0OBBYEFKqmc5L/6RNKg3X+s/P8fZ1lpWBZMA4GA1UdDwEB/wQEAwIG
wDA9BgkqhkiG9w0BAQowMKANMAsGCWCGSAFlAwQCA6EaMBgGCSqGSIb3DQEBCDAL
BglghkgBZQMEAgOiAwIBQAOCAgEAYT6oiZmBaK8W8IkrCyR88Ztv63oJ77kvdbGp
eYBQhBefGwyT2w7/7fMTrFTeMG3rXFxPa//5mOmOVyhvEdWD6vIKHABcyu6P/JFA
XTZtAdv3wCzGkLPb86u7HdrUqWOLZCXsqnLNokfOwZ4tKkaOHfx+mF6iDAxSjRFv
PlPe8SOcrzMBJIPCoiSkB7B0nQr3Bz7QKLh5UHhhyc7mFJbE38n6BxKBwkg6kgFx
UHF7Rfm37BAxBZqqBoSuguKefZBIRd9sC46gnr2pxGN5ctUCEt+6+G7l6LSxUOp9
rwlgrTY0ptVjk2pSBslHJuvhqS7ZlasV+eeMEH0FjqxVKgQRWHdnfjpvNO4thnZK
0tcW/B9Di/UuKjfpKhM+rDIrjXjpsyOESxMbS3OOteIBBZG11ny0zXpx8JX/7Gye
m9SohEFReXQh0U0ePqXT0Vsn55jt5JStxAZN1QWZgDaKVbFsYRbwnhP1fIYZcpEc
Cuk63sRtTbIT0K6jU8grWdbrPY7HQAMqFtLbkJlTSXv5jLh3XBYDWDJg3Dom0TRE
mo63tv1nC5b/6SQwNNDcxYb2R9jd3nnd/3WdDzN7IYmkLCO3zUf/YtSM+XBVt+0G
rMKj/MLdW7rKfSNyjHXCR9gjRGVAbUQz3hEPaimMyVD7FcRPDD9zroA819D50nBR
rnxXOWU=
-----END CERTIFICATE-----
