Certificate:
    Data:
        Version: 3 (0x2)
        Serial Number:
            73:9a:56:c1:5a:a2:66:ee:4f
    Signature Algorithm: ecdsa-with-SHA256
        Issuer: CN = EADTrust ECC 256 SubCA For Qualified Certificates 2019, O = "European Agency of Digital Trust, S.L.", C = ES, 2.5.4.97 = VATES-B85626240, OU = Legal Person
        Validity
            Not Before: May 26 14:00:00 2021 GMT
            Not After : May 26 14:00:00 2023 GMT
        Subject: CN = CERT-GENCAT-1S-21, serialNumber = S0811001G, OU = SELLO ELECTRONICO, OU = Departament de Salut, 2.5.4.97 = VATES-S0811001G, O = Departament de Salut de la Generalitat de Catalunya, C = ES
        Subject Public Key Info:
            Public Key Algorithm: id-ecPublicKey
                Public-Key: (256 bit)
                pub:
                    04:1d:98:eb:20:d3:7a:bb:e6:46:7d:1a:9a:62:a8:
                    2a:2f:ec:99:64:20:e5:bb:e3:ca:3c:29:15:4b:fc:
                    ac:3e:8b:2b:a2:7b:70:96:1c:e7:6c:fb:2a:e5:6f:
                    9d:d8:dc:b1:5d:e6:94:01:3f:a5:4f:24:4a:cb:53:
                    40:c4:e1:6a:00
                ASN1 OID: prime256v1
                NIST CURVE: P-256
        X509v3 extensions:
            X509v3 Basic Constraints: critical
                CA:FALSE
            X509v3 Authority Key Identifier: 
                keyid:D3:4C:6C:3A:BD:36:FE:70:87:23:87:3A:EE:3D:90:CF:CB:9B:F7:21

            Authority Information Access: 
                CA Issuers - URI:http://ca.eadtrust.eu/eadtrust-subca-ecc256eadlp2019.crt
                OCSP - URI:http://ocsp.eadtrust.eu

            X509v3 Issuer Alternative Name: 
                email:ca@eadtrust.eu, URI:http://www.eadtrust.eu, URI:http://ca.eadtrust.eu, URI:http://policy.eadtrust.eu
            X509v3 Subject Alternative Name: 
                DirName:/2.16.724.1.3.5.6.1.1=SELLO ELECTRONICO DE NIVEL ALTO/2.16.724.1.3.5.6.1.2=Departament de Salut de la Generalitat de Catalunya/2.16.724.1.3.5.6.1.3=S0811001G
            X509v3 Certificate Policies: 
                Policy: 0.4.0.194112.1.3
                  User Notice:
                    Explicit Text: European Telecommunications Standards Institute. eIDAS European Regulation Compliant
                Policy: 1.3.6.1.4.1.501.2.1.1.1.41233
                  User Notice:
                    Explicit Text: Certificado cualificado de sello electrónico de Administración, órgano o entidad de derecho público, nivel alto. Consulte las condiciones de uso en http://policy.eadtrust.eu
                  CPS: http://policy.eadtrust.eu
                Policy: 2.16.724.1.3.5.6.1

            X509v3 Extended Key Usage: 
                TLS Web Client Authentication, E-mail Protection
            qcStatements: 
                0..0...+.......0.......I..0......F..0......F.....0......F..0......F..0......F...0l.....F..0b00.*https://eadtrust.eu/en/documents-in-force/..en0..(https://eadtrust.eu/documentos-vigentes/..es
            X509v3 CRL Distribution Points: 

                Full Name:
                  URI:http://crl.eadtrust.eu/eadtrust-subca-ecc256eadlp2019.crl

            X509v3 Subject Key Identifier: 
                8B:26:92:D0:CF:1F:0F:3C:3C:95:73:40:44:35:FA:F5:D3:65:58:AA
            X509v3 Key Usage: critical
                Digital Signature, Non Repudiation, Key Encipherment
    Signature Algorithm: ecdsa-with-SHA256
         30:44:02:20:68:12:a4:4f:68:ab:04:55:50:5c:39:55:23:21:
         57:88:eb:99:65:b7:a4:4c:1d:72:39:51:c9:ef:e4:fb:f6:c5:
         02:20:46:07:6b:4d:52:e6:ff:6a:40:37:f4:39:38:88:5e:01:
         1d:4c:39:9d:e0:8d:3a:29:e6:cd:38:65:9d:15:16:78
-----BEGIN CERTIFICATE-----
MIIHJjCCBs2gAwIBAgIJc5pWwVqiZu5PMAoGCCqGSM49BAMCMIGwMT8wPQYDVQQD
DDZFQURUcnVzdCBFQ0MgMjU2IFN1YkNBIEZvciBRdWFsaWZpZWQgQ2VydGlmaWNh
dGVzIDIwMTkxLzAtBgNVBAoMJkV1cm9wZWFuIEFnZW5jeSBvZiBEaWdpdGFsIFRy
dXN0LCBTLkwuMQswCQYDVQQGEwJFUzEYMBYGA1UEYQwPVkFURVMtQjg1NjI2MjQw
MRUwEwYDVQQLDAxMZWdhbCBQZXJzb24wHhcNMjEwNTI2MTQwMDAwWhcNMjMwNTI2
MTQwMDAwWjCB0DEaMBgGA1UEAwwRQ0VSVC1HRU5DQVQtMVMtMjExEjAQBgNVBAUT
CVMwODExMDAxRzEaMBgGA1UECwwRU0VMTE8gRUxFQ1RST05JQ08xHTAbBgNVBAsM
FERlcGFydGFtZW50IGRlIFNhbHV0MRgwFgYDVQRhDA9WQVRFUy1TMDgxMTAwMUcx
PDA6BgNVBAoMM0RlcGFydGFtZW50IGRlIFNhbHV0IGRlIGxhIEdlbmVyYWxpdGF0
IGRlIENhdGFsdW55YTELMAkGA1UEBhMCRVMwWTATBgcqhkjOPQIBBggqhkjOPQMB
BwNCAAQdmOsg03q75kZ9GppiqCov7JlkIOW748o8KRVL/Kw+iyuie3CWHOds+yrl
b53Y3LFd5pQBP6VPJErLU0DE4WoAo4IErDCCBKgwDAYDVR0TAQH/BAIwADAfBgNV
HSMEGDAWgBTTTGw6vTb+cIcjhzruPZDPy5v3ITB5BggrBgEFBQcBAQRtMGswRAYI
KwYBBQUHMAKGOGh0dHA6Ly9jYS5lYWR0cnVzdC5ldS9lYWR0cnVzdC1zdWJjYS1l
Y2MyNTZlYWRscDIwMTkuY3J0MCMGCCsGAQUFBzABhhdodHRwOi8vb2NzcC5lYWR0
cnVzdC5ldTBjBgNVHRIEXDBagQ5jYUBlYWR0cnVzdC5ldYYWaHR0cDovL3d3dy5l
YWR0cnVzdC5ldYYVaHR0cDovL2NhLmVhZHRydXN0LmV1hhlodHRwOi8vcG9saWN5
LmVhZHRydXN0LmV1MIGfBgNVHREEgZcwgZSkgZEwgY4xLjAsBglghVQBAwUGAQEM
H1NFTExPIEVMRUNUUk9OSUNPIERFIE5JVkVMIEFMVE8xQjBABglghVQBAwUGAQIM
M0RlcGFydGFtZW50IGRlIFNhbHV0IGRlIGxhIEdlbmVyYWxpdGF0IGRlIENhdGFs
dW55YTEYMBYGCWCFVAEDBQYBAwwJUzA4MTEwMDFHMIIBiwYDVR0gBIIBgjCCAX4w
bwYHBACL7EABAzBkMGIGCCsGAQUFBwICMFYMVEV1cm9wZWFuIFRlbGVjb21tdW5p
Y2F0aW9ucyBTdGFuZGFyZHMgSW5zdGl0dXRlLiBlSURBUyBFdXJvcGVhbiBSZWd1
bGF0aW9uIENvbXBsaWFudDCB/gYOKwYBBAGDdQIBAQGCwhEwgeswgcEGCCsGAQUF
BwICMIG0DIGxQ2VydGlmaWNhZG8gY3VhbGlmaWNhZG8gZGUgc2VsbG8gZWxlY3Ry
w7NuaWNvIGRlIEFkbWluaXN0cmFjacOzbiwgw7NyZ2FubyBvIGVudGlkYWQgZGUg
ZGVyZWNobyBww7pibGljbywgbml2ZWwgYWx0by4gQ29uc3VsdGUgbGFzIGNvbmRp
Y2lvbmVzIGRlIHVzbyBlbiBodHRwOi8vcG9saWN5LmVhZHRydXN0LmV1MCUGCCsG
AQUFBwIBFhlodHRwOi8vcG9saWN5LmVhZHRydXN0LmV1MAoGCGCFVAEDBQYBMB0G
A1UdJQQWMBQGCCsGAQUFBwMCBggrBgEFBQcDBDCBywYIKwYBBQUHAQMEgb4wgbsw
FQYIKwYBBQUHCwIwCQYHBACL7EkBAjAIBgYEAI5GAQEwCwYGBACORgEDAgEPMAgG
BgQAjkYBBDATBgYEAI5GAQYwCQYHBACORgEGAjBsBgYEAI5GAQUwYjAwFipodHRw
czovL2VhZHRydXN0LmV1L2VuL2RvY3VtZW50cy1pbi1mb3JjZS8TAmVuMC4WKGh0
dHBzOi8vZWFkdHJ1c3QuZXUvZG9jdW1lbnRvcy12aWdlbnRlcy8TAmVzMEoGA1Ud
HwRDMEEwP6A9oDuGOWh0dHA6Ly9jcmwuZWFkdHJ1c3QuZXUvZWFkdHJ1c3Qtc3Vi
Y2EtZWNjMjU2ZWFkbHAyMDE5LmNybDAdBgNVHQ4EFgQUiyaS0M8fDzw8lXNARDX6
9dNlWKowDgYDVR0PAQH/BAQDAgXgMAoGCCqGSM49BAMCA0cAMEQCIGgSpE9oqwRV
UFw5VSMhV4jrmWW3pEwdcjlRye/k+/bFAiBGB2tNUub/akA39Dk4iF4BHUw5neCN
OinmzThlnRUWeA==
-----END CERTIFICATE-----
