Certificate:
    Data:
        Version: 3 (0x2)
        Serial Number:
            52:5f:da:e9:d0:89:41:85:8d:ef:e8:6f:0a:64:0c:8c
    Signature Algorithm: rsassaPss
         Hash Algorithm: sha512
         Mask Algorithm: mgf1 with sha512
         Salt Length: 0x40
         Trailer Field: 0xBC (default)
        Issuer: C = DE, O = D-Trust GmbH, CN = D-TRUST CA 2-2 2019, 2.5.4.97 = NTRDE-HRB74346
        Validity
            Not Before: May  7 14:15:32 2021 GMT
            Not After : May 11 14:15:32 2023 GMT
        Subject: C = DE, O = Robert Koch-Institut, OU = Elektronischer Impfnachweis, CN = Robert Koch-Institut, L = Berlin, postalCode = 13353, street = Nordufer 20, 2.5.4.97 = DT:DE-3023531445, serialNumber = CSM026164195, ST = Berlin
        Subject Public Key Info:
            Public Key Algorithm: id-ecPublicKey
                Public-Key: (256 bit)
                pub:
                    04:a2:b1:86:45:f1:22:73:61:8b:e6:8f:57:9c:84:
                    dd:ab:79:dd:f5:de:e9:58:3b:f2:eb:06:92:90:33:
                    08:eb:7d:fe:c2:f0:a5:b9:20:55:de:b5:91:fd:09:
                    0b:dc:57:5f:a5:c2:f6:14:e0:96:68:04:79:fe:c5:
                    ce:8a:1a:5f:af
                ASN1 OID: prime256v1
                NIST CURVE: P-256
        X509v3 extensions:
            X509v3 Authority Key Identifier: 
                keyid:71:10:32:AE:74:71:7B:54:8E:F1:D6:AB:62:54:AE:FC:3E:C0:BB:16

            qcStatements: 
                0.0......F..0......F..0......F...
            Authority Information Access: 
                OCSP - URI:http://d-trust-ca-2-2-2019.ocsp.d-trust.net
                CA Issuers - URI:http://www.d-trust.net/cgi-bin/D-TRUST_CA_2-2_2019.crt
                CA Issuers - URI:ldap://directory.d-trust.net/CN=D-TRUST%20CA%202-2%202019,O=D-Trust%20GmbH,C=DE?cACertificate?base?

            X509v3 Certificate Policies: 
                Policy: 0.4.0.194112.1.1
                Policy: 1.3.6.1.4.1.4788.2.150.5
                  CPS: http://www.d-trust.net/internet/files/D-TRUST_CSM_PKI_CPS.pdf

            X509v3 CRL Distribution Points: 

                Full Name:
                  URI:ldap://directory.d-trust.net/CN=D-TRUST%20CA%202-2%202019,O=D-Trust%20GmbH,C=DE?certificaterevocationlist
                  URI:http://crl.d-trust.net/crl/d-trust_ca_2-2_2019.crl
                  URI:http://cdn.d-trust-cloudcrl.net/crl/d-trust_ca_2-2_2019.crl

            X509v3 Subject Key Identifier: 
                B6:54:7A:5A:53:12:F8:EF:86:82:74:14:4B:77:8F:35:61:99:D3:2D
            X509v3 Key Usage: critical
                Digital Signature, Non Repudiation
    Signature Algorithm: rsassaPss
         Hash Algorithm: sha512
         Mask Algorithm: mgf1 with sha512
         Salt Length: 0x40
         Trailer Field: 0xBC (default)

         a1:b2:6a:f6:ba:50:ee:08:cd:a7:47:2f:9c:98:15:ca:da:5d:
         ae:af:41:ad:e8:f7:4f:f2:5e:7f:8f:cc:d5:82:be:ee:e9:35:
         b8:64:83:89:1f:7e:82:8f:f8:f4:85:a2:0c:55:81:5f:91:c1:
         6b:5b:3e:f1:b1:f1:01:44:0d:bc:c3:fb:63:70:e3:7b:be:4a:
         15:7d:5a:d8:bd:97:13:18:e9:a0:ac:64:c0:2f:7a:2f:f5:2f:
         29:92:b9:75:ed:e1:d1:f6:43:18:71:50:6f:c9:d0:07:b0:93:
         e1:88:24:cb:98:85:3b:c4:e7:45:d4:a8:57:3d:f7:b2:ef:8e:
         33:47:7a:2d:e8:cf:3f:e4:94:db:56:ec:83:ff:e9:cd:55:6e:
         cc:35:c0:17:6a:e7:80:16:dc:61:24:a3:49:a6:71:28:a7:c6:
         00:cb:fd:a7:9a:67:5d:b9:a3:78:d2:cf:9f:bb:b5:70:10:ae:
         db:40:8a:6e:c3:2e:fc:04:5f:8a:c5:be:8d:1d:64:00:5a:39:
         81:f3:93:a0:e7:76:c5:eb:64:29:32:ff:a7:cc:02:f0:f7:49:
         73:db:ca:e7:08:a6:10:ae:69:fe:58:05:1b:78:b4:0c:f7:c3:
         95:0f:19:8e:cd:32:4d:5d:e5:6e:e6:88:8e:fe:04:42:06:fc:
         1a:38:66:70:93:a5:a4:ee:b3:4d:5a:7b:90:32:ce:e2:f8:12:
         9d:6e:39:1d:2f:ff:a5:c9:11:ee:b8:a3:31:bf:50:45:f9:fa:
         7c:b1:36:29:6d:e5:dd:ea:f5:5c:2f:bf:f5:fd:68:64:17:f7:
         f7:83:d3:28:97:af:39:01:0f:43:29:d6:b8:d6:f0:db:d5:b2:
         14:49:56:74:5c:27:3d:bb:ee:a7:a8:38:0f:86:ba:55:c5:14:
         b4:32:d8:00:c5:fc:ad:a4:a9:be:07:13:bb:93:e3:56:04:e7:
         b1:32:2d:4a:01:ba:af:3d:3d:ea:2b:74:75:03:83:ca:cc:26:
         35:47:62:83:c4:f1:62:66:a5:24:d0:74:48:c2:e2:8c:2a:68:
         75:e5:19:7a:13:ad:a4:dc:09:ff:d5:39:7a:33:44:9f:9a:6e:
         c1:a2:a3:c2:25:68:9b:e3:9e:30:e2:e3:e6:e8:ec:36:b8:50:
         3f:a2:b1:95:f8:c1:19:cc:f6:c5:5f:bd:77:15:e0:7b:3f:e2:
         cc:8a:28:f9:0f:1e:68:79:97:58:06:e1:38:7d:81:3a:40:9c:
         78:8c:22:84:bf:f6:63:6f:08:94:10:8b:d9:fe:3b:60:e2:a9:
         10:05:34:cd:f7:de:0b:de:94:d1:7c:ca:60:35:74:23:78:c8:
         3a:ec:af:c9:2c:a5:32:e1
-----BEGIN CERTIFICATE-----
MIIHUTCCBQmgAwIBAgIQUl/a6dCJQYWN7+hvCmQMjDA9BgkqhkiG9w0BAQowMKAN
MAsGCWCGSAFlAwQCA6EaMBgGCSqGSIb3DQEBCDALBglghkgBZQMEAgOiAwIBQDBb
MQswCQYDVQQGEwJERTEVMBMGA1UEChMMRC1UcnVzdCBHbWJIMRwwGgYDVQQDExNE
LVRSVVNUIENBIDItMiAyMDE5MRcwFQYDVQRhEw5OVFJERS1IUkI3NDM0NjAeFw0y
MTA1MDcxNDE1MzJaFw0yMzA1MTExNDE1MzJaMIHrMQswCQYDVQQGEwJERTEdMBsG
A1UEChMUUm9iZXJ0IEtvY2gtSW5zdGl0dXQxJDAiBgNVBAsTG0VsZWt0cm9uaXNj
aGVyIEltcGZuYWNod2VpczEdMBsGA1UEAxMUUm9iZXJ0IEtvY2gtSW5zdGl0dXQx
DzANBgNVBAcTBkJlcmxpbjEOMAwGA1UEEQwFMTMzNTMxFDASBgNVBAkTC05vcmR1
ZmVyIDIwMRkwFwYDVQRhExBEVDpERS0zMDIzNTMxNDQ1MRUwEwYDVQQFEwxDU00w
MjYxNjQxOTUxDzANBgNVBAgTBkJlcmxpbjBZMBMGByqGSM49AgEGCCqGSM49AwEH
A0IABKKxhkXxInNhi+aPV5yE3at53fXe6Vg78usGkpAzCOt9/sLwpbkgVd61kf0J
C9xXX6XC9hTglmgEef7FzooaX6+jggLpMIIC5TAfBgNVHSMEGDAWgBRxEDKudHF7
VI7x1qtiVK78PsC7FjAtBggrBgEFBQcBAwQhMB8wCAYGBACORgEBMBMGBgQAjkYB
BjAJBgcEAI5GAQYCMIH+BggrBgEFBQcBAQSB8TCB7jA3BggrBgEFBQcwAYYraHR0
cDovL2QtdHJ1c3QtY2EtMi0yLTIwMTkub2NzcC5kLXRydXN0Lm5ldDBCBggrBgEF
BQcwAoY2aHR0cDovL3d3dy5kLXRydXN0Lm5ldC9jZ2ktYmluL0QtVFJVU1RfQ0Ff
Mi0yXzIwMTkuY3J0MG8GCCsGAQUFBzAChmNsZGFwOi8vZGlyZWN0b3J5LmQtdHJ1
c3QubmV0L0NOPUQtVFJVU1QlMjBDQSUyMDItMiUyMDIwMTksTz1ELVRydXN0JTIw
R21iSCxDPURFP2NBQ2VydGlmaWNhdGU/YmFzZT8wcAYDVR0gBGkwZzAJBgcEAIvs
QAEBMFoGCysGAQQBpTQCgRYFMEswSQYIKwYBBQUHAgEWPWh0dHA6Ly93d3cuZC10
cnVzdC5uZXQvaW50ZXJuZXQvZmlsZXMvRC1UUlVTVF9DU01fUEtJX0NQUy5wZGYw
gfAGA1UdHwSB6DCB5TCB4qCB36CB3IZpbGRhcDovL2RpcmVjdG9yeS5kLXRydXN0
Lm5ldC9DTj1ELVRSVVNUJTIwQ0ElMjAyLTIlMjAyMDE5LE89RC1UcnVzdCUyMEdt
YkgsQz1ERT9jZXJ0aWZpY2F0ZXJldm9jYXRpb25saXN0hjJodHRwOi8vY3JsLmQt
dHJ1c3QubmV0L2NybC9kLXRydXN0X2NhXzItMl8yMDE5LmNybIY7aHR0cDovL2Nk
bi5kLXRydXN0LWNsb3VkY3JsLm5ldC9jcmwvZC10cnVzdF9jYV8yLTJfMjAxOS5j
cmwwHQYDVR0OBBYEFLZUelpTEvjvhoJ0FEt3jzVhmdMtMA4GA1UdDwEB/wQEAwIG
wDA9BgkqhkiG9w0BAQowMKANMAsGCWCGSAFlAwQCA6EaMBgGCSqGSIb3DQEBCDAL
BglghkgBZQMEAgOiAwIBQAOCAgEAobJq9rpQ7gjNp0cvnJgVytpdrq9Brej3T/Je
f4/M1YK+7uk1uGSDiR9+go/49IWiDFWBX5HBa1s+8bHxAUQNvMP7Y3Dje75KFX1a
2L2XExjpoKxkwC96L/UvKZK5de3h0fZDGHFQb8nQB7CT4Ygky5iFO8TnRdSoVz33
su+OM0d6LejPP+SU21bsg//pzVVuzDXAF2rngBbcYSSjSaZxKKfGAMv9p5pnXbmj
eNLPn7u1cBCu20CKbsMu/ARfisW+jR1kAFo5gfOToOd2xetkKTL/p8wC8PdJc9vK
5wimEK5p/lgFG3i0DPfDlQ8Zjs0yTV3lbuaIjv4EQgb8GjhmcJOlpO6zTVp7kDLO
4vgSnW45HS//pckR7rijMb9QRfn6fLE2KW3l3er1XC+/9f1oZBf394PTKJevOQEP
QynWuNbw29WyFElWdFwnPbvup6g4D4a6VcUUtDLYAMX8raSpvgcTu5PjVgTnsTIt
SgG6rz096it0dQODyswmNUdig8TxYmalJNB0SMLijCpodeUZehOtpNwJ/9U5ejNE
n5puwaKjwiVom+OeMOLj5ujsNrhQP6KxlfjBGcz2xV+9dxXgez/izIoo+Q8eaHmX
WAbhOH2BOkCceIwihL/2Y28IlBCL2f47YOKpEAU0zffeC96U0XzKYDV0I3jIOuyv
ySylMuE=
-----END CERTIFICATE-----
