Certificate:
    Data:
        Version: 3 (0x2)
        Serial Number:
            7e:82:f4:50:fa:eb:b1:bb:88
    Signature Algorithm: ecdsa-with-SHA256
        Issuer: CN = EADTrust ECC 256 SubCA For Qualified Certificates 2019, O = "European Agency of Digital Trust, S.L.", C = ES, 2.5.4.97 = VATES-B85626240, OU = Legal Person
        Validity
            Not Before: May 14 09:35:00 2021 GMT
            Not After : May 14 09:35:00 2023 GMT
        Subject: CN = Sello Electr\C3\B3nico del Servicio Navarro de Salud-Osasunbidea, serialNumber = Q3150004D, OU = SELLO ELECTRONICO, OU = Servicio Navarro de Salud-Osasunbidea, 2.5.4.97 = VATES-Q3150004D, O = Servicio Navarro de Salud-Osasunbidea, C = ES
        Subject Public Key Info:
            Public Key Algorithm: id-ecPublicKey
                Public-Key: (256 bit)
                pub:
                    04:b5:d8:9e:83:aa:be:e4:7b:eb:7c:07:77:b9:f3:
                    d9:b6:12:16:79:05:f8:07:fc:ad:06:9f:22:60:01:
                    a9:68:99:a5:90:89:9e:96:6c:8f:59:d0:00:10:7e:
                    09:3d:7b:9c:5c:eb:00:70:fd:6d:37:ab:ce:92:4d:
                    1e:1d:e5:e0:1f
                ASN1 OID: prime256v1
                NIST CURVE: P-256
        X509v3 extensions:
            X509v3 Basic Constraints: critical
                CA:FALSE
            X509v3 Authority Key Identifier: 
                keyid:D3:4C:6C:3A:BD:36:FE:70:87:23:87:3A:EE:3D:90:CF:CB:9B:F7:21

            Authority Information Access: 
                CA Issuers - URI:http://ca.eadtrust.eu/eadtrust-subca-ecc256eadlp2019.crt
                OCSP - URI:http://ocsp.eadtrust.eu

            X509v3 Issuer Alternative Name: 
                email:ca@eadtrust.eu, URI:http://www.eadtrust.eu, URI:http://ca.eadtrust.eu, URI:http://policy.eadtrust.eu
            X509v3 Subject Alternative Name: 
                DirName:/2.16.724.1.3.5.6.2.1=SELLO ELECTRONICO DE NIVEL MEDIO/2.16.724.1.3.5.6.2.2=Servicio Navarro de Salud-Osasunbidea/2.16.724.1.3.5.6.2.3=Q3150004D
            X509v3 Certificate Policies: 
                Policy: 2.16.724.1.3.5.6.2
                Policy: 0.4.0.194112.1.1
                  User Notice:
                    Explicit Text: European Telecommunications Standards Institute. eIDAS European Regulation Compliant
                Policy: 1.3.6.1.4.1.501.2.1.1.0.41233
                  CPS: http://policy.eadtrust.eu
                  User Notice:
                    Explicit Text: Certificado cualificado de sello electrónico de Administración, órgano o entidad de derecho público, nivel Medio/Sustancial. Consulte las condiciones de uso en http://policy.eadtrust.eu

            X509v3 Extended Key Usage: 
                TLS Web Client Authentication, E-mail Protection
            qcStatements: 
                0..0...+.......0.......I..0......F..0......F.....0......F..0......F...0l.....F..0b00.*https://eadtrust.eu/en/documents-in-force/..en0..(https://eadtrust.eu/documentos-vigentes/..es
            X509v3 CRL Distribution Points: 

                Full Name:
                  URI:http://crl.eadtrust.eu/eadtrust-subca-ecc256eadlp2019.crl

            X509v3 Subject Key Identifier: 
                0E:84:9D:C2:F8:49:91:19:62:2E:E6:72:3C:B6:28:F7:17:97:D6:F7
            X509v3 Key Usage: critical
                Digital Signature, Non Repudiation, Key Encipherment
    Signature Algorithm: ecdsa-with-SHA256
         30:46:02:21:00:b9:af:06:0f:3e:67:9a:7f:21:ab:3a:c8:d7:
         fd:27:aa:80:5b:60:ae:a5:11:ac:5a:e7:6f:00:bb:42:f3:3a:
         32:02:21:00:de:0f:97:99:fe:00:28:fe:e7:a6:8f:84:7b:07:
         46:8e:31:4b:66:5e:5d:28:58:15:04:29:c5:40:8c:f5:1d:7b
-----BEGIN CERTIFICATE-----
MIIHTDCCBvGgAwIBAgIJfoL0UPrrsbuIMAoGCCqGSM49BAMCMIGwMT8wPQYDVQQD
DDZFQURUcnVzdCBFQ0MgMjU2IFN1YkNBIEZvciBRdWFsaWZpZWQgQ2VydGlmaWNh
dGVzIDIwMTkxLzAtBgNVBAoMJkV1cm9wZWFuIEFnZW5jeSBvZiBEaWdpdGFsIFRy
dXN0LCBTLkwuMQswCQYDVQQGEwJFUzEYMBYGA1UEYQwPVkFURVMtQjg1NjI2MjQw
MRUwEwYDVQQLDAxMZWdhbCBQZXJzb24wHhcNMjEwNTE0MDkzNTAwWhcNMjMwNTE0
MDkzNTAwWjCB/jFFMEMGA1UEAww8U2VsbG8gRWxlY3Ryw7NuaWNvIGRlbCBTZXJ2
aWNpbyBOYXZhcnJvIGRlIFNhbHVkLU9zYXN1bmJpZGVhMRIwEAYDVQQFEwlRMzE1
MDAwNEQxGjAYBgNVBAsMEVNFTExPIEVMRUNUUk9OSUNPMS4wLAYDVQQLDCVTZXJ2
aWNpbyBOYXZhcnJvIGRlIFNhbHVkLU9zYXN1bmJpZGVhMRgwFgYDVQRhDA9WQVRF
Uy1RMzE1MDAwNEQxLjAsBgNVBAoMJVNlcnZpY2lvIE5hdmFycm8gZGUgU2FsdWQt
T3Nhc3VuYmlkZWExCzAJBgNVBAYTAkVTMFkwEwYHKoZIzj0CAQYIKoZIzj0DAQcD
QgAEtdieg6q+5HvrfAd3ufPZthIWeQX4B/ytBp8iYAGpaJmlkImelmyPWdAAEH4J
PXucXOsAcP1tN6vOkk0eHeXgH6OCBKIwggSeMAwGA1UdEwEB/wQCMAAwHwYDVR0j
BBgwFoAU00xsOr02/nCHI4c67j2Qz8ub9yEweQYIKwYBBQUHAQEEbTBrMEQGCCsG
AQUFBzAChjhodHRwOi8vY2EuZWFkdHJ1c3QuZXUvZWFkdHJ1c3Qtc3ViY2EtZWNj
MjU2ZWFkbHAyMDE5LmNydDAjBggrBgEFBQcwAYYXaHR0cDovL29jc3AuZWFkdHJ1
c3QuZXUwYwYDVR0SBFwwWoEOY2FAZWFkdHJ1c3QuZXWGFmh0dHA6Ly93d3cuZWFk
dHJ1c3QuZXWGFWh0dHA6Ly9jYS5lYWR0cnVzdC5ldYYZaHR0cDovL3BvbGljeS5l
YWR0cnVzdC5ldTCBkgYDVR0RBIGKMIGHpIGEMIGBMS8wLQYJYIVUAQMFBgIBDCBT
RUxMTyBFTEVDVFJPTklDTyBERSBOSVZFTCBNRURJTzE0MDIGCWCFVAEDBQYCAgwl
U2VydmljaW8gTmF2YXJybyBkZSBTYWx1ZC1Pc2FzdW5iaWRlYTEYMBYGCWCFVAED
BQYCAwwJUTMxNTAwMDREMIIBmAYDVR0gBIIBjzCCAYswCgYIYIVUAQMFBgIwbwYH
BACL7EABATBkMGIGCCsGAQUFBwICMFYMVEV1cm9wZWFuIFRlbGVjb21tdW5pY2F0
aW9ucyBTdGFuZGFyZHMgSW5zdGl0dXRlLiBlSURBUyBFdXJvcGVhbiBSZWd1bGF0
aW9uIENvbXBsaWFudDCCAQoGDisGAQQBg3UCAQEAgsIRMIH3MCUGCCsGAQUFBwIB
FhlodHRwOi8vcG9saWN5LmVhZHRydXN0LmV1MIHNBggrBgEFBQcCAjCBwAyBvUNl
cnRpZmljYWRvIGN1YWxpZmljYWRvIGRlIHNlbGxvIGVsZWN0csOzbmljbyBkZSBB
ZG1pbmlzdHJhY2nDs24sIMOzcmdhbm8gbyBlbnRpZGFkIGRlIGRlcmVjaG8gcMO6
YmxpY28sIG5pdmVsIE1lZGlvL1N1c3RhbmNpYWwuIENvbnN1bHRlIGxhcyBjb25k
aWNpb25lcyBkZSB1c28gZW4gaHR0cDovL3BvbGljeS5lYWR0cnVzdC5ldTAdBgNV
HSUEFjAUBggrBgEFBQcDAgYIKwYBBQUHAwQwgcEGCCsGAQUFBwEDBIG0MIGxMBUG
CCsGAQUFBwsCMAkGBwQAi+xJAQIwCAYGBACORgEBMAsGBgQAjkYBAwIBDzATBgYE
AI5GAQYwCQYHBACORgEGAjBsBgYEAI5GAQUwYjAwFipodHRwczovL2VhZHRydXN0
LmV1L2VuL2RvY3VtZW50cy1pbi1mb3JjZS8TAmVuMC4WKGh0dHBzOi8vZWFkdHJ1
c3QuZXUvZG9jdW1lbnRvcy12aWdlbnRlcy8TAmVzMEoGA1UdHwRDMEEwP6A9oDuG
OWh0dHA6Ly9jcmwuZWFkdHJ1c3QuZXUvZWFkdHJ1c3Qtc3ViY2EtZWNjMjU2ZWFk
bHAyMDE5LmNybDAdBgNVHQ4EFgQUDoSdwvhJkRliLuZyPLYo9xeX1vcwDgYDVR0P
AQH/BAQDAgXgMAoGCCqGSM49BAMCA0kAMEYCIQC5rwYPPmeafyGrOsjX/SeqgFtg
rqURrFrnbwC7QvM6MgIhAN4Pl5n+ACj+56aPhHsHRo4xS2ZeXShYFQQpxUCM9R17
-----END CERTIFICATE-----
