Certificate:
    Data:
        Version: 3 (0x2)
        Serial Number:
            40:84:8a:1f:07:29:23:cc:82:0c:6a:4a:64:86:5a:b3
    Signature Algorithm: rsassaPss
         Hash Algorithm: sha512
         Mask Algorithm: mgf1 with sha512
         Salt Length: 0x40
         Trailer Field: 0xBC (default)
        Issuer: C = DE, O = D-Trust GmbH, CN = D-TRUST CA 2-2 2019, 2.5.4.97 = NTRDE-HRB74346
        Validity
            Not Before: Jun  7 10:26:34 2021 GMT
            Not After : Jun 11 10:26:34 2023 GMT
        Subject: C = DE, O = Robert Koch-Institut, OU = Elektronischer Impfnachweis, CN = Robert Koch-Institut, L = Berlin, postalCode = 13353, street = Nordufer 20, 2.5.4.97 = DT:DE-3023531445, serialNumber = CSM026414133, ST = Berlin
        Subject Public Key Info:
            Public Key Algorithm: id-ecPublicKey
                Public-Key: (256 bit)
                pub:
                    04:d9:3a:92:bf:6c:01:f6:70:74:12:fd:ee:e5:59:
                    9c:93:15:b3:ab:f2:f4:7e:f9:75:1d:52:37:64:15:
                    c2:17:ee:e4:e7:96:e8:d3:35:00:05:43:c1:cf:af:
                    de:d4:f6:83:c4:30:88:4b:cf:8d:c9:ba:db:a5:44:
                    f7:c3:90:f7:23
                ASN1 OID: prime256v1
                NIST CURVE: P-256
        X509v3 extensions:
            X509v3 Authority Key Identifier: 
                keyid:71:10:32:AE:74:71:7B:54:8E:F1:D6:AB:62:54:AE:FC:3E:C0:BB:16

            qcStatements: 
                0.0......F..0......F..0......F...
            Authority Information Access: 
                OCSP - URI:http://d-trust-ca-2-2-2019.ocsp.d-trust.net
                CA Issuers - URI:http://www.d-trust.net/cgi-bin/D-TRUST_CA_2-2_2019.crt
                CA Issuers - URI:ldap://directory.d-trust.net/CN=D-TRUST%20CA%202-2%202019,O=D-Trust%20GmbH,C=DE?cACertificate?base?

            X509v3 Certificate Policies: 
                Policy: 0.4.0.194112.1.1
                Policy: 1.3.6.1.4.1.4788.2.150.5
                  CPS: http://www.d-trust.net/internet/files/D-TRUST_CSM_PKI_CPS.pdf

            X509v3 CRL Distribution Points: 

                Full Name:
                  URI:ldap://directory.d-trust.net/CN=D-TRUST%20CA%202-2%202019,O=D-Trust%20GmbH,C=DE?certificaterevocationlist
                  URI:http://crl.d-trust.net/crl/d-trust_ca_2-2_2019.crl
                  URI:http://cdn.d-trust-cloudcrl.net/crl/d-trust_ca_2-2_2019.crl

            X509v3 Subject Key Identifier: 
                43:34:35:0A:14:CF:47:A5:F9:AA:36:2D:B8:9C:B4:98:55:57:08:E5
            X509v3 Key Usage: critical
                Digital Signature, Non Repudiation
    Signature Algorithm: rsassaPss
         Hash Algorithm: sha512
         Mask Algorithm: mgf1 with sha512
         Salt Length: 0x40
         Trailer Field: 0xBC (default)

         7d:6d:12:ea:8b:6e:66:45:4b:fa:8c:a8:a5:1f:08:c1:b9:dc:
         73:6d:7b:0e:96:92:11:b5:f1:17:61:37:de:87:95:99:b5:e4:
         30:bd:b7:80:0e:1a:c1:c5:96:2b:4b:4f:7f:af:35:64:b3:d2:
         98:b0:8e:f2:94:f3:92:0d:98:0a:a9:8e:7b:d1:fc:0d:19:8f:
         9b:ab:d4:b3:90:47:37:33:36:f8:23:e7:fa:ee:01:ac:eb:fc:
         92:40:81:e6:2b:b8:46:67:92:c2:3d:14:22:5a:60:ae:b5:68:
         14:12:d2:59:8d:df:0b:f2:dd:e8:23:8b:36:79:80:5c:62:1f:
         2c:9c:0a:05:de:7a:69:a8:5d:9c:ac:4d:cd:f6:5e:81:bb:79:
         83:64:9b:11:75:a7:b2:85:8f:dd:93:93:f1:14:a6:5e:95:ba:
         2c:cc:7f:37:13:50:ae:a0:86:d5:70:f8:31:d2:47:51:8a:39:
         df:47:13:99:9f:31:82:9b:5c:30:30:62:d3:02:b1:0f:2e:0b:
         18:82:75:8e:22:ca:0c:75:a2:7e:0a:b4:81:54:18:01:f0:a3:
         aa:18:4d:35:62:65:22:8d:26:73:bb:bb:d0:23:ed:4f:1d:f9:
         89:b7:eb:98:50:48:69:ee:9f:39:dc:66:7c:fc:11:60:8f:84:
         45:59:73:90:73:e8:1a:79:e8:c2:8a:02:41:1d:a6:06:01:0d:
         47:86:44:a8:08:24:0d:e1:2a:6e:a4:ae:96:d0:3a:fb:9e:26:
         dc:79:97:6c:85:8d:1f:91:cc:8a:ab:70:51:38:94:a6:27:10:
         78:17:2a:c5:17:8a:06:6a:0d:8c:3c:92:4f:a0:ef:f5:40:38:
         90:7a:72:e6:0a:53:36:45:52:5a:c6:00:65:b1:1e:f3:37:cc:
         6a:5a:10:ff:17:f8:50:59:7a:88:83:69:b4:7c:ca:bf:9c:69:
         e8:cc:fa:68:f6:63:50:5b:08:53:08:1e:0a:a1:24:51:2f:10:
         57:36:77:67:ec:a4:c5:9a:b3:92:73:4d:75:ef:97:d2:bf:dd:
         28:4c:d0:f0:35:48:8c:16:aa:4d:3c:cb:c2:d3:25:00:a9:c0:
         12:e6:c9:b2:fc:dc:e7:8a:91:48:f9:75:77:93:f5:1c:36:f5:
         a4:06:26:52:eb:24:a8:e6:40:35:e9:f1:c4:03:98:68:0d:87:
         1b:79:fe:b5:ca:f8:ed:e0:73:12:55:dd:eb:4f:b0:5d:56:b9:
         a3:14:b1:ff:f8:2b:22:65:95:16:e7:12:bf:07:11:25:65:1a:
         56:e4:6a:cf:c7:ae:8f:8a:58:7f:53:f3:75:f7:5e:9d:40:10:
         a2:c3:2f:42:3a:c9:08:af
-----BEGIN CERTIFICATE-----
MIIHUTCCBQmgAwIBAgIQQISKHwcpI8yCDGpKZIZaszA9BgkqhkiG9w0BAQowMKAN
MAsGCWCGSAFlAwQCA6EaMBgGCSqGSIb3DQEBCDALBglghkgBZQMEAgOiAwIBQDBb
MQswCQYDVQQGEwJERTEVMBMGA1UEChMMRC1UcnVzdCBHbWJIMRwwGgYDVQQDExNE
LVRSVVNUIENBIDItMiAyMDE5MRcwFQYDVQRhEw5OVFJERS1IUkI3NDM0NjAeFw0y
MTA2MDcxMDI2MzRaFw0yMzA2MTExMDI2MzRaMIHrMQswCQYDVQQGEwJERTEdMBsG
A1UEChMUUm9iZXJ0IEtvY2gtSW5zdGl0dXQxJDAiBgNVBAsTG0VsZWt0cm9uaXNj
aGVyIEltcGZuYWNod2VpczEdMBsGA1UEAxMUUm9iZXJ0IEtvY2gtSW5zdGl0dXQx
DzANBgNVBAcTBkJlcmxpbjEOMAwGA1UEEQwFMTMzNTMxFDASBgNVBAkTC05vcmR1
ZmVyIDIwMRkwFwYDVQRhExBEVDpERS0zMDIzNTMxNDQ1MRUwEwYDVQQFEwxDU00w
MjY0MTQxMzMxDzANBgNVBAgTBkJlcmxpbjBZMBMGByqGSM49AgEGCCqGSM49AwEH
A0IABNk6kr9sAfZwdBL97uVZnJMVs6vy9H75dR1SN2QVwhfu5OeW6NM1AAVDwc+v
3tT2g8QwiEvPjcm626VE98OQ9yOjggLpMIIC5TAfBgNVHSMEGDAWgBRxEDKudHF7
VI7x1qtiVK78PsC7FjAtBggrBgEFBQcBAwQhMB8wCAYGBACORgEBMBMGBgQAjkYB
BjAJBgcEAI5GAQYCMIH+BggrBgEFBQcBAQSB8TCB7jA3BggrBgEFBQcwAYYraHR0
cDovL2QtdHJ1c3QtY2EtMi0yLTIwMTkub2NzcC5kLXRydXN0Lm5ldDBCBggrBgEF
BQcwAoY2aHR0cDovL3d3dy5kLXRydXN0Lm5ldC9jZ2ktYmluL0QtVFJVU1RfQ0Ff
Mi0yXzIwMTkuY3J0MG8GCCsGAQUFBzAChmNsZGFwOi8vZGlyZWN0b3J5LmQtdHJ1
c3QubmV0L0NOPUQtVFJVU1QlMjBDQSUyMDItMiUyMDIwMTksTz1ELVRydXN0JTIw
R21iSCxDPURFP2NBQ2VydGlmaWNhdGU/YmFzZT8wcAYDVR0gBGkwZzAJBgcEAIvs
QAEBMFoGCysGAQQBpTQCgRYFMEswSQYIKwYBBQUHAgEWPWh0dHA6Ly93d3cuZC10
cnVzdC5uZXQvaW50ZXJuZXQvZmlsZXMvRC1UUlVTVF9DU01fUEtJX0NQUy5wZGYw
gfAGA1UdHwSB6DCB5TCB4qCB36CB3IZpbGRhcDovL2RpcmVjdG9yeS5kLXRydXN0
Lm5ldC9DTj1ELVRSVVNUJTIwQ0ElMjAyLTIlMjAyMDE5LE89RC1UcnVzdCUyMEdt
YkgsQz1ERT9jZXJ0aWZpY2F0ZXJldm9jYXRpb25saXN0hjJodHRwOi8vY3JsLmQt
dHJ1c3QubmV0L2NybC9kLXRydXN0X2NhXzItMl8yMDE5LmNybIY7aHR0cDovL2Nk
bi5kLXRydXN0LWNsb3VkY3JsLm5ldC9jcmwvZC10cnVzdF9jYV8yLTJfMjAxOS5j
cmwwHQYDVR0OBBYEFEM0NQoUz0el+ao2LbictJhVVwjlMA4GA1UdDwEB/wQEAwIG
wDA9BgkqhkiG9w0BAQowMKANMAsGCWCGSAFlAwQCA6EaMBgGCSqGSIb3DQEBCDAL
BglghkgBZQMEAgOiAwIBQAOCAgEAfW0S6otuZkVL+oyopR8Iwbncc217DpaSEbXx
F2E33oeVmbXkML23gA4awcWWK0tPf681ZLPSmLCO8pTzkg2YCqmOe9H8DRmPm6vU
s5BHNzM2+CPn+u4BrOv8kkCB5iu4RmeSwj0UIlpgrrVoFBLSWY3fC/Ld6COLNnmA
XGIfLJwKBd56aahdnKxNzfZegbt5g2SbEXWnsoWP3ZOT8RSmXpW6LMx/NxNQrqCG
1XD4MdJHUYo530cTmZ8xgptcMDBi0wKxDy4LGIJ1jiLKDHWifgq0gVQYAfCjqhhN
NWJlIo0mc7u70CPtTx35ibfrmFBIae6fOdxmfPwRYI+ERVlzkHPoGnnowooCQR2m
BgENR4ZEqAgkDeEqbqSultA6+54m3HmXbIWNH5HMiqtwUTiUpicQeBcqxReKBmoN
jDyST6Dv9UA4kHpy5gpTNkVSWsYAZbEe8zfMaloQ/xf4UFl6iINptHzKv5xp6Mz6
aPZjUFsIUwgeCqEkUS8QVzZ3Z+ykxZqzknNNde+X0r/dKEzQ8DVIjBaqTTzLwtMl
AKnAEubJsvzc54qRSPl1d5P1HDb1pAYmUuskqOZANenxxAOYaA2HG3n+tcr47eBz
ElXd60+wXVa5oxSx//grImWVFucSvwcRJWUaVuRqz8euj4pYf1PzdfdenUAQosMv
QjrJCK8=
-----END CERTIFICATE-----
