Certificate:
    Data:
        Version: 3 (0x2)
        Serial Number:
            55:bd:65:9b:3d:0c:e6:62:9d:f9:b9:01:45:60:55:01
    Signature Algorithm: rsassaPss
         Hash Algorithm: sha512
         Mask Algorithm: mgf1 with sha512
         Salt Length: 0x40
         Trailer Field: 0xBC (default)
        Issuer: C = DE, O = D-Trust GmbH, CN = D-TRUST CA 2-2 2019, 2.5.4.97 = NTRDE-HRB74346
        Validity
            Not Before: Jun 24 13:12:24 2021 GMT
            Not After : Jun 28 13:12:24 2023 GMT
        Subject: C = DE, O = Robert Koch-Institut, OU = Elektronischer Impfnachweis, CN = Robert Koch-Institut, L = Berlin, postalCode = 13353, street = Nordufer 20, 2.5.4.97 = DT:DE-3023531445, serialNumber = CSM026571119, ST = Berlin
        Subject Public Key Info:
            Public Key Algorithm: id-ecPublicKey
                Public-Key: (256 bit)
                pub:
                    04:94:66:31:72:2a:0f:64:5c:c0:7c:91:ed:b0:1d:
                    3b:17:35:03:a4:99:5c:e8:2d:7c:5b:69:1c:9c:21:
                    84:13:5b:a3:6a:18:ac:2b:a6:6f:13:e5:28:48:68:
                    78:00:11:8d:40:e5:fc:47:2a:4c:a7:8b:7c:6f:38:
                    fb:54:0a:88:ef
                ASN1 OID: prime256v1
                NIST CURVE: P-256
        X509v3 extensions:
            X509v3 Authority Key Identifier: 
                keyid:71:10:32:AE:74:71:7B:54:8E:F1:D6:AB:62:54:AE:FC:3E:C0:BB:16

            qcStatements: 
                0.0......F..0......F..0......F...
            Authority Information Access: 
                OCSP - URI:http://d-trust-ca-2-2-2019.ocsp.d-trust.net
                CA Issuers - URI:http://www.d-trust.net/cgi-bin/D-TRUST_CA_2-2_2019.crt
                CA Issuers - URI:ldap://directory.d-trust.net/CN=D-TRUST%20CA%202-2%202019,O=D-Trust%20GmbH,C=DE?cACertificate?base?

            X509v3 Certificate Policies: 
                Policy: 0.4.0.194112.1.1
                Policy: 1.3.6.1.4.1.4788.2.150.5
                  CPS: http://www.d-trust.net/internet/files/D-TRUST_CSM_PKI_CPS.pdf

            X509v3 CRL Distribution Points: 

                Full Name:
                  URI:http://crl.d-trust.net/crl/d-trust_ca_2-2_2019.crl
                  URI:http://cdn.d-trust-cloudcrl.net/crl/d-trust_ca_2-2_2019.crl
                  URI:ldap://directory.d-trust.net/CN=D-TRUST%20CA%202-2%202019,O=D-Trust%20GmbH,C=DE?certificaterevocationlist

            X509v3 Subject Key Identifier: 
                F3:A5:D6:86:ED:A2:0A:91:5E:96:28:3B:2B:4D:0C:44:30:C1:FC:36
            X509v3 Key Usage: critical
                Digital Signature, Non Repudiation
    Signature Algorithm: rsassaPss
         Hash Algorithm: sha512
         Mask Algorithm: mgf1 with sha512
         Salt Length: 0x40
         Trailer Field: 0xBC (default)

         ca:8f:13:97:70:5d:0c:72:90:ec:0d:1a:0a:3a:6c:68:b9:0c:
         9b:f7:67:8e:fb:2f:15:79:27:aa:8b:05:3b:6f:ec:08:7c:bf:
         23:a0:a9:e5:7a:f4:d3:96:94:59:23:2c:f6:c3:b0:6c:01:30:
         23:0f:57:6c:9b:0b:f7:21:ff:58:51:de:5b:95:6b:47:a9:7f:
         aa:be:37:1c:2d:20:28:ec:5f:c6:fb:e2:71:0b:ca:0d:b3:09:
         5a:21:b5:18:38:0e:5c:65:76:23:83:42:a3:4a:6e:05:ee:59:
         62:a9:9b:ae:55:f1:cd:15:97:7f:6c:0c:87:0f:8f:17:87:61:
         96:51:d7:95:30:a4:92:6b:a6:44:56:e9:cd:ab:bf:39:18:42:
         18:10:d4:c0:0c:8f:31:f0:71:32:fd:8b:6f:88:17:c6:27:82:
         f6:eb:6c:d6:9e:37:5c:9a:31:8e:0b:2a:f1:89:f7:d1:dc:9b:
         bf:a7:54:e7:cb:79:4a:87:65:55:bd:fe:b9:bc:f4:0f:02:74:
         a5:ae:e4:c3:54:f8:0b:b0:b5:ac:99:76:48:fe:3c:c2:1d:94:
         dd:8f:ab:0f:a0:97:93:04:7f:6b:53:05:fc:99:a7:00:1f:4f:
         97:fa:8c:e6:44:48:e8:f1:5c:29:6e:16:69:43:60:a3:7c:43:
         fd:63:eb:92:e7:ad:0f:b8:7a:05:c4:2b:16:61:ab:4f:3d:66:
         ec:59:f1:5d:f1:30:dd:59:82:3a:61:bf:d9:1d:90:ae:75:38:
         03:d1:17:73:f7:89:1d:52:a8:94:1b:5c:0b:20:d7:70:f0:54:
         ce:48:65:f1:b6:ba:b6:40:20:39:51:20:a9:22:1e:29:29:ad:
         fb:04:1b:1c:ce:0a:fa:3a:0b:bc:47:fe:75:25:62:8e:87:6f:
         64:fd:16:da:16:7c:98:4f:b0:1b:b1:44:a7:1f:38:f1:62:4d:
         1d:3d:b0:84:ec:d7:7e:a6:15:10:17:8a:8a:7f:c3:3d:74:6a:
         8b:dd:5b:3f:cb:15:3d:11:3b:9b:9f:54:ce:49:e9:37:d8:f1:
         42:1a:45:b8:fc:04:7e:6a:88:fa:87:6a:8f:25:51:dd:e7:91:
         67:76:5f:28:8a:72:9a:91:4b:33:06:a3:15:a6:3f:3b:ca:dd:
         87:f7:4f:ab:60:93:ec:6c:46:b2:32:0c:4b:74:a9:2d:2a:4c:
         d7:12:ac:f4:d5:7b:1d:81:08:82:63:5d:96:65:5b:f2:b2:02:
         8b:8f:da:a1:55:ef:32:ea:9a:ee:0d:b1:4d:c2:f8:0b:08:a4:
         59:8b:2a:f6:5a:70:66:56:d7:47:4b:56:d0:1d:9e:54:e7:cf:
         fc:16:17:58:5d:e3:9c:fd
-----BEGIN CERTIFICATE-----
MIIHUTCCBQmgAwIBAgIQVb1lmz0M5mKd+bkBRWBVATA9BgkqhkiG9w0BAQowMKAN
MAsGCWCGSAFlAwQCA6EaMBgGCSqGSIb3DQEBCDALBglghkgBZQMEAgOiAwIBQDBb
MQswCQYDVQQGEwJERTEVMBMGA1UEChMMRC1UcnVzdCBHbWJIMRwwGgYDVQQDExNE
LVRSVVNUIENBIDItMiAyMDE5MRcwFQYDVQRhEw5OVFJERS1IUkI3NDM0NjAeFw0y
MTA2MjQxMzEyMjRaFw0yMzA2MjgxMzEyMjRaMIHrMQswCQYDVQQGEwJERTEdMBsG
A1UEChMUUm9iZXJ0IEtvY2gtSW5zdGl0dXQxJDAiBgNVBAsTG0VsZWt0cm9uaXNj
aGVyIEltcGZuYWNod2VpczEdMBsGA1UEAxMUUm9iZXJ0IEtvY2gtSW5zdGl0dXQx
DzANBgNVBAcTBkJlcmxpbjEOMAwGA1UEEQwFMTMzNTMxFDASBgNVBAkTC05vcmR1
ZmVyIDIwMRkwFwYDVQRhExBEVDpERS0zMDIzNTMxNDQ1MRUwEwYDVQQFEwxDU00w
MjY1NzExMTkxDzANBgNVBAgTBkJlcmxpbjBZMBMGByqGSM49AgEGCCqGSM49AwEH
A0IABJRmMXIqD2RcwHyR7bAdOxc1A6SZXOgtfFtpHJwhhBNbo2oYrCumbxPlKEho
eAARjUDl/EcqTKeLfG84+1QKiO+jggLpMIIC5TAfBgNVHSMEGDAWgBRxEDKudHF7
VI7x1qtiVK78PsC7FjAtBggrBgEFBQcBAwQhMB8wCAYGBACORgEBMBMGBgQAjkYB
BjAJBgcEAI5GAQYCMIH+BggrBgEFBQcBAQSB8TCB7jA3BggrBgEFBQcwAYYraHR0
cDovL2QtdHJ1c3QtY2EtMi0yLTIwMTkub2NzcC5kLXRydXN0Lm5ldDBCBggrBgEF
BQcwAoY2aHR0cDovL3d3dy5kLXRydXN0Lm5ldC9jZ2ktYmluL0QtVFJVU1RfQ0Ff
Mi0yXzIwMTkuY3J0MG8GCCsGAQUFBzAChmNsZGFwOi8vZGlyZWN0b3J5LmQtdHJ1
c3QubmV0L0NOPUQtVFJVU1QlMjBDQSUyMDItMiUyMDIwMTksTz1ELVRydXN0JTIw
R21iSCxDPURFP2NBQ2VydGlmaWNhdGU/YmFzZT8wcAYDVR0gBGkwZzAJBgcEAIvs
QAEBMFoGCysGAQQBpTQCgRYFMEswSQYIKwYBBQUHAgEWPWh0dHA6Ly93d3cuZC10
cnVzdC5uZXQvaW50ZXJuZXQvZmlsZXMvRC1UUlVTVF9DU01fUEtJX0NQUy5wZGYw
gfAGA1UdHwSB6DCB5TCB4qCB36CB3IYyaHR0cDovL2NybC5kLXRydXN0Lm5ldC9j
cmwvZC10cnVzdF9jYV8yLTJfMjAxOS5jcmyGO2h0dHA6Ly9jZG4uZC10cnVzdC1j
bG91ZGNybC5uZXQvY3JsL2QtdHJ1c3RfY2FfMi0yXzIwMTkuY3JshmlsZGFwOi8v
ZGlyZWN0b3J5LmQtdHJ1c3QubmV0L0NOPUQtVFJVU1QlMjBDQSUyMDItMiUyMDIw
MTksTz1ELVRydXN0JTIwR21iSCxDPURFP2NlcnRpZmljYXRlcmV2b2NhdGlvbmxp
c3QwHQYDVR0OBBYEFPOl1obtogqRXpYoOytNDEQwwfw2MA4GA1UdDwEB/wQEAwIG
wDA9BgkqhkiG9w0BAQowMKANMAsGCWCGSAFlAwQCA6EaMBgGCSqGSIb3DQEBCDAL
BglghkgBZQMEAgOiAwIBQAOCAgEAyo8Tl3BdDHKQ7A0aCjpsaLkMm/dnjvsvFXkn
qosFO2/sCHy/I6Cp5Xr005aUWSMs9sOwbAEwIw9XbJsL9yH/WFHeW5VrR6l/qr43
HC0gKOxfxvvicQvKDbMJWiG1GDgOXGV2I4NCo0puBe5ZYqmbrlXxzRWXf2wMhw+P
F4dhllHXlTCkkmumRFbpzau/ORhCGBDUwAyPMfBxMv2Lb4gXxieC9uts1p43XJox
jgsq8Yn30dybv6dU58t5SodlVb3+ubz0DwJ0pa7kw1T4C7C1rJl2SP48wh2U3Y+r
D6CXkwR/a1MF/JmnAB9Pl/qM5kRI6PFcKW4WaUNgo3xD/WPrkuetD7h6BcQrFmGr
Tz1m7FnxXfEw3VmCOmG/2R2QrnU4A9EXc/eJHVKolBtcCyDXcPBUzkhl8ba6tkAg
OVEgqSIeKSmt+wQbHM4K+joLvEf+dSVijodvZP0W2hZ8mE+wG7FEpx848WJNHT2w
hOzXfqYVEBeKin/DPXRqi91bP8sVPRE7m59UzknpN9jxQhpFuPwEfmqI+odqjyVR
3eeRZ3ZfKIpympFLMwajFaY/O8rdh/dPq2CT7GxGsjIMS3SpLSpM1xKs9NV7HYEI
gmNdlmVb8rICi4/aoVXvMuqa7g2xTcL4CwikWYsq9lpwZlbXR0tW0B2eVOfP/BYX
WF3jnP0=
-----END CERTIFICATE-----
