Certificate:
    Data:
        Version: 1 (0x0)
        Serial Number: 1041 (0x411)
    Signature Algorithm: ecdsa-with-SHA256
        Issuer: CN = IS DGC CSCA 1, serialNumber = 1, OU = Directorate of Health, O = Directorate of Health, C = IS
        Validity
            Not Before: Jun 11 10:18:25 2021 GMT
            Not After : Jun 11 10:18:25 2023 GMT
        Subject: CN = IS-DSC-1, serialNumber = 1, OU = Directorate of Health, O = Directorate of Health, C = IS
        Subject Public Key Info:
            Public Key Algorithm: id-ecPublicKey
                Public-Key: (256 bit)
                pub:
                    04:3b:8d:97:ec:2d:97:e5:b4:83:4e:77:d2:27:09:
                    e4:e2:a0:23:4a:4d:a6:d7:50:b2:fe:69:85:aa:bc:
                    a5:ec:9d:4c:86:b6:43:7f:2e:fb:93:2e:2e:4b:4a:
                    35:89:6d:7c:d4:4b:f9:d6:60:22:5b:42:77:8b:74:
                    9e:29:87:84:3b
                ASN1 OID: prime256v1
                NIST CURVE: P-256
    Signature Algorithm: ecdsa-with-SHA256
         30:44:02:20:51:ff:0a:6f:9e:a6:00:49:a3:3d:92:dd:e6:5a:
         48:f4:0b:6f:6f:b7:b1:e2:40:11:ed:ab:82:fa:d3:70:0e:19:
         02:20:7a:91:7a:42:d9:54:7d:92:a7:2f:f8:7a:43:ad:b9:b1:
         e1:7a:b7:3e:04:ec:43:91:f1:63:50:79:bd:ea:49:da
-----BEGIN CERTIFICATE-----
MIIBxTCCAWwCAgQRMAoGCCqGSM49BAMCMHExFjAUBgNVBAMMDUlTIERHQyBDU0NB
IDExCjAIBgNVBAUTATExHjAcBgNVBAsMFURpcmVjdG9yYXRlIG9mIEhlYWx0aDEe
MBwGA1UECgwVRGlyZWN0b3JhdGUgb2YgSGVhbHRoMQswCQYDVQQGEwJJUzAeFw0y
MTA2MTExMDE4MjVaFw0yMzA2MTExMDE4MjVaMGwxETAPBgNVBAMMCElTLURTQy0x
MQowCAYDVQQFEwExMR4wHAYDVQQLDBVEaXJlY3RvcmF0ZSBvZiBIZWFsdGgxHjAc
BgNVBAoMFURpcmVjdG9yYXRlIG9mIEhlYWx0aDELMAkGA1UEBhMCSVMwWTATBgcq
hkjOPQIBBggqhkjOPQMBBwNCAAQ7jZfsLZfltINOd9InCeTioCNKTabXULL+aYWq
vKXsnUyGtkN/LvuTLi5LSjWJbXzUS/nWYCJbQneLdJ4ph4Q7MAoGCCqGSM49BAMC
A0cAMEQCIFH/Cm+epgBJoz2S3eZaSPQLb2+3seJAEe2rgvrTcA4ZAiB6kXpC2VR9
kqcv+HpDrbmx4Xq3PgTsQ5HxY1B5vepJ2g==
-----END CERTIFICATE-----
