Certificate:
    Data:
        Version: 3 (0x2)
        Serial Number:
            40:f0:7c:b5:4b:49:39:0b:b1
    Signature Algorithm: ecdsa-with-SHA256
        Issuer: CN = EADTrust ECC 256 SubCA For Qualified Certificates 2019, O = "European Agency of Digital Trust, S.L.", C = ES, 2.5.4.97 = VATES-B85626240, OU = Legal Person
        Validity
            Not Before: May 27 12:58:00 2021 GMT
            Not After : May 27 12:58:00 2023 GMT
        Subject: CN = Servicio C\C3\A1ntabro de Salud, serialNumber = Q3900738J, OU = SELLO ELECTRONICO, 2.5.4.97 = VATES-Q3900738J, O = Servicio C\C3\A1ntabro de Salud, C = ES
        Subject Public Key Info:
            Public Key Algorithm: id-ecPublicKey
                Public-Key: (256 bit)
                pub:
                    04:8f:fc:0f:58:ce:9e:f0:90:d8:c5:6f:7a:ef:78:
                    af:12:fc:25:bb:62:40:66:9b:0d:06:ba:f6:b1:05:
                    b9:a6:99:2e:ea:b7:2a:25:42:b1:ec:a6:ef:7f:66:
                    71:d4:02:5e:21:2e:fe:3d:0a:b6:88:d7:2e:81:f0:
                    fe:44:2f:d5:7d
                ASN1 OID: prime256v1
                NIST CURVE: P-256
        X509v3 extensions:
            X509v3 Basic Constraints: critical
                CA:FALSE
            X509v3 Authority Key Identifier: 
                keyid:D3:4C:6C:3A:BD:36:FE:70:87:23:87:3A:EE:3D:90:CF:CB:9B:F7:21

            Authority Information Access: 
                CA Issuers - URI:http://ca.eadtrust.eu/eadtrust-subca-ecc256eadlp2019.crt
                OCSP - URI:http://ocsp.eadtrust.eu

            X509v3 Issuer Alternative Name: 
                email:ca@eadtrust.eu, URI:http://www.eadtrust.eu, URI:http://ca.eadtrust.eu, URI:http://policy.eadtrust.eu
            X509v3 Subject Alternative Name: 
                DirName:/2.16.724.1.3.5.6.2.1=SELLO ELECTRONICO DE NIVEL MEDIO/2.16.724.1.3.5.6.2.2=Servicio C\xC3\xA1ntabro de Salud/2.16.724.1.3.5.6.2.3=Q3900738J
            X509v3 Certificate Policies: 
                Policy: 2.16.724.1.3.5.6.2
                Policy: 0.4.0.194112.1.1
                  User Notice:
                    Explicit Text: European Telecommunications Standards Institute. eIDAS European Regulation Compliant
                Policy: 1.3.6.1.4.1.501.2.1.1.0.41233
                  CPS: http://policy.eadtrust.eu
                  User Notice:
                    Explicit Text: Certificado cualificado de sello electrónico de Administración, órgano o entidad de derecho público, nivel Medio/Sustancial. Consulte las condiciones de uso en http://policy.eadtrust.eu

            X509v3 Extended Key Usage: 
                TLS Web Client Authentication, E-mail Protection
            qcStatements: 
                0..0...+.......0.......I..0......F..0......F.....0......F..0......F...0l.....F..0b00.*https://eadtrust.eu/en/documents-in-force/..en0..(https://eadtrust.eu/documentos-vigentes/..es
            X509v3 CRL Distribution Points: 

                Full Name:
                  URI:http://crl.eadtrust.eu/eadtrust-subca-ecc256eadlp2019.crl

            X509v3 Subject Key Identifier: 
                81:50:A6:0D:29:54:99:FD:1D:C9:7F:62:67:66:14:A7:ED:D8:59:EE
            X509v3 Key Usage: critical
                Digital Signature, Non Repudiation, Key Encipherment
    Signature Algorithm: ecdsa-with-SHA256
         30:45:02:21:00:b5:37:33:35:2c:ed:c9:90:ff:bf:b4:0f:29:
         86:5f:e1:2a:d0:ec:8b:2a:9b:bf:fb:75:9a:d5:21:40:23:bd:
         fa:02:20:10:19:27:67:e4:62:8a:e4:a3:41:1c:a8:ac:fc:33:
         7f:23:bf:20:5c:b7:67:ca:e4:36:e6:f6:f5:5a:f7:af:89
-----BEGIN CERTIFICATE-----
MIIG4jCCBoigAwIBAgIJQPB8tUtJOQuxMAoGCCqGSM49BAMCMIGwMT8wPQYDVQQD
DDZFQURUcnVzdCBFQ0MgMjU2IFN1YkNBIEZvciBRdWFsaWZpZWQgQ2VydGlmaWNh
dGVzIDIwMTkxLzAtBgNVBAoMJkV1cm9wZWFuIEFnZW5jeSBvZiBEaWdpdGFsIFRy
dXN0LCBTLkwuMQswCQYDVQQGEwJFUzEYMBYGA1UEYQwPVkFURVMtQjg1NjI2MjQw
MRUwEwYDVQQLDAxMZWdhbCBQZXJzb24wHhcNMjEwNTI3MTI1ODAwWhcNMjMwNTI3
MTI1ODAwWjCBozEkMCIGA1UEAwwbU2VydmljaW8gQ8OhbnRhYnJvIGRlIFNhbHVk
MRIwEAYDVQQFEwlRMzkwMDczOEoxGjAYBgNVBAsMEVNFTExPIEVMRUNUUk9OSUNP
MRgwFgYDVQRhDA9WQVRFUy1RMzkwMDczOEoxJDAiBgNVBAoMG1NlcnZpY2lvIEPD
oW50YWJybyBkZSBTYWx1ZDELMAkGA1UEBhMCRVMwWTATBgcqhkjOPQIBBggqhkjO
PQMBBwNCAASP/A9Yzp7wkNjFb3rveK8S/CW7YkBmmw0GuvaxBbmmmS7qtyolQrHs
pu9/ZnHUAl4hLv49CraI1y6B8P5EL9V9o4IElDCCBJAwDAYDVR0TAQH/BAIwADAf
BgNVHSMEGDAWgBTTTGw6vTb+cIcjhzruPZDPy5v3ITB5BggrBgEFBQcBAQRtMGsw
RAYIKwYBBQUHMAKGOGh0dHA6Ly9jYS5lYWR0cnVzdC5ldS9lYWR0cnVzdC1zdWJj
YS1lY2MyNTZlYWRscDIwMTkuY3J0MCMGCCsGAQUFBzABhhdodHRwOi8vb2NzcC5l
YWR0cnVzdC5ldTBjBgNVHRIEXDBagQ5jYUBlYWR0cnVzdC5ldYYWaHR0cDovL3d3
dy5lYWR0cnVzdC5ldYYVaHR0cDovL2NhLmVhZHRydXN0LmV1hhlodHRwOi8vcG9s
aWN5LmVhZHRydXN0LmV1MIGEBgNVHREEfTB7pHkwdzEvMC0GCWCFVAEDBQYCAQwg
U0VMTE8gRUxFQ1RST05JQ08gREUgTklWRUwgTUVESU8xKjAoBglghVQBAwUGAgIM
G1NlcnZpY2lvIEPDoW50YWJybyBkZSBTYWx1ZDEYMBYGCWCFVAEDBQYCAwwJUTM5
MDA3MzhKMIIBmAYDVR0gBIIBjzCCAYswCgYIYIVUAQMFBgIwbwYHBACL7EABATBk
MGIGCCsGAQUFBwICMFYMVEV1cm9wZWFuIFRlbGVjb21tdW5pY2F0aW9ucyBTdGFu
ZGFyZHMgSW5zdGl0dXRlLiBlSURBUyBFdXJvcGVhbiBSZWd1bGF0aW9uIENvbXBs
aWFudDCCAQoGDisGAQQBg3UCAQEAgsIRMIH3MCUGCCsGAQUFBwIBFhlodHRwOi8v
cG9saWN5LmVhZHRydXN0LmV1MIHNBggrBgEFBQcCAjCBwAyBvUNlcnRpZmljYWRv
IGN1YWxpZmljYWRvIGRlIHNlbGxvIGVsZWN0csOzbmljbyBkZSBBZG1pbmlzdHJh
Y2nDs24sIMOzcmdhbm8gbyBlbnRpZGFkIGRlIGRlcmVjaG8gcMO6YmxpY28sIG5p
dmVsIE1lZGlvL1N1c3RhbmNpYWwuIENvbnN1bHRlIGxhcyBjb25kaWNpb25lcyBk
ZSB1c28gZW4gaHR0cDovL3BvbGljeS5lYWR0cnVzdC5ldTAdBgNVHSUEFjAUBggr
BgEFBQcDAgYIKwYBBQUHAwQwgcEGCCsGAQUFBwEDBIG0MIGxMBUGCCsGAQUFBwsC
MAkGBwQAi+xJAQIwCAYGBACORgEBMAsGBgQAjkYBAwIBDzATBgYEAI5GAQYwCQYH
BACORgEGAjBsBgYEAI5GAQUwYjAwFipodHRwczovL2VhZHRydXN0LmV1L2VuL2Rv
Y3VtZW50cy1pbi1mb3JjZS8TAmVuMC4WKGh0dHBzOi8vZWFkdHJ1c3QuZXUvZG9j
dW1lbnRvcy12aWdlbnRlcy8TAmVzMEoGA1UdHwRDMEEwP6A9oDuGOWh0dHA6Ly9j
cmwuZWFkdHJ1c3QuZXUvZWFkdHJ1c3Qtc3ViY2EtZWNjMjU2ZWFkbHAyMDE5LmNy
bDAdBgNVHQ4EFgQUgVCmDSlUmf0dyX9iZ2YUp+3YWe4wDgYDVR0PAQH/BAQDAgXg
MAoGCCqGSM49BAMCA0gAMEUCIQC1NzM1LO3JkP+/tA8phl/hKtDsiyqbv/t1mtUh
QCO9+gIgEBknZ+RiiuSjQRyorPwzfyO/IFy3Z8rkNub29Vr3r4k=
-----END CERTIFICATE-----
