Certificate:
    Data:
        Version: 3 (0x2)
        Serial Number:
            74:95:55:e7:ab:55:fa:3b:2a:b3:f4:82:ca:e9:45:00
    Signature Algorithm: rsassaPss
         Hash Algorithm: sha512
         Mask Algorithm: mgf1 with sha512
         Salt Length: 0x40
         Trailer Field: 0xBC (default)
        Issuer: C = DE, O = D-Trust GmbH, CN = D-TRUST CA 2-2 2019, 2.5.4.97 = NTRDE-HRB74346
        Validity
            Not Before: Jun  7 09:50:12 2021 GMT
            Not After : Jun 11 09:50:12 2023 GMT
        Subject: C = DE, O = Robert Koch-Institut, OU = Elektronischer Impfnachweis, CN = Robert Koch-Institut, L = Berlin, postalCode = 13353, street = Nordufer 20, 2.5.4.97 = DT:DE-3023531445, serialNumber = CSM026413231, ST = Berlin
        Subject Public Key Info:
            Public Key Algorithm: id-ecPublicKey
                Public-Key: (256 bit)
                pub:
                    04:c5:f7:22:16:e8:75:8c:bd:cb:04:fc:da:34:05:
                    66:99:54:cb:f3:b7:89:eb:05:5c:b5:28:37:f7:79:
                    d4:71:7c:55:2f:5b:f9:bc:28:29:ea:35:a5:45:d2:
                    60:95:52:63:f2:34:46:d1:37:c5:dc:e2:e3:0d:41:
                    c0:3e:7d:ab:03
                ASN1 OID: prime256v1
                NIST CURVE: P-256
        X509v3 extensions:
            X509v3 Authority Key Identifier: 
                keyid:71:10:32:AE:74:71:7B:54:8E:F1:D6:AB:62:54:AE:FC:3E:C0:BB:16

            qcStatements: 
                0.0......F..0......F..0......F...
            Authority Information Access: 
                OCSP - URI:http://d-trust-ca-2-2-2019.ocsp.d-trust.net
                CA Issuers - URI:http://www.d-trust.net/cgi-bin/D-TRUST_CA_2-2_2019.crt
                CA Issuers - URI:ldap://directory.d-trust.net/CN=D-TRUST%20CA%202-2%202019,O=D-Trust%20GmbH,C=DE?cACertificate?base?

            X509v3 Certificate Policies: 
                Policy: 0.4.0.194112.1.1
                Policy: 1.3.6.1.4.1.4788.2.150.5
                  CPS: http://www.d-trust.net/internet/files/D-TRUST_CSM_PKI_CPS.pdf

            X509v3 CRL Distribution Points: 

                Full Name:
                  URI:ldap://directory.d-trust.net/CN=D-TRUST%20CA%202-2%202019,O=D-Trust%20GmbH,C=DE?certificaterevocationlist
                  URI:http://crl.d-trust.net/crl/d-trust_ca_2-2_2019.crl
                  URI:http://cdn.d-trust-cloudcrl.net/crl/d-trust_ca_2-2_2019.crl

            X509v3 Subject Key Identifier: 
                01:09:88:5A:A8:8D:3B:59:04:C5:D7:01:39:DF:2B:B1:AC:B9:FD:F3
            X509v3 Key Usage: critical
                Digital Signature, Non Repudiation
    Signature Algorithm: rsassaPss
         Hash Algorithm: sha512
         Mask Algorithm: mgf1 with sha512
         Salt Length: 0x40
         Trailer Field: 0xBC (default)

         b1:84:cc:2f:86:30:b1:ed:66:f1:46:f8:74:33:43:3d:ad:f2:
         61:ac:0c:75:ab:a0:45:13:fa:f8:73:ec:44:64:53:23:61:ec:
         ce:50:b1:82:c8:cc:4e:e7:38:70:57:52:ab:0a:5c:2d:06:b5:
         b9:db:ee:64:69:c7:42:1d:40:8f:af:28:56:ab:65:84:bc:24:
         f2:7e:82:64:6f:ec:1b:8b:e6:b6:66:ad:1b:dc:31:87:84:fe:
         7a:38:55:ac:ef:c4:b8:4e:34:6d:94:b8:65:be:06:64:82:39:
         cc:d7:6f:2c:77:0c:e1:d4:57:b5:17:1e:c8:b6:79:ac:c1:a4:
         3b:21:b6:6d:7a:08:27:4c:59:d6:0a:a4:cd:57:d1:0a:bf:fe:
         6f:3b:4c:ef:e9:9f:84:84:44:31:ca:17:63:93:bb:8c:a2:6c:
         a1:29:68:c3:4b:cb:cc:54:2e:87:af:c0:e9:6f:c3:29:c0:e8:
         ef:ec:ef:df:f0:11:96:7e:ec:1d:31:53:a6:fb:db:97:61:da:
         e0:28:f0:be:de:ee:8c:f2:57:95:6d:f5:a2:22:28:98:f2:bc:
         92:6b:bd:2b:d9:a3:49:c0:97:71:f8:75:71:b9:2c:3b:4e:a9:
         ea:f2:55:31:ad:30:99:10:0c:07:cb:e9:af:4d:15:d1:36:24:
         35:20:9f:17:db:d6:c7:6b:58:fd:30:4f:83:3b:35:0a:63:dc:
         cb:fc:cd:aa:59:0f:51:63:12:07:c6:27:12:37:ac:9e:5c:b6:
         30:9f:b5:e2:1e:23:37:70:91:25:c5:53:76:d3:04:21:f5:75:
         38:32:22:68:77:9a:da:1e:2e:76:13:14:be:62:6b:a0:5f:07:
         12:04:04:c6:37:68:8d:12:97:c9:f6:fc:94:ee:5b:3d:55:71:
         4e:fb:57:88:6b:8c:9c:8e:97:8e:ea:fe:74:0a:c5:18:54:bb:
         b8:89:5c:db:27:31:47:b2:77:76:97:fb:73:68:94:d6:75:5f:
         fe:f3:60:fa:b2:62:05:5d:03:6b:e1:8f:17:a5:9d:7f:e0:19:
         93:9d:4c:87:5d:c1:10:f3:b3:ab:f9:38:69:ad:f8:47:71:4d:
         f1:bd:09:d7:ed:18:b9:ed:ce:f6:ed:e7:98:80:ff:23:9a:69:
         8c:d8:70:b6:c1:8f:3a:88:63:9c:86:4e:34:53:db:d9:76:14:
         a9:c4:4c:3b:a1:b8:c8:5f:22:54:d8:29:24:b7:e6:01:6d:a6:
         30:8d:51:ca:78:62:5c:3a:84:9a:86:a7:7e:88:8f:18:cd:79:
         9e:93:fb:c2:57:33:73:f8:f1:cd:9c:cf:00:4b:c0:99:e4:69:
         e6:87:b1:79:71:1c:d1:5d
-----BEGIN CERTIFICATE-----
MIIHUTCCBQmgAwIBAgIQdJVV56tV+jsqs/SCyulFADA9BgkqhkiG9w0BAQowMKAN
MAsGCWCGSAFlAwQCA6EaMBgGCSqGSIb3DQEBCDALBglghkgBZQMEAgOiAwIBQDBb
MQswCQYDVQQGEwJERTEVMBMGA1UEChMMRC1UcnVzdCBHbWJIMRwwGgYDVQQDExNE
LVRSVVNUIENBIDItMiAyMDE5MRcwFQYDVQRhEw5OVFJERS1IUkI3NDM0NjAeFw0y
MTA2MDcwOTUwMTJaFw0yMzA2MTEwOTUwMTJaMIHrMQswCQYDVQQGEwJERTEdMBsG
A1UEChMUUm9iZXJ0IEtvY2gtSW5zdGl0dXQxJDAiBgNVBAsTG0VsZWt0cm9uaXNj
aGVyIEltcGZuYWNod2VpczEdMBsGA1UEAxMUUm9iZXJ0IEtvY2gtSW5zdGl0dXQx
DzANBgNVBAcTBkJlcmxpbjEOMAwGA1UEEQwFMTMzNTMxFDASBgNVBAkTC05vcmR1
ZmVyIDIwMRkwFwYDVQRhExBEVDpERS0zMDIzNTMxNDQ1MRUwEwYDVQQFEwxDU00w
MjY0MTMyMzExDzANBgNVBAgTBkJlcmxpbjBZMBMGByqGSM49AgEGCCqGSM49AwEH
A0IABMX3IhbodYy9ywT82jQFZplUy/O3iesFXLUoN/d51HF8VS9b+bwoKeo1pUXS
YJVSY/I0RtE3xdzi4w1BwD59qwOjggLpMIIC5TAfBgNVHSMEGDAWgBRxEDKudHF7
VI7x1qtiVK78PsC7FjAtBggrBgEFBQcBAwQhMB8wCAYGBACORgEBMBMGBgQAjkYB
BjAJBgcEAI5GAQYCMIH+BggrBgEFBQcBAQSB8TCB7jA3BggrBgEFBQcwAYYraHR0
cDovL2QtdHJ1c3QtY2EtMi0yLTIwMTkub2NzcC5kLXRydXN0Lm5ldDBCBggrBgEF
BQcwAoY2aHR0cDovL3d3dy5kLXRydXN0Lm5ldC9jZ2ktYmluL0QtVFJVU1RfQ0Ff
Mi0yXzIwMTkuY3J0MG8GCCsGAQUFBzAChmNsZGFwOi8vZGlyZWN0b3J5LmQtdHJ1
c3QubmV0L0NOPUQtVFJVU1QlMjBDQSUyMDItMiUyMDIwMTksTz1ELVRydXN0JTIw
R21iSCxDPURFP2NBQ2VydGlmaWNhdGU/YmFzZT8wcAYDVR0gBGkwZzAJBgcEAIvs
QAEBMFoGCysGAQQBpTQCgRYFMEswSQYIKwYBBQUHAgEWPWh0dHA6Ly93d3cuZC10
cnVzdC5uZXQvaW50ZXJuZXQvZmlsZXMvRC1UUlVTVF9DU01fUEtJX0NQUy5wZGYw
gfAGA1UdHwSB6DCB5TCB4qCB36CB3IZpbGRhcDovL2RpcmVjdG9yeS5kLXRydXN0
Lm5ldC9DTj1ELVRSVVNUJTIwQ0ElMjAyLTIlMjAyMDE5LE89RC1UcnVzdCUyMEdt
YkgsQz1ERT9jZXJ0aWZpY2F0ZXJldm9jYXRpb25saXN0hjJodHRwOi8vY3JsLmQt
dHJ1c3QubmV0L2NybC9kLXRydXN0X2NhXzItMl8yMDE5LmNybIY7aHR0cDovL2Nk
bi5kLXRydXN0LWNsb3VkY3JsLm5ldC9jcmwvZC10cnVzdF9jYV8yLTJfMjAxOS5j
cmwwHQYDVR0OBBYEFAEJiFqojTtZBMXXATnfK7Gsuf3zMA4GA1UdDwEB/wQEAwIG
wDA9BgkqhkiG9w0BAQowMKANMAsGCWCGSAFlAwQCA6EaMBgGCSqGSIb3DQEBCDAL
BglghkgBZQMEAgOiAwIBQAOCAgEAsYTML4Ywse1m8Ub4dDNDPa3yYawMdaugRRP6
+HPsRGRTI2HszlCxgsjMTuc4cFdSqwpcLQa1udvuZGnHQh1Aj68oVqtlhLwk8n6C
ZG/sG4vmtmatG9wxh4T+ejhVrO/EuE40bZS4Zb4GZII5zNdvLHcM4dRXtRceyLZ5
rMGkOyG2bXoIJ0xZ1gqkzVfRCr/+bztM7+mfhIREMcoXY5O7jKJsoSlow0vLzFQu
h6/A6W/DKcDo7+zv3/ARln7sHTFTpvvbl2Ha4Cjwvt7ujPJXlW31oiIomPK8kmu9
K9mjScCXcfh1cbksO06p6vJVMa0wmRAMB8vpr00V0TYkNSCfF9vWx2tY/TBPgzs1
CmPcy/zNqlkPUWMSB8YnEjesnly2MJ+14h4jN3CRJcVTdtMEIfV1ODIiaHea2h4u
dhMUvmJroF8HEgQExjdojRKXyfb8lO5bPVVxTvtXiGuMnI6Xjur+dArFGFS7uIlc
2ycxR7J3dpf7c2iU1nVf/vNg+rJiBV0Da+GPF6Wdf+AZk51Mh13BEPOzq/k4aa34
R3FN8b0J1+0Yue3O9u3nmID/I5ppjNhwtsGPOohjnIZONFPb2XYUqcRMO6G4yF8i
VNgpJLfmAW2mMI1RynhiXDqEmoanfoiPGM15npP7wlczc/jxzZzPAEvAmeRp5oex
eXEc0V0=
-----END CERTIFICATE-----
