Certificate:
    Data:
        Version: 3 (0x2)
        Serial Number:
            2d:24:16:a6:16:0f:ff:fc:e4:d4:94:26:a6:ff:78:74:81:fa:72:64
    Signature Algorithm: sha256WithRSAEncryption
        Issuer: C = FR, O = Gouv, CN = CSCA-FRANCE
        Validity
            Not Before: Jul 22 22:00:00 2021 GMT
            Not After : Jul 22 22:00:00 2023 GMT
        Subject: C = FR, O = DGS, OU = 120036017, CN = DSC_FR_014
        Subject Public Key Info:
            Public Key Algorithm: id-ecPublicKey
                Public-Key: (256 bit)
                pub:
                    04:6c:64:1a:d3:b0:4c:ed:01:03:53:a9:7a:f0:2d:
                    a7:e9:91:cc:ed:9c:59:98:74:0d:74:17:fe:ea:ea:
                    39:b4:37:f1:7b:e7:e6:c1:a5:a5:a6:ca:98:a5:87:
                    f6:20:2c:65:be:02:fa:33:1e:46:4e:f9:ec:d5:eb:
                    ca:09:0a:31:1e
                ASN1 OID: prime256v1
                NIST CURVE: P-256
        X509v3 extensions:
            X509v3 Subject Key Identifier: 
                66:9A:E4:86:7D:76:B4:44:7B:49:60:44:B4:3F:26:3C:D0:CD:98:AF
            X509v3 Authority Key Identifier: 
                keyid:BE:8A:2E:D6:C9:F9:20:4E:3A:27:03:08:97:4D:EC:FD:D9:7D:C5:E6

            X509v3 Basic Constraints: critical
                CA:FALSE
            X509v3 Key Usage: critical
                Digital Signature
            X509v3 CRL Distribution Points: 

                Full Name:
                  URI:http://ants.gouv.fr/csca_crl

            X509v3 Certificate Policies: 
                Policy: 1.2.250.1.200.31.3.9.1.1

            Authority Information Access: 
                CA Issuers - URI:https://ant.gouv.fr/csca

    Signature Algorithm: sha256WithRSAEncryption
         42:26:09:28:8b:89:f2:a8:f1:17:bf:c5:42:21:7c:ce:e3:bb:
         0b:59:2e:06:3a:b4:f8:79:0f:4d:8c:40:6e:5e:a9:02:55:6c:
         0c:89:0f:b4:3c:f8:8d:8b:6d:d0:5b:1e:bb:64:ae:83:61:44:
         09:50:e1:c0:57:c5:51:29:94:4a:e8:6f:94:1d:15:97:ef:a8:
         64:d3:4f:a1:99:6e:6a:2f:b6:13:e3:e6:7c:46:c5:e3:f1:30:
         3f:0d:b5:13:5f:01:1e:49:28:a7:7d:06:1e:7c:ba:02:f0:9f:
         46:ee:f4:d8:99:2e:2c:bb:40:9a:1b:4c:2b:d2:ab:12:38:c2:
         99:08:cf:ec:87:40:d4:08:db:59:4e:9c:d3:b2:90:e3:fe:2d:
         93:3e:14:cd:86:d8:72:1b:64:16:14:a9:d3:75:0a:ee:13:24:
         f7:5c:2d:5d:8a:ca:ee:a3:f1:f4:b6:88:4a:38:09:99:86:a5:
         e8:71:d2:85:4e:5e:98:71:b9:f6:d4:0d:8f:9b:fc:49:46:1f:
         96:fd:3d:7d:6c:51:7d:ed:9f:a2:e5:3e:c2:7d:2e:19:ad:fd:
         15:42:6e:19:36:b5:2f:f7:a8:30:c9:ee:77:d9:dd:10:43:fe:
         89:64:24:d3:ed:a2:fd:7e:31:27:13:39:10:76:d7:58:3c:4d:
         34:e7:51:c8:f6:04:4a:99:6e:a4:fb:e8:56:16:2a:24:85:c6:
         ab:bd:60:2c:36:43:78:07:83:08:cd:3b:9f:46:6f:76:84:26:
         f3:16:1e:48:be:c1:d8:69:a0:14:b1:f1:0c:0e:ca:e1:15:29:
         2e:67:5b:30:ce:29:8f:d8:04:37:f1:1d:4e:d0:1a:db:da:99:
         6c:de:c1:7b:48:07:37:8f:92:c0:fd:b5:d9:36:13:09:f6:20:
         6b:a1:cd:52:57:b6:02:e9:5b:f5:0d:93:87:4e:e9:92:2f:0d:
         9f:bf:00:ed:df:9f:2c:12:27:2c:0a:07:69:ce:99:b8:80:a4:
         ce:7f:ad:ab:ce:a1:a2:36:92:96:05:b6:56:da:62:6f:ba:fe:
         96:35:5e:42:d3:f6:96:ee:bd:67:7e:e2:7d:fa:a4:9d:d9:25:
         2b:65:41:5c:78:4e:2f:a7:13:36:71:c8:2c:a1:d1:e7:b2:96:
         d2:a3:b8:ca:4d:e2:7b:97:5e:2b:42:7f:57:be:86:58:dc:4f:
         98:15:c7:5b:25:04:1e:63:49:c0:04:1f:37:69:c2:70:d4:f5:
         4a:7d:5b:32:b7:d0:f7:0c:bc:16:5c:47:14:73:05:06:8a:8c:
         55:c2:21:d1:d3:55:72:ac:1d:85:04:ab:ab:ad:76:04:c7:43:
         e0:95:22:3f:35:90:4b:ff
-----BEGIN CERTIFICATE-----
MIIEGjCCAgKgAwIBAgIULSQWphYP//zk1JQmpv94dIH6cmQwDQYJKoZIhvcNAQEL
BQAwMjELMAkGA1UEBhMCRlIxDTALBgNVBAoMBEdvdXYxFDASBgNVBAMMC0NTQ0Et
RlJBTkNFMB4XDTIxMDcyMjIyMDAwMFoXDTIzMDcyMjIyMDAwMFowRDELMAkGA1UE
BhMCRlIxDDAKBgNVBAoMA0RHUzESMBAGA1UECwwJMTIwMDM2MDE3MRMwEQYDVQQD
DApEU0NfRlJfMDE0MFkwEwYHKoZIzj0CAQYIKoZIzj0DAQcDQgAEbGQa07BM7QED
U6l68C2n6ZHM7ZxZmHQNdBf+6uo5tDfxe+fmwaWlpsqYpYf2ICxlvgL6Mx5GTvns
1evKCQoxHqOB4DCB3TAdBgNVHQ4EFgQUZprkhn12tER7SWBEtD8mPNDNmK8wHwYD
VR0jBBgwFoAUvoou1sn5IE46JwMIl03s/dl9xeYwDAYDVR0TAQH/BAIwADAOBgNV
HQ8BAf8EBAMCB4AwLQYDVR0fBCYwJDAioCCgHoYcaHR0cDovL2FudHMuZ291di5m
ci9jc2NhX2NybDAYBgNVHSAEETAPMA0GCyqBegGBSB8DCQEBMDQGCCsGAQUFBwEB
BCgwJjAkBggrBgEFBQcwAoYYaHR0cHM6Ly9hbnQuZ291di5mci9jc2NhMA0GCSqG
SIb3DQEBCwUAA4ICAQBCJgkoi4nyqPEXv8VCIXzO47sLWS4GOrT4eQ9NjEBuXqkC
VWwMiQ+0PPiNi23QWx67ZK6DYUQJUOHAV8VRKZRK6G+UHRWX76hk00+hmW5qL7YT
4+Z8RsXj8TA/DbUTXwEeSSinfQYefLoC8J9G7vTYmS4su0CaG0wr0qsSOMKZCM/s
h0DUCNtZTpzTspDj/i2TPhTNhthyG2QWFKnTdQruEyT3XC1disruo/H0tohKOAmZ
hqXocdKFTl6Ycbn21A2Pm/xJRh+W/T19bFF97Z+i5T7CfS4Zrf0VQm4ZNrUv96gw
ye532d0QQ/6JZCTT7aL9fjEnEzkQdtdYPE0051HI9gRKmW6k++hWFiokhcarvWAs
NkN4B4MIzTufRm92hCbzFh5IvsHYaaAUsfEMDsrhFSkuZ1swzimP2AQ38R1O0Brb
2pls3sF7SAc3j5LA/bXZNhMJ9iBroc1SV7YC6Vv1DZOHTumSLw2fvwDt358sEics
Cgdpzpm4gKTOf62rzqGiNpKWBbZW2mJvuv6WNV5C0/aW7r1nfuJ9+qSd2SUrZUFc
eE4vpxM2ccgsodHnspbSo7jKTeJ7l14rQn9XvoZY3E+YFcdbJQQeY0nABB83acJw
1PVKfVsyt9D3DLwWXEcUcwUGioxVwiHR01VyrB2FBKurrXYEx0PglSI/NZBL/w==
-----END CERTIFICATE-----
