Certificate:
    Data:
        Version: 3 (0x2)
        Serial Number:
            08:d2:73:a9:2e:30:44:13:6c
    Signature Algorithm: ecdsa-with-SHA256
        Issuer: CN = EADTrust ECC 256 SubCA For Qualified Certificates 2019, O = "European Agency of Digital Trust, S.L.", C = ES, 2.5.4.97 = VATES-B85626240, OU = Legal Person
        Validity
            Not Before: Jun  3 08:15:00 2021 GMT
            Not After : Jun  3 08:15:00 2023 GMT
        Subject: CN = SELLO MINISTERIO DE SANIDAD CERTIFICACION COVID19, serialNumber = S2827001E, OU = SELLO ELECTRONICO, OU = SELLO MINISTERIO DE SANIDAD CERTIFICACION COVID19, 2.5.4.97 = VATES-S2827001E, O = MINISTERIO DE SANIDAD, C = ES
        Subject Public Key Info:
            Public Key Algorithm: id-ecPublicKey
                Public-Key: (256 bit)
                pub:
                    04:dc:a5:48:ed:2c:be:89:df:9b:a6:b2:7c:12:1f:
                    40:1e:d5:be:d6:a7:82:e2:aa:07:1f:5a:0a:ec:73:
                    7c:ed:42:87:f4:ac:50:8b:1d:23:ab:44:72:49:bd:
                    9c:fb:90:8d:fa:46:c0:7e:c6:04:bd:42:df:1d:3a:
                    33:d8:55:b3:59
                ASN1 OID: prime256v1
                NIST CURVE: P-256
        X509v3 extensions:
            X509v3 Basic Constraints: critical
                CA:FALSE
            X509v3 Authority Key Identifier: 
                keyid:D3:4C:6C:3A:BD:36:FE:70:87:23:87:3A:EE:3D:90:CF:CB:9B:F7:21

            Authority Information Access: 
                CA Issuers - URI:http://ca.eadtrust.eu/eadtrust-subca-ecc256eadlp2019.crt
                OCSP - URI:http://ocsp.eadtrust.eu

            X509v3 Issuer Alternative Name: 
                email:ca@eadtrust.eu, URI:http://www.eadtrust.eu, URI:http://ca.eadtrust.eu, URI:http://policy.eadtrust.eu
            X509v3 Subject Alternative Name: 
                DirName:/2.16.724.1.3.5.6.2.1=SELLO ELECTRONICO DE NIVEL MEDIO/2.16.724.1.3.5.6.2.2=MINISTERIO DE SANIDAD/2.16.724.1.3.5.6.2.3=S2827001E
            X509v3 Certificate Policies: 
                Policy: 2.16.724.1.3.5.6.2
                Policy: 0.4.0.194112.1.1
                  User Notice:
                    Explicit Text: European Telecommunications Standards Institute. eIDAS European Regulation Compliant
                Policy: 1.3.6.1.4.1.501.2.1.1.0.41233
                  CPS: http://policy.eadtrust.eu
                  User Notice:
                    Explicit Text: Certificado cualificado de sello electrónico de Administración, órgano o entidad de derecho público, nivel Medio/Sustancial. Consulte las condiciones de uso en http://policy.eadtrust.eu

            X509v3 Extended Key Usage: 
                TLS Web Client Authentication, E-mail Protection
            qcStatements: 
                0..0...+.......0.......I..0......F..0......F.....0......F..0......F...0l.....F..0b00.*https://eadtrust.eu/en/documents-in-force/..en0..(https://eadtrust.eu/documentos-vigentes/..es
            X509v3 CRL Distribution Points: 

                Full Name:
                  URI:http://crl.eadtrust.eu/eadtrust-subca-ecc256eadlp2019.crl

            X509v3 Subject Key Identifier: 
                C5:3E:6F:9E:B6:87:D5:80:F9:44:8E:4C:54:4E:20:7D:6A:42:63:30
            X509v3 Key Usage: critical
                Digital Signature, Non Repudiation, Key Encipherment
    Signature Algorithm: ecdsa-with-SHA256
         30:46:02:21:00:d3:5e:02:71:37:8b:e5:49:6d:d5:79:14:28:
         b1:03:83:ec:cc:24:8d:47:f1:2b:23:f6:01:14:dc:a2:90:41:
         ba:02:21:00:e1:23:d1:8c:4b:08:71:66:d1:be:b6:61:b9:e3:
         dd:42:65:85:7c:b5:22:a0:15:6c:91:1e:da:20:7f:30:fc:17
-----BEGIN CERTIFICATE-----
MIIHKDCCBs2gAwIBAgIJCNJzqS4wRBNsMAoGCCqGSM49BAMCMIGwMT8wPQYDVQQD
DDZFQURUcnVzdCBFQ0MgMjU2IFN1YkNBIEZvciBRdWFsaWZpZWQgQ2VydGlmaWNh
dGVzIDIwMTkxLzAtBgNVBAoMJkV1cm9wZWFuIEFnZW5jeSBvZiBEaWdpdGFsIFRy
dXN0LCBTLkwuMQswCQYDVQQGEwJFUzEYMBYGA1UEYQwPVkFURVMtQjg1NjI2MjQw
MRUwEwYDVQQLDAxMZWdhbCBQZXJzb24wHhcNMjEwNjAzMDgxNTAwWhcNMjMwNjAz
MDgxNTAwWjCB7zE6MDgGA1UEAwwxU0VMTE8gTUlOSVNURVJJTyBERSBTQU5JREFE
IENFUlRJRklDQUNJT04gQ09WSUQxOTESMBAGA1UEBRMJUzI4MjcwMDFFMRowGAYD
VQQLDBFTRUxMTyBFTEVDVFJPTklDTzE6MDgGA1UECwwxU0VMTE8gTUlOSVNURVJJ
TyBERSBTQU5JREFEIENFUlRJRklDQUNJT04gQ09WSUQxOTEYMBYGA1UEYQwPVkFU
RVMtUzI4MjcwMDFFMR4wHAYDVQQKDBVNSU5JU1RFUklPIERFIFNBTklEQUQxCzAJ
BgNVBAYTAkVTMFkwEwYHKoZIzj0CAQYIKoZIzj0DAQcDQgAE3KVI7Sy+id+bprJ8
Eh9AHtW+1qeC4qoHH1oK7HN87UKH9KxQix0jq0RySb2c+5CN+kbAfsYEvULfHToz
2FWzWaOCBI0wggSJMAwGA1UdEwEB/wQCMAAwHwYDVR0jBBgwFoAU00xsOr02/nCH
I4c67j2Qz8ub9yEweQYIKwYBBQUHAQEEbTBrMEQGCCsGAQUFBzAChjhodHRwOi8v
Y2EuZWFkdHJ1c3QuZXUvZWFkdHJ1c3Qtc3ViY2EtZWNjMjU2ZWFkbHAyMDE5LmNy
dDAjBggrBgEFBQcwAYYXaHR0cDovL29jc3AuZWFkdHJ1c3QuZXUwYwYDVR0SBFww
WoEOY2FAZWFkdHJ1c3QuZXWGFmh0dHA6Ly93d3cuZWFkdHJ1c3QuZXWGFWh0dHA6
Ly9jYS5lYWR0cnVzdC5ldYYZaHR0cDovL3BvbGljeS5lYWR0cnVzdC5ldTB+BgNV
HREEdzB1pHMwcTEvMC0GCWCFVAEDBQYCAQwgU0VMTE8gRUxFQ1RST05JQ08gREUg
TklWRUwgTUVESU8xJDAiBglghVQBAwUGAgIMFU1JTklTVEVSSU8gREUgU0FOSURB
RDEYMBYGCWCFVAEDBQYCAwwJUzI4MjcwMDFFMIIBmAYDVR0gBIIBjzCCAYswCgYI
YIVUAQMFBgIwbwYHBACL7EABATBkMGIGCCsGAQUFBwICMFYMVEV1cm9wZWFuIFRl
bGVjb21tdW5pY2F0aW9ucyBTdGFuZGFyZHMgSW5zdGl0dXRlLiBlSURBUyBFdXJv
cGVhbiBSZWd1bGF0aW9uIENvbXBsaWFudDCCAQoGDisGAQQBg3UCAQEAgsIRMIH3
MCUGCCsGAQUFBwIBFhlodHRwOi8vcG9saWN5LmVhZHRydXN0LmV1MIHNBggrBgEF
BQcCAjCBwAyBvUNlcnRpZmljYWRvIGN1YWxpZmljYWRvIGRlIHNlbGxvIGVsZWN0
csOzbmljbyBkZSBBZG1pbmlzdHJhY2nDs24sIMOzcmdhbm8gbyBlbnRpZGFkIGRl
IGRlcmVjaG8gcMO6YmxpY28sIG5pdmVsIE1lZGlvL1N1c3RhbmNpYWwuIENvbnN1
bHRlIGxhcyBjb25kaWNpb25lcyBkZSB1c28gZW4gaHR0cDovL3BvbGljeS5lYWR0
cnVzdC5ldTAdBgNVHSUEFjAUBggrBgEFBQcDAgYIKwYBBQUHAwQwgcEGCCsGAQUF
BwEDBIG0MIGxMBUGCCsGAQUFBwsCMAkGBwQAi+xJAQIwCAYGBACORgEBMAsGBgQA
jkYBAwIBDzATBgYEAI5GAQYwCQYHBACORgEGAjBsBgYEAI5GAQUwYjAwFipodHRw
czovL2VhZHRydXN0LmV1L2VuL2RvY3VtZW50cy1pbi1mb3JjZS8TAmVuMC4WKGh0
dHBzOi8vZWFkdHJ1c3QuZXUvZG9jdW1lbnRvcy12aWdlbnRlcy8TAmVzMEoGA1Ud
HwRDMEEwP6A9oDuGOWh0dHA6Ly9jcmwuZWFkdHJ1c3QuZXUvZWFkdHJ1c3Qtc3Vi
Y2EtZWNjMjU2ZWFkbHAyMDE5LmNybDAdBgNVHQ4EFgQUxT5vnraH1YD5RI5MVE4g
fWpCYzAwDgYDVR0PAQH/BAQDAgXgMAoGCCqGSM49BAMCA0kAMEYCIQDTXgJxN4vl
SW3VeRQosQOD7MwkjUfxKyP2ARTcopBBugIhAOEj0YxLCHFm0b62Ybnj3UJlhXy1
IqAVbJEe2iB/MPwX
-----END CERTIFICATE-----
