Certificate:
    Data:
        Version: 3 (0x2)
        Serial Number:
            76:10:0c:1f:32:66:b5:f2:3d:28:2d:87:79:9b:ad:78:9f:3e:a3:79
    Signature Algorithm: sha256WithRSAEncryption
        Issuer: C = FR, O = Gouv, CN = CSCA-FRANCE
        Validity
            Not Before: Jun 10 22:00:00 2021 GMT
            Not After : Jun 10 22:00:00 2023 GMT
        Subject: C = FR, O = DGS, OU = 120036017, CN = DSC_FR_012
        Subject Public Key Info:
            Public Key Algorithm: id-ecPublicKey
                Public-Key: (256 bit)
                pub:
                    04:ee:33:b5:c2:df:8a:25:fa:0a:8b:d3:b9:77:27:
                    54:fb:e9:df:10:d7:90:59:d5:40:09:51:30:01:da:
                    ae:c9:84:fa:08:45:9f:a3:5c:46:d6:d5:1c:32:12:
                    88:23:be:d7:25:b1:8a:f8:7d:a7:c8:0b:82:b0:9d:
                    20:4d:f4:f9:95
                ASN1 OID: prime256v1
                NIST CURVE: P-256
        X509v3 extensions:
            X509v3 Subject Key Identifier: 
                A3:07:A6:1B:F4:B9:3C:8C:C5:4A:D9:D8:89:AD:14:E9:15:94:D9:9F
            X509v3 Authority Key Identifier: 
                keyid:BE:8A:2E:D6:C9:F9:20:4E:3A:27:03:08:97:4D:EC:FD:D9:7D:C5:E6

            X509v3 Basic Constraints: critical
                CA:FALSE
            X509v3 Key Usage: critical
                Digital Signature
            X509v3 CRL Distribution Points: 

                Full Name:
                  URI:http://ants.gouv.fr/csca_crl

            X509v3 Certificate Policies: 
                Policy: 1.2.250.1.200.31.3.9.1.1

            Authority Information Access: 
                CA Issuers - URI:https://ant.gouv.fr/csca

    Signature Algorithm: sha256WithRSAEncryption
         65:a9:08:31:56:03:c0:fc:4c:0e:3c:c3:54:63:83:89:9b:8b:
         c6:bf:13:58:73:72:d4:e9:1e:7f:e6:ae:e1:47:06:b4:e3:24:
         ee:40:ec:32:47:34:dc:32:02:76:d7:51:bb:f6:5b:05:c2:2a:
         6b:83:33:74:92:2c:43:61:1a:f0:6b:53:5f:94:54:12:ed:88:
         22:eb:8a:86:6b:52:99:a8:3c:e2:07:54:aa:0d:88:87:5d:70:
         a4:91:34:de:e0:7f:ef:92:96:64:1f:95:3f:fb:c8:d5:51:82:
         3b:de:ae:cc:60:8b:24:c6:01:dc:d4:e6:55:d6:82:8c:5a:29:
         54:f2:b4:9d:5b:30:d0:1c:7e:96:46:4d:81:52:e4:ce:44:8b:
         06:a5:3d:14:f1:e0:50:41:46:8d:85:8f:15:d0:60:e4:28:bc:
         2b:a8:85:84:6c:a0:ba:ca:52:da:d2:91:8d:60:cf:10:30:70:
         2f:57:54:ae:ae:a7:70:a2:10:b8:ff:a4:e8:37:3c:a9:c9:83:
         5c:b4:e2:54:4d:c8:02:c8:3a:4a:75:f4:3e:c5:64:5d:14:3a:
         a3:7b:75:d4:74:84:41:c8:41:c0:6f:ba:3d:fc:5e:87:f4:d2:
         68:37:48:32:54:5e:98:c8:60:18:2c:3e:b3:05:f6:21:a6:73:
         d7:37:10:c2:6b:b4:25:b5:7a:20:56:2d:60:24:58:25:b0:05:
         6b:41:a6:d3:31:7b:00:e3:fd:7e:20:ea:dd:a8:cb:f4:02:57:
         bf:8f:2f:b4:80:45:99:38:7c:d4:aa:e4:90:4e:9c:55:cf:e1:
         a3:da:3f:59:5c:b2:4f:cd:14:87:83:b3:be:2e:3c:4d:38:dd:
         e6:cf:f8:e5:ed:c2:fb:c2:3c:1b:2a:a9:cc:a5:80:40:2e:f7:
         9d:6a:f9:c3:7a:d2:12:53:8e:aa:a3:64:30:3c:ed:ea:03:05:
         85:fb:7f:f5:ec:c7:1b:d9:ae:c8:92:19:47:54:ac:4d:80:63:
         84:a5:50:19:39:01:3c:ae:2b:68:55:95:7e:07:ac:5b:a6:73:
         58:d8:9e:bc:bd:91:6a:63:2f:c1:9e:48:09:f9:a2:ff:f5:4a:
         b4:02:a0:3e:d4:8b:ec:8d:dd:8f:f8:29:64:e6:aa:66:d1:99:
         d0:f3:e0:b3:68:48:8d:10:d0:51:34:4e:da:0c:5a:21:82:47:
         b3:a8:44:f5:82:29:48:92:f1:a8:a8:38:9a:87:0f:f7:85:ba:
         f5:04:5f:38:f3:ef:ba:f8:44:b6:d2:f5:12:c4:ad:94:81:ae:
         09:43:43:06:68:a6:8a:27:2c:80:c3:06:0e:d4:c2:48:4d:0a:
         2c:be:dd:49:c2:d8:22:c1
-----BEGIN CERTIFICATE-----
MIIEGjCCAgKgAwIBAgIUdhAMHzJmtfI9KC2HeZuteJ8+o3kwDQYJKoZIhvcNAQEL
BQAwMjELMAkGA1UEBhMCRlIxDTALBgNVBAoMBEdvdXYxFDASBgNVBAMMC0NTQ0Et
RlJBTkNFMB4XDTIxMDYxMDIyMDAwMFoXDTIzMDYxMDIyMDAwMFowRDELMAkGA1UE
BhMCRlIxDDAKBgNVBAoMA0RHUzESMBAGA1UECwwJMTIwMDM2MDE3MRMwEQYDVQQD
DApEU0NfRlJfMDEyMFkwEwYHKoZIzj0CAQYIKoZIzj0DAQcDQgAE7jO1wt+KJfoK
i9O5dydU++nfENeQWdVACVEwAdquyYT6CEWfo1xG1tUcMhKII77XJbGK+H2nyAuC
sJ0gTfT5laOB4DCB3TAdBgNVHQ4EFgQUowemG/S5PIzFStnYia0U6RWU2Z8wHwYD
VR0jBBgwFoAUvoou1sn5IE46JwMIl03s/dl9xeYwDAYDVR0TAQH/BAIwADAOBgNV
HQ8BAf8EBAMCB4AwLQYDVR0fBCYwJDAioCCgHoYcaHR0cDovL2FudHMuZ291di5m
ci9jc2NhX2NybDAYBgNVHSAEETAPMA0GCyqBegGBSB8DCQEBMDQGCCsGAQUFBwEB
BCgwJjAkBggrBgEFBQcwAoYYaHR0cHM6Ly9hbnQuZ291di5mci9jc2NhMA0GCSqG
SIb3DQEBCwUAA4ICAQBlqQgxVgPA/EwOPMNUY4OJm4vGvxNYc3LU6R5/5q7hRwa0
4yTuQOwyRzTcMgJ211G79lsFwiprgzN0kixDYRrwa1NflFQS7Ygi64qGa1KZqDzi
B1SqDYiHXXCkkTTe4H/vkpZkH5U/+8jVUYI73q7MYIskxgHc1OZV1oKMWilU8rSd
WzDQHH6WRk2BUuTORIsGpT0U8eBQQUaNhY8V0GDkKLwrqIWEbKC6ylLa0pGNYM8Q
MHAvV1SurqdwohC4/6ToNzypyYNctOJUTcgCyDpKdfQ+xWRdFDqje3XUdIRByEHA
b7o9/F6H9NJoN0gyVF6YyGAYLD6zBfYhpnPXNxDCa7QltXogVi1gJFglsAVrQabT
MXsA4/1+IOrdqMv0Ale/jy+0gEWZOHzUquSQTpxVz+Gj2j9ZXLJPzRSHg7O+LjxN
ON3mz/jl7cL7wjwbKqnMpYBALvedavnDetISU46qo2QwPO3qAwWF+3/17Mcb2a7I
khlHVKxNgGOEpVAZOQE8ritoVZV+B6xbpnNY2J68vZFqYy/BnkgJ+aL/9Uq0AqA+
1Ivsjd2P+Clk5qpm0ZnQ8+CzaEiNENBRNE7aDFohgkezqET1gilIkvGoqDiahw/3
hbr1BF848++6+ES20vUSxK2Uga4JQ0MGaKaKJyyAwwYO1MJITQosvt1JwtgiwQ==
-----END CERTIFICATE-----
