Certificate:
    Data:
        Version: 3 (0x2)
        Serial Number: 1249889342795318789 (0x11587fbc2ddc8605)
    Signature Algorithm: ecdsa-with-SHA256
        Issuer: C = LI, L = Vaduz, O = Liechtensteinische Landesverwaltung, CN = DGC-NB-CSCA-PROD-20210608, emailAddress = webmaster@llv.li
        Validity
            Not Before: Jun  8 07:57:00 2021 GMT
            Not After : Jun  8 07:57:00 2023 GMT
        Subject: C = LI, L = Vaduz, O = Liechtensteinische Landesverwaltung, CN = DGC-NB-DSC-RECOVERY-PROD-20210608, emailAddress = webmaster@llv.li
        Subject Public Key Info:
            Public Key Algorithm: id-ecPublicKey
                Public-Key: (256 bit)
                pub:
                    04:98:20:86:50:33:bd:e7:2e:91:8f:8d:0a:5f:be:
                    1c:16:07:3d:f4:8f:41:9c:5a:0f:06:46:77:91:c0:
                    32:a3:6a:bf:b2:63:78:81:b6:16:92:b0:b6:58:c1:
                    2b:b0:df:33:67:7e:c2:f5:18:40:1a:51:d8:0c:df:
                    2d:3c:96:e2:03
                ASN1 OID: prime256v1
                NIST CURVE: P-256
        X509v3 extensions:
            X509v3 Basic Constraints: critical
                CA:FALSE
            X509v3 Subject Key Identifier: 
                FE:9F:21:BA:FF:03:44:43:44:C4:6E:58:FC:A3:0E:EE:D9:B3:41:E0
            X509v3 Authority Key Identifier: 
                keyid:F4:9E:78:7C:16:DF:0E:7B:04:53:0C:D6:9A:78:34:28:1C:4D:DF:85

            X509v3 Key Usage: critical
                Digital Signature
            X509v3 CRL Distribution Points: 

                Full Name:
                  URI:http://crl.llv.li/DGC-NB-CSCA-PROD-20210608

            Netscape Comment: 
                xca certificate
            X509v3 Extended Key Usage: 
                1.3.6.1.4.1.1847.2021.1.3
    Signature Algorithm: ecdsa-with-SHA256
         30:46:02:21:00:ea:04:df:5e:ab:a4:e3:58:55:aa:84:e9:14:
         f6:1b:dd:03:98:41:69:cb:d4:8c:bd:11:b7:78:b9:75:b5:7c:
         93:02:21:00:a8:69:04:cc:31:1d:fa:05:5d:2e:c5:c2:2b:97:
         3b:28:f8:cf:16:7a:d2:93:ef:3d:bc:58:19:ac:28:f4:e6:48
-----BEGIN CERTIFICATE-----
MIIC+TCCAp6gAwIBAgIIEVh/vC3chgUwCgYIKoZIzj0EAwIwgZAxCzAJBgNVBAYT
AkxJMQ4wDAYDVQQHEwVWYWR1ejEsMCoGA1UEChMjTGllY2h0ZW5zdGVpbmlzY2hl
IExhbmRlc3ZlcndhbHR1bmcxIjAgBgNVBAMTGURHQy1OQi1DU0NBLVBST0QtMjAy
MTA2MDgxHzAdBgkqhkiG9w0BCQEWEHdlYm1hc3RlckBsbHYubGkwHhcNMjEwNjA4
MDc1NzAwWhcNMjMwNjA4MDc1NzAwWjCBmDELMAkGA1UEBhMCTEkxDjAMBgNVBAcT
BVZhZHV6MSwwKgYDVQQKEyNMaWVjaHRlbnN0ZWluaXNjaGUgTGFuZGVzdmVyd2Fs
dHVuZzEqMCgGA1UEAxMhREdDLU5CLURTQy1SRUNPVkVSWS1QUk9ELTIwMjEwNjA4
MR8wHQYJKoZIhvcNAQkBFhB3ZWJtYXN0ZXJAbGx2LmxpMFkwEwYHKoZIzj0CAQYI
KoZIzj0DAQcDQgAEmCCGUDO95y6Rj40KX74cFgc99I9BnFoPBkZ3kcAyo2q/smN4
gbYWkrC2WMErsN8zZ37C9RhAGlHYDN8tPJbiA6OB1zCB1DAMBgNVHRMBAf8EAjAA
MB0GA1UdDgQWBBT+nyG6/wNEQ0TEblj8ow7u2bNB4DAfBgNVHSMEGDAWgBT0nnh8
Ft8OewRTDNaaeDQoHE3fhTAOBgNVHQ8BAf8EBAMCB4AwPAYDVR0fBDUwMzAxoC+g
LYYraHR0cDovL2NybC5sbHYubGkvREdDLU5CLUNTQ0EtUFJPRC0yMDIxMDYwODAe
BglghkgBhvhCAQ0EERYPeGNhIGNlcnRpZmljYXRlMBYGA1UdJQQPMA0GCysGAQQB
jjePZQEDMAoGCCqGSM49BAMCA0kAMEYCIQDqBN9eq6TjWFWqhOkU9hvdA5hBacvU
jL0Rt3i5dbV8kwIhAKhpBMwxHfoFXS7FwiuXOyj4zxZ60pPvPbxYGawo9OZI
-----END CERTIFICATE-----
