Certificate:
    Data:
        Version: 3 (0x2)
        Serial Number:
            5b:d0:61:54:5f:46:90:c4:96:e6:d1:1d:ea:87:e8:42
    Signature Algorithm: rsassaPss
         Hash Algorithm: sha512
         Mask Algorithm: mgf1 with sha512
         Salt Length: 0x40
         Trailer Field: 0xBC (default)
        Issuer: C = DE, O = D-Trust GmbH, CN = D-TRUST CA 2-2 2019, 2.5.4.97 = NTRDE-HRB74346
        Validity
            Not Before: Jun  7 10:16:16 2021 GMT
            Not After : Jun 11 10:16:16 2023 GMT
        Subject: C = DE, O = Robert Koch-Institut, OU = Elektronischer Impfnachweis, CN = Robert Koch-Institut, L = Berlin, postalCode = 13353, street = Nordufer 20, 2.5.4.97 = DT:DE-3023531445, serialNumber = CSM026413897, ST = Berlin
        Subject Public Key Info:
            Public Key Algorithm: id-ecPublicKey
                Public-Key: (256 bit)
                pub:
                    04:e5:e3:a6:46:c4:ec:3e:5c:94:57:32:a7:58:ad:
                    f1:62:56:34:e3:e0:ce:7d:f8:20:d3:b9:d6:c7:81:
                    53:6b:89:a8:b9:74:3d:9d:f0:b1:98:c1:e0:a6:e6:
                    6f:d9:1c:5b:55:2c:d8:cd:ec:23:72:62:9a:92:73:
                    44:60:37:42:75
                ASN1 OID: prime256v1
                NIST CURVE: P-256
        X509v3 extensions:
            X509v3 Authority Key Identifier: 
                keyid:71:10:32:AE:74:71:7B:54:8E:F1:D6:AB:62:54:AE:FC:3E:C0:BB:16

            qcStatements: 
                0.0......F..0......F..0......F...
            Authority Information Access: 
                OCSP - URI:http://d-trust-ca-2-2-2019.ocsp.d-trust.net
                CA Issuers - URI:http://www.d-trust.net/cgi-bin/D-TRUST_CA_2-2_2019.crt
                CA Issuers - URI:ldap://directory.d-trust.net/CN=D-TRUST%20CA%202-2%202019,O=D-Trust%20GmbH,C=DE?cACertificate?base?

            X509v3 Certificate Policies: 
                Policy: 0.4.0.194112.1.1
                Policy: 1.3.6.1.4.1.4788.2.150.5
                  CPS: http://www.d-trust.net/internet/files/D-TRUST_CSM_PKI_CPS.pdf

            X509v3 CRL Distribution Points: 

                Full Name:
                  URI:ldap://directory.d-trust.net/CN=D-TRUST%20CA%202-2%202019,O=D-Trust%20GmbH,C=DE?certificaterevocationlist
                  URI:http://crl.d-trust.net/crl/d-trust_ca_2-2_2019.crl
                  URI:http://cdn.d-trust-cloudcrl.net/crl/d-trust_ca_2-2_2019.crl

            X509v3 Subject Key Identifier: 
                E8:12:65:6B:6C:97:82:60:10:2A:32:B6:0A:C6:4C:9D:0D:DC:A8:E4
            X509v3 Key Usage: critical
                Digital Signature, Non Repudiation
    Signature Algorithm: rsassaPss
         Hash Algorithm: sha512
         Mask Algorithm: mgf1 with sha512
         Salt Length: 0x40
         Trailer Field: 0xBC (default)

         0a:10:9c:04:3b:c4:04:ec:5d:6c:9c:1b:d4:f1:a7:83:3b:7b:
         78:2d:74:ab:f4:22:75:d2:07:0e:43:f1:02:33:35:5e:1c:40:
         fc:98:d6:19:d8:a5:56:f2:ae:76:d5:c2:a9:52:5d:71:dd:ad:
         f9:a7:f7:e9:2f:aa:2d:da:19:0a:55:ea:d3:0f:5d:ab:43:ea:
         b6:7c:00:6f:b2:87:13:a0:75:a6:40:78:7b:f4:4a:4b:27:42:
         2b:9d:3f:9f:6a:f1:5c:52:b8:8d:56:f4:db:f0:cc:eb:28:89:
         56:8b:48:f4:c0:b9:95:7f:97:8a:cd:ed:42:7a:ed:07:71:19:
         02:5f:2b:dd:52:83:bb:ad:95:ff:c4:7c:3a:ef:d9:b2:e4:63:
         5b:31:a9:07:84:b9:af:2f:6c:d1:5c:e2:79:f2:d2:59:4e:74:
         cf:01:89:ec:9f:4a:d6:c2:9b:29:4c:0e:68:b5:cf:34:6f:b6:
         fa:b5:79:4c:de:d2:34:59:96:7c:24:62:c9:81:c5:4a:8a:94:
         c4:e9:90:9c:a3:6c:18:9d:2e:af:00:a5:1f:d2:9b:70:93:6b:
         ad:6b:da:50:8e:e4:c8:68:75:b1:6c:2a:53:4e:71:e5:b9:9b:
         e4:88:e3:90:6a:43:2f:03:0a:db:08:cc:80:88:e1:a6:00:27:
         da:8b:59:c3:d6:a5:89:1f:a0:cc:81:ca:a9:cd:90:e5:ff:31:
         37:dd:d1:52:77:41:28:45:f5:0a:1e:ae:db:75:af:49:70:3c:
         98:cf:e9:c6:52:09:8b:c7:70:11:e1:9b:69:db:cc:e1:83:78:
         8a:c0:d1:12:49:71:ff:5c:70:86:d8:13:46:10:34:42:b6:c1:
         fb:bc:11:dd:19:e6:2d:28:8f:fa:5d:b4:62:f6:8f:a2:34:06:
         56:dd:c7:f7:02:85:59:46:b6:c2:e0:9d:d0:5e:04:b5:5f:64:
         15:c0:d2:9a:d0:57:31:c6:d4:74:49:96:92:d7:7b:6c:6c:42:
         01:12:c1:bc:a3:55:27:8b:61:b7:53:7f:27:09:61:b2:a1:13:
         58:a2:17:8a:ee:b5:76:06:6f:0e:0b:10:60:32:c0:24:08:a1:
         a2:78:ba:75:31:54:98:50:2c:1a:87:60:5c:6f:48:36:5d:bf:
         81:a4:7c:86:68:ac:7a:2b:d1:0e:1f:a3:4d:b2:49:b9:69:34:
         2f:97:c7:1c:b9:ab:69:4c:76:18:62:e9:f3:b2:44:ed:c5:89:
         3a:72:2c:9a:0e:da:b6:ae:ba:20:7c:28:4e:98:c1:ba:52:b5:
         3a:e0:5b:d9:78:c7:19:f2:11:b6:29:60:63:c0:54:dc:39:f6:
         e6:de:ff:d1:9a:61:be:d1
-----BEGIN CERTIFICATE-----
MIIHUTCCBQmgAwIBAgIQW9BhVF9GkMSW5tEd6ofoQjA9BgkqhkiG9w0BAQowMKAN
MAsGCWCGSAFlAwQCA6EaMBgGCSqGSIb3DQEBCDALBglghkgBZQMEAgOiAwIBQDBb
MQswCQYDVQQGEwJERTEVMBMGA1UEChMMRC1UcnVzdCBHbWJIMRwwGgYDVQQDExNE
LVRSVVNUIENBIDItMiAyMDE5MRcwFQYDVQRhEw5OVFJERS1IUkI3NDM0NjAeFw0y
MTA2MDcxMDE2MTZaFw0yMzA2MTExMDE2MTZaMIHrMQswCQYDVQQGEwJERTEdMBsG
A1UEChMUUm9iZXJ0IEtvY2gtSW5zdGl0dXQxJDAiBgNVBAsTG0VsZWt0cm9uaXNj
aGVyIEltcGZuYWNod2VpczEdMBsGA1UEAxMUUm9iZXJ0IEtvY2gtSW5zdGl0dXQx
DzANBgNVBAcTBkJlcmxpbjEOMAwGA1UEEQwFMTMzNTMxFDASBgNVBAkTC05vcmR1
ZmVyIDIwMRkwFwYDVQRhExBEVDpERS0zMDIzNTMxNDQ1MRUwEwYDVQQFEwxDU00w
MjY0MTM4OTcxDzANBgNVBAgTBkJlcmxpbjBZMBMGByqGSM49AgEGCCqGSM49AwEH
A0IABOXjpkbE7D5clFcyp1it8WJWNOPgzn34INO51seBU2uJqLl0PZ3wsZjB4Kbm
b9kcW1Us2M3sI3JimpJzRGA3QnWjggLpMIIC5TAfBgNVHSMEGDAWgBRxEDKudHF7
VI7x1qtiVK78PsC7FjAtBggrBgEFBQcBAwQhMB8wCAYGBACORgEBMBMGBgQAjkYB
BjAJBgcEAI5GAQYCMIH+BggrBgEFBQcBAQSB8TCB7jA3BggrBgEFBQcwAYYraHR0
cDovL2QtdHJ1c3QtY2EtMi0yLTIwMTkub2NzcC5kLXRydXN0Lm5ldDBCBggrBgEF
BQcwAoY2aHR0cDovL3d3dy5kLXRydXN0Lm5ldC9jZ2ktYmluL0QtVFJVU1RfQ0Ff
Mi0yXzIwMTkuY3J0MG8GCCsGAQUFBzAChmNsZGFwOi8vZGlyZWN0b3J5LmQtdHJ1
c3QubmV0L0NOPUQtVFJVU1QlMjBDQSUyMDItMiUyMDIwMTksTz1ELVRydXN0JTIw
R21iSCxDPURFP2NBQ2VydGlmaWNhdGU/YmFzZT8wcAYDVR0gBGkwZzAJBgcEAIvs
QAEBMFoGCysGAQQBpTQCgRYFMEswSQYIKwYBBQUHAgEWPWh0dHA6Ly93d3cuZC10
cnVzdC5uZXQvaW50ZXJuZXQvZmlsZXMvRC1UUlVTVF9DU01fUEtJX0NQUy5wZGYw
gfAGA1UdHwSB6DCB5TCB4qCB36CB3IZpbGRhcDovL2RpcmVjdG9yeS5kLXRydXN0
Lm5ldC9DTj1ELVRSVVNUJTIwQ0ElMjAyLTIlMjAyMDE5LE89RC1UcnVzdCUyMEdt
YkgsQz1ERT9jZXJ0aWZpY2F0ZXJldm9jYXRpb25saXN0hjJodHRwOi8vY3JsLmQt
dHJ1c3QubmV0L2NybC9kLXRydXN0X2NhXzItMl8yMDE5LmNybIY7aHR0cDovL2Nk
bi5kLXRydXN0LWNsb3VkY3JsLm5ldC9jcmwvZC10cnVzdF9jYV8yLTJfMjAxOS5j
cmwwHQYDVR0OBBYEFOgSZWtsl4JgECoytgrGTJ0N3KjkMA4GA1UdDwEB/wQEAwIG
wDA9BgkqhkiG9w0BAQowMKANMAsGCWCGSAFlAwQCA6EaMBgGCSqGSIb3DQEBCDAL
BglghkgBZQMEAgOiAwIBQAOCAgEAChCcBDvEBOxdbJwb1PGngzt7eC10q/QiddIH
DkPxAjM1XhxA/JjWGdilVvKudtXCqVJdcd2t+af36S+qLdoZClXq0w9dq0PqtnwA
b7KHE6B1pkB4e/RKSydCK50/n2rxXFK4jVb02/DM6yiJVotI9MC5lX+Xis3tQnrt
B3EZAl8r3VKDu62V/8R8Ou/ZsuRjWzGpB4S5ry9s0VziefLSWU50zwGJ7J9K1sKb
KUwOaLXPNG+2+rV5TN7SNFmWfCRiyYHFSoqUxOmQnKNsGJ0urwClH9KbcJNrrWva
UI7kyGh1sWwqU05x5bmb5IjjkGpDLwMK2wjMgIjhpgAn2otZw9aliR+gzIHKqc2Q
5f8xN93RUndBKEX1Ch6u23WvSXA8mM/pxlIJi8dwEeGbadvM4YN4isDREklx/1xw
htgTRhA0QrbB+7wR3RnmLSiP+l20YvaPojQGVt3H9wKFWUa2wuCd0F4EtV9kFcDS
mtBXMcbUdEmWktd7bGxCARLBvKNVJ4tht1N/JwlhsqETWKIXiu61dgZvDgsQYDLA
JAihoni6dTFUmFAsGodgXG9INl2/gaR8hmiseivRDh+jTbJJuWk0L5fHHLmraUx2
GGLp87JE7cWJOnIsmg7atq66IHwoTpjBulK1OuBb2XjHGfIRtilgY8BU3Dn25t7/
0ZphvtE=
-----END CERTIFICATE-----
