Certificate:
    Data:
        Version: 3 (0x2)
        Serial Number:
            48:2d:19:78:25:e6:31:70:a7
    Signature Algorithm: ecdsa-with-SHA256
        Issuer: CN = EADTrust ECC 256 SubCA For Qualified Certificates 2019, O = "European Agency of Digital Trust, S.L.", C = ES, 2.5.4.97 = VATES-B85626240, OU = Legal Person
        Validity
            Not Before: May 21 08:55:00 2021 GMT
            Not After : May 21 08:55:00 2023 GMT
        Subject: CN = Gobierno de La Rioja, serialNumber = S2633001I, OU = SELLO ELECTRONICO, OU = "DIRECCI\C3\93N GENERAL DE SALUD PUBLICA, CONSUMO Y CUIDADOS", 2.5.4.97 = VATES-S2633001I, O = "DIRECCION GENERAL DE SALUD PUBLICA, CONSUMO Y CUIDADOS", C = ES
        Subject Public Key Info:
            Public Key Algorithm: id-ecPublicKey
                Public-Key: (256 bit)
                pub:
                    04:a8:5d:b6:ac:6e:5b:0d:7a:56:9f:fb:4a:cb:7e:
                    7c:87:62:b0:63:26:92:2b:30:99:57:41:c9:a6:d5:
                    10:ab:bb:16:c5:f7:83:13:ce:87:4a:87:9b:06:ba:
                    4e:be:98:e1:65:7d:bf:66:44:c5:fd:84:65:92:1d:
                    33:b6:79:1c:97
                ASN1 OID: prime256v1
                NIST CURVE: P-256
        X509v3 extensions:
            X509v3 Basic Constraints: critical
                CA:FALSE
            X509v3 Authority Key Identifier: 
                keyid:D3:4C:6C:3A:BD:36:FE:70:87:23:87:3A:EE:3D:90:CF:CB:9B:F7:21

            Authority Information Access: 
                CA Issuers - URI:http://ca.eadtrust.eu/eadtrust-subca-ecc256eadlp2019.crt
                OCSP - URI:http://ocsp.eadtrust.eu

            X509v3 Issuer Alternative Name: 
                email:ca@eadtrust.eu, URI:http://www.eadtrust.eu, URI:http://ca.eadtrust.eu, URI:http://policy.eadtrust.eu
            X509v3 Subject Alternative Name: 
                DirName:/2.16.724.1.3.5.6.2.1=SELLO ELECTRONICO DE NIVEL MEDIO/2.16.724.1.3.5.6.2.2=DIRECCION GENERAL DE SALUD PUBLICA, CONSUMO Y CUIDADOS/2.16.724.1.3.5.6.2.3=S2633001I
            X509v3 Certificate Policies: 
                Policy: 2.16.724.1.3.5.6.2
                Policy: 0.4.0.194112.1.1
                  User Notice:
                    Explicit Text: European Telecommunications Standards Institute. eIDAS European Regulation Compliant
                Policy: 1.3.6.1.4.1.501.2.1.1.0.41233
                  CPS: http://policy.eadtrust.eu
                  User Notice:
                    Explicit Text: Certificado cualificado de sello electrónico de Administración, órgano o entidad de derecho público, nivel Medio/Sustancial. Consulte las condiciones de uso en http://policy.eadtrust.eu

            X509v3 Extended Key Usage: 
                TLS Web Client Authentication, E-mail Protection
            qcStatements: 
                0..0...+.......0.......I..0......F..0......F.....0......F..0......F...0l.....F..0b00.*https://eadtrust.eu/en/documents-in-force/..en0..(https://eadtrust.eu/documentos-vigentes/..es
            X509v3 CRL Distribution Points: 

                Full Name:
                  URI:http://crl.eadtrust.eu/eadtrust-subca-ecc256eadlp2019.crl

            X509v3 Subject Key Identifier: 
                EE:8B:A4:67:5E:E1:64:DA:A0:5E:7F:BD:CD:BD:67:15:59:8D:01:D6
            X509v3 Key Usage: critical
                Digital Signature, Non Repudiation, Key Encipherment
    Signature Algorithm: ecdsa-with-SHA256
         30:44:02:20:50:15:ae:62:ae:72:65:0b:7a:0a:d6:80:12:aa:
         00:77:a2:88:9e:95:99:11:97:05:5a:39:2e:bb:ed:b9:7c:27:
         02:20:74:f9:bb:8a:39:79:ae:e2:0a:44:e6:fb:b6:0e:ed:2c:
         79:0e:43:75:a0:ac:2c:e4:bd:f5:94:f3:e8:46:b4:cb
-----BEGIN CERTIFICATE-----
MIIHVjCCBv2gAwIBAgIJSC0ZeCXmMXCnMAoGCCqGSM49BAMCMIGwMT8wPQYDVQQD
DDZFQURUcnVzdCBFQ0MgMjU2IFN1YkNBIEZvciBRdWFsaWZpZWQgQ2VydGlmaWNh
dGVzIDIwMTkxLzAtBgNVBAoMJkV1cm9wZWFuIEFnZW5jeSBvZiBEaWdpdGFsIFRy
dXN0LCBTLkwuMQswCQYDVQQGEwJFUzEYMBYGA1UEYQwPVkFURVMtQjg1NjI2MjQw
MRUwEwYDVQQLDAxMZWdhbCBQZXJzb24wHhcNMjEwNTIxMDg1NTAwWhcNMjMwNTIx
MDg1NTAwWjCB+TEdMBsGA1UEAwwUR29iaWVybm8gZGUgTGEgUmlvamExEjAQBgNV
BAUTCVMyNjMzMDAxSTEaMBgGA1UECwwRU0VMTE8gRUxFQ1RST05JQ08xQDA+BgNV
BAsMN0RJUkVDQ0nDk04gR0VORVJBTCBERSBTQUxVRCBQVUJMSUNBLCBDT05TVU1P
IFkgQ1VJREFET1MxGDAWBgNVBGEMD1ZBVEVTLVMyNjMzMDAxSTE/MD0GA1UECgw2
RElSRUNDSU9OIEdFTkVSQUwgREUgU0FMVUQgUFVCTElDQSwgQ09OU1VNTyBZIENV
SURBRE9TMQswCQYDVQQGEwJFUzBZMBMGByqGSM49AgEGCCqGSM49AwEHA0IABKhd
tqxuWw16Vp/7Sst+fIdisGMmkiswmVdByabVEKu7FsX3gxPOh0qHmwa6Tr6Y4WV9
v2ZExf2EZZIdM7Z5HJejggSzMIIErzAMBgNVHRMBAf8EAjAAMB8GA1UdIwQYMBaA
FNNMbDq9Nv5whyOHOu49kM/Lm/chMHkGCCsGAQUFBwEBBG0wazBEBggrBgEFBQcw
AoY4aHR0cDovL2NhLmVhZHRydXN0LmV1L2VhZHRydXN0LXN1YmNhLWVjYzI1NmVh
ZGxwMjAxOS5jcnQwIwYIKwYBBQUHMAGGF2h0dHA6Ly9vY3NwLmVhZHRydXN0LmV1
MGMGA1UdEgRcMFqBDmNhQGVhZHRydXN0LmV1hhZodHRwOi8vd3d3LmVhZHRydXN0
LmV1hhVodHRwOi8vY2EuZWFkdHJ1c3QuZXWGGWh0dHA6Ly9wb2xpY3kuZWFkdHJ1
c3QuZXUwgaMGA1UdEQSBmzCBmKSBlTCBkjEvMC0GCWCFVAEDBQYCAQwgU0VMTE8g
RUxFQ1RST05JQ08gREUgTklWRUwgTUVESU8xRTBDBglghVQBAwUGAgIMNkRJUkVD
Q0lPTiBHRU5FUkFMIERFIFNBTFVEIFBVQkxJQ0EsIENPTlNVTU8gWSBDVUlEQURP
UzEYMBYGCWCFVAEDBQYCAwwJUzI2MzMwMDFJMIIBmAYDVR0gBIIBjzCCAYswCgYI
YIVUAQMFBgIwbwYHBACL7EABATBkMGIGCCsGAQUFBwICMFYMVEV1cm9wZWFuIFRl
bGVjb21tdW5pY2F0aW9ucyBTdGFuZGFyZHMgSW5zdGl0dXRlLiBlSURBUyBFdXJv
cGVhbiBSZWd1bGF0aW9uIENvbXBsaWFudDCCAQoGDisGAQQBg3UCAQEAgsIRMIH3
MCUGCCsGAQUFBwIBFhlodHRwOi8vcG9saWN5LmVhZHRydXN0LmV1MIHNBggrBgEF
BQcCAjCBwAyBvUNlcnRpZmljYWRvIGN1YWxpZmljYWRvIGRlIHNlbGxvIGVsZWN0
csOzbmljbyBkZSBBZG1pbmlzdHJhY2nDs24sIMOzcmdhbm8gbyBlbnRpZGFkIGRl
IGRlcmVjaG8gcMO6YmxpY28sIG5pdmVsIE1lZGlvL1N1c3RhbmNpYWwuIENvbnN1
bHRlIGxhcyBjb25kaWNpb25lcyBkZSB1c28gZW4gaHR0cDovL3BvbGljeS5lYWR0
cnVzdC5ldTAdBgNVHSUEFjAUBggrBgEFBQcDAgYIKwYBBQUHAwQwgcEGCCsGAQUF
BwEDBIG0MIGxMBUGCCsGAQUFBwsCMAkGBwQAi+xJAQIwCAYGBACORgEBMAsGBgQA
jkYBAwIBDzATBgYEAI5GAQYwCQYHBACORgEGAjBsBgYEAI5GAQUwYjAwFipodHRw
czovL2VhZHRydXN0LmV1L2VuL2RvY3VtZW50cy1pbi1mb3JjZS8TAmVuMC4WKGh0
dHBzOi8vZWFkdHJ1c3QuZXUvZG9jdW1lbnRvcy12aWdlbnRlcy8TAmVzMEoGA1Ud
HwRDMEEwP6A9oDuGOWh0dHA6Ly9jcmwuZWFkdHJ1c3QuZXUvZWFkdHJ1c3Qtc3Vi
Y2EtZWNjMjU2ZWFkbHAyMDE5LmNybDAdBgNVHQ4EFgQU7oukZ17hZNqgXn+9zb1n
FVmNAdYwDgYDVR0PAQH/BAQDAgXgMAoGCCqGSM49BAMCA0cAMEQCIFAVrmKucmUL
egrWgBKqAHeiiJ6VmRGXBVo5LrvtuXwnAiB0+buKOXmu4gpE5vu2Du0seQ5DdaCs
LOS99ZTz6Ea0yw==
-----END CERTIFICATE-----
