Certificate:
    Data:
        Version: 3 (0x2)
        Serial Number:
            4a:6c:d7:22:eb:69:87:ad:af:a1:93:0a:7f:4f:34:70
    Signature Algorithm: rsassaPss
         Hash Algorithm: sha512
         Mask Algorithm: mgf1 with sha512
         Salt Length: 0x40
         Trailer Field: 0xBC (default)
        Issuer: C = DE, O = D-Trust GmbH, CN = D-TRUST CA 2-2 2019, 2.5.4.97 = NTRDE-HRB74346
        Validity
            Not Before: Jun  7 09:54:34 2021 GMT
            Not After : Jun 11 09:54:34 2023 GMT
        Subject: C = DE, O = Robert Koch-Institut, OU = Elektronischer Impfnachweis, CN = Robert Koch-Institut, L = Berlin, postalCode = 13353, street = Nordufer 20, 2.5.4.97 = DT:DE-3023531445, serialNumber = CSM026413417, ST = Berlin
        Subject Public Key Info:
            Public Key Algorithm: id-ecPublicKey
                Public-Key: (256 bit)
                pub:
                    04:a2:96:8a:91:45:04:e2:70:a0:36:94:41:13:db:
                    a0:99:28:6e:25:df:74:ed:a3:a8:71:5b:c5:bf:13:
                    cb:c6:22:79:aa:a4:36:a6:af:c6:56:ca:b9:55:ff:
                    f4:57:f6:f5:57:7a:c0:a0:a3:bc:6c:cb:f1:3f:88:
                    e4:4d:64:f1:a9
                ASN1 OID: prime256v1
                NIST CURVE: P-256
        X509v3 extensions:
            X509v3 Authority Key Identifier: 
                keyid:71:10:32:AE:74:71:7B:54:8E:F1:D6:AB:62:54:AE:FC:3E:C0:BB:16

            qcStatements: 
                0.0......F..0......F..0......F...
            Authority Information Access: 
                OCSP - URI:http://d-trust-ca-2-2-2019.ocsp.d-trust.net
                CA Issuers - URI:http://www.d-trust.net/cgi-bin/D-TRUST_CA_2-2_2019.crt
                CA Issuers - URI:ldap://directory.d-trust.net/CN=D-TRUST%20CA%202-2%202019,O=D-Trust%20GmbH,C=DE?cACertificate?base?

            X509v3 Certificate Policies: 
                Policy: 0.4.0.194112.1.1
                Policy: 1.3.6.1.4.1.4788.2.150.5
                  CPS: http://www.d-trust.net/internet/files/D-TRUST_CSM_PKI_CPS.pdf

            X509v3 CRL Distribution Points: 

                Full Name:
                  URI:ldap://directory.d-trust.net/CN=D-TRUST%20CA%202-2%202019,O=D-Trust%20GmbH,C=DE?certificaterevocationlist
                  URI:http://crl.d-trust.net/crl/d-trust_ca_2-2_2019.crl
                  URI:http://cdn.d-trust-cloudcrl.net/crl/d-trust_ca_2-2_2019.crl

            X509v3 Subject Key Identifier: 
                91:7A:F0:06:6F:59:06:EA:F4:BA:64:33:44:46:D8:C9:1C:2A:52:DC
            X509v3 Key Usage: critical
                Digital Signature, Non Repudiation
    Signature Algorithm: rsassaPss
         Hash Algorithm: sha512
         Mask Algorithm: mgf1 with sha512
         Salt Length: 0x40
         Trailer Field: 0xBC (default)

         b5:3b:b0:87:5c:02:83:c8:25:b7:0c:cc:ed:17:aa:8e:75:a3:
         a5:a0:d5:56:0e:6d:fd:42:c5:59:f6:7a:64:bd:8d:0f:9c:06:
         01:b4:90:2c:64:0e:a1:81:7c:ad:86:d8:de:85:ea:fd:29:16:
         0c:90:dc:9a:c0:4e:d8:c1:4e:0e:e8:e4:a2:63:24:6f:de:f5:
         ca:f2:d7:63:31:e5:35:46:46:b5:61:0e:79:ef:c3:65:56:54:
         93:0b:3a:2f:2f:8d:2e:d0:90:3d:19:bd:87:66:10:c8:c1:93:
         84:36:bb:20:38:a5:ac:18:37:9d:78:28:16:24:2c:62:a5:d3:
         66:be:f4:43:53:7b:1f:33:32:95:a4:4b:16:97:95:55:66:7c:
         2d:d8:f8:41:1d:e5:df:e5:3d:59:46:9a:32:4e:19:60:4e:72:
         70:20:8b:a7:1c:71:e6:a4:1a:37:cf:88:3b:ae:47:b5:c6:28:
         60:1d:56:a5:1e:89:3d:a9:ed:9d:d8:2f:8a:f7:59:5d:22:ff:
         f2:c6:42:c7:a6:4e:3b:b2:e6:2f:48:7c:62:f3:4b:15:67:3e:
         d2:ba:44:26:1c:6e:26:b3:d6:ad:79:5c:f5:df:3d:f0:a0:4c:
         c8:49:0c:7a:3d:ba:b4:e5:03:cd:79:15:ba:2f:94:6f:fd:27:
         c1:30:fc:c6:9e:87:61:2d:f1:4d:b2:06:8d:c6:46:51:f6:b2:
         69:d0:e9:2d:90:41:b6:82:43:17:0d:b3:43:d2:87:cd:b5:1c:
         91:de:a5:3e:15:da:06:47:d1:00:70:6f:51:e6:86:17:2d:65:
         ec:c5:37:b0:44:2b:63:7e:30:25:b2:02:2d:ca:82:bb:f0:30:
         56:89:87:d9:eb:0c:25:45:bb:0e:b9:2c:32:69:c8:a8:40:59:
         7d:f1:f0:16:3e:5f:1f:41:13:aa:b2:1b:9a:41:7f:06:3e:ae:
         1a:4c:92:d5:b8:83:4e:b4:fe:e9:b4:a2:a9:3c:3e:3a:bb:69:
         6c:71:1d:fe:94:9e:87:a8:89:9f:62:34:1b:47:9e:79:bd:56:
         83:61:54:94:97:f6:0f:b7:ff:2f:7e:1b:06:54:dd:b4:04:3f:
         35:68:06:93:0a:bb:5f:c6:32:eb:b2:00:c3:08:6d:24:6b:a0:
         21:24:7b:8c:b7:4d:0a:0d:3a:d2:7d:b9:35:9f:3d:08:25:c4:
         16:ee:32:e7:9d:87:c3:d0:dd:28:fb:2f:ac:7a:81:b4:64:41:
         31:c4:f8:2c:2d:50:32:ba:7d:b7:04:06:2c:17:ef:d0:27:d8:
         27:33:e7:6d:2e:29:2f:9b:00:50:8f:ba:11:ce:73:5e:da:69:
         9c:f5:a9:58:5f:54:fd:05
-----BEGIN CERTIFICATE-----
MIIHUTCCBQmgAwIBAgIQSmzXIutph62voZMKf080cDA9BgkqhkiG9w0BAQowMKAN
MAsGCWCGSAFlAwQCA6EaMBgGCSqGSIb3DQEBCDALBglghkgBZQMEAgOiAwIBQDBb
MQswCQYDVQQGEwJERTEVMBMGA1UEChMMRC1UcnVzdCBHbWJIMRwwGgYDVQQDExNE
LVRSVVNUIENBIDItMiAyMDE5MRcwFQYDVQRhEw5OVFJERS1IUkI3NDM0NjAeFw0y
MTA2MDcwOTU0MzRaFw0yMzA2MTEwOTU0MzRaMIHrMQswCQYDVQQGEwJERTEdMBsG
A1UEChMUUm9iZXJ0IEtvY2gtSW5zdGl0dXQxJDAiBgNVBAsTG0VsZWt0cm9uaXNj
aGVyIEltcGZuYWNod2VpczEdMBsGA1UEAxMUUm9iZXJ0IEtvY2gtSW5zdGl0dXQx
DzANBgNVBAcTBkJlcmxpbjEOMAwGA1UEEQwFMTMzNTMxFDASBgNVBAkTC05vcmR1
ZmVyIDIwMRkwFwYDVQRhExBEVDpERS0zMDIzNTMxNDQ1MRUwEwYDVQQFEwxDU00w
MjY0MTM0MTcxDzANBgNVBAgTBkJlcmxpbjBZMBMGByqGSM49AgEGCCqGSM49AwEH
A0IABKKWipFFBOJwoDaUQRPboJkobiXfdO2jqHFbxb8Ty8YieaqkNqavxlbKuVX/
9Ff29Vd6wKCjvGzL8T+I5E1k8amjggLpMIIC5TAfBgNVHSMEGDAWgBRxEDKudHF7
VI7x1qtiVK78PsC7FjAtBggrBgEFBQcBAwQhMB8wCAYGBACORgEBMBMGBgQAjkYB
BjAJBgcEAI5GAQYCMIH+BggrBgEFBQcBAQSB8TCB7jA3BggrBgEFBQcwAYYraHR0
cDovL2QtdHJ1c3QtY2EtMi0yLTIwMTkub2NzcC5kLXRydXN0Lm5ldDBCBggrBgEF
BQcwAoY2aHR0cDovL3d3dy5kLXRydXN0Lm5ldC9jZ2ktYmluL0QtVFJVU1RfQ0Ff
Mi0yXzIwMTkuY3J0MG8GCCsGAQUFBzAChmNsZGFwOi8vZGlyZWN0b3J5LmQtdHJ1
c3QubmV0L0NOPUQtVFJVU1QlMjBDQSUyMDItMiUyMDIwMTksTz1ELVRydXN0JTIw
R21iSCxDPURFP2NBQ2VydGlmaWNhdGU/YmFzZT8wcAYDVR0gBGkwZzAJBgcEAIvs
QAEBMFoGCysGAQQBpTQCgRYFMEswSQYIKwYBBQUHAgEWPWh0dHA6Ly93d3cuZC10
cnVzdC5uZXQvaW50ZXJuZXQvZmlsZXMvRC1UUlVTVF9DU01fUEtJX0NQUy5wZGYw
gfAGA1UdHwSB6DCB5TCB4qCB36CB3IZpbGRhcDovL2RpcmVjdG9yeS5kLXRydXN0
Lm5ldC9DTj1ELVRSVVNUJTIwQ0ElMjAyLTIlMjAyMDE5LE89RC1UcnVzdCUyMEdt
YkgsQz1ERT9jZXJ0aWZpY2F0ZXJldm9jYXRpb25saXN0hjJodHRwOi8vY3JsLmQt
dHJ1c3QubmV0L2NybC9kLXRydXN0X2NhXzItMl8yMDE5LmNybIY7aHR0cDovL2Nk
bi5kLXRydXN0LWNsb3VkY3JsLm5ldC9jcmwvZC10cnVzdF9jYV8yLTJfMjAxOS5j
cmwwHQYDVR0OBBYEFJF68AZvWQbq9LpkM0RG2MkcKlLcMA4GA1UdDwEB/wQEAwIG
wDA9BgkqhkiG9w0BAQowMKANMAsGCWCGSAFlAwQCA6EaMBgGCSqGSIb3DQEBCDAL
BglghkgBZQMEAgOiAwIBQAOCAgEAtTuwh1wCg8gltwzM7ReqjnWjpaDVVg5t/ULF
WfZ6ZL2ND5wGAbSQLGQOoYF8rYbY3oXq/SkWDJDcmsBO2MFODujkomMkb971yvLX
YzHlNUZGtWEOee/DZVZUkws6Ly+NLtCQPRm9h2YQyMGThDa7IDilrBg3nXgoFiQs
YqXTZr70Q1N7HzMylaRLFpeVVWZ8Ldj4QR3l3+U9WUaaMk4ZYE5ycCCLpxxx5qQa
N8+IO65HtcYoYB1WpR6JPantndgvivdZXSL/8sZCx6ZOO7LmL0h8YvNLFWc+0rpE
JhxuJrPWrXlc9d898KBMyEkMej26tOUDzXkVui+Ub/0nwTD8xp6HYS3xTbIGjcZG
UfayadDpLZBBtoJDFw2zQ9KHzbUckd6lPhXaBkfRAHBvUeaGFy1l7MU3sEQrY34w
JbICLcqCu/AwVomH2esMJUW7DrksMmnIqEBZffHwFj5fH0ETqrIbmkF/Bj6uGkyS
1biDTrT+6bSiqTw+OrtpbHEd/pSeh6iJn2I0G0eeeb1Wg2FUlJf2D7f/L34bBlTd
tAQ/NWgGkwq7X8Yy67IAwwhtJGugISR7jLdNCg060n25NZ89CCXEFu4y552Hw9Dd
KPsvrHqBtGRBMcT4LC1QMrp9twQGLBfv0CfYJzPnbS4pL5sAUI+6Ec5zXtppnPWp
WF9U/QU=
-----END CERTIFICATE-----
