Certificate:
    Data:
        Version: 3 (0x2)
        Serial Number:
            76:94:bd:36:6b:2a:4e:3f:58:39:e7:0c:3d:9a:23:2c
    Signature Algorithm: rsassaPss
         Hash Algorithm: sha512
         Mask Algorithm: mgf1 with sha512
         Salt Length: 0x40
         Trailer Field: 0xBC (default)
        Issuer: C = DE, O = D-Trust GmbH, CN = D-TRUST CA 2-2 2019, 2.5.4.97 = NTRDE-HRB74346
        Validity
            Not Before: Jun  7 10:29:17 2021 GMT
            Not After : Jun 11 10:29:17 2023 GMT
        Subject: C = DE, O = Robert Koch-Institut, OU = Elektronischer Impfnachweis, CN = Robert Koch-Institut, L = Berlin, postalCode = 13353, street = Nordufer 20, 2.5.4.97 = DT:DE-3023531445, serialNumber = CSM026414197, ST = Berlin
        Subject Public Key Info:
            Public Key Algorithm: id-ecPublicKey
                Public-Key: (256 bit)
                pub:
                    04:e3:4a:c5:af:c6:da:64:40:cd:bc:e3:44:13:e4:
                    71:7f:97:8f:9d:92:cb:9a:a4:7e:e5:4c:31:fd:2e:
                    48:db:29:4c:8a:36:72:67:87:36:90:3d:ce:c9:31:
                    e5:7d:33:5a:d6:64:b4:f7:35:e7:5c:d2:4a:a9:9c:
                    aa:8b:71:86:43
                ASN1 OID: prime256v1
                NIST CURVE: P-256
        X509v3 extensions:
            X509v3 Authority Key Identifier: 
                keyid:71:10:32:AE:74:71:7B:54:8E:F1:D6:AB:62:54:AE:FC:3E:C0:BB:16

            qcStatements: 
                0.0......F..0......F..0......F...
            Authority Information Access: 
                OCSP - URI:http://d-trust-ca-2-2-2019.ocsp.d-trust.net
                CA Issuers - URI:http://www.d-trust.net/cgi-bin/D-TRUST_CA_2-2_2019.crt
                CA Issuers - URI:ldap://directory.d-trust.net/CN=D-TRUST%20CA%202-2%202019,O=D-Trust%20GmbH,C=DE?cACertificate?base?

            X509v3 Certificate Policies: 
                Policy: 0.4.0.194112.1.1
                Policy: 1.3.6.1.4.1.4788.2.150.5
                  CPS: http://www.d-trust.net/internet/files/D-TRUST_CSM_PKI_CPS.pdf

            X509v3 CRL Distribution Points: 

                Full Name:
                  URI:ldap://directory.d-trust.net/CN=D-TRUST%20CA%202-2%202019,O=D-Trust%20GmbH,C=DE?certificaterevocationlist
                  URI:http://crl.d-trust.net/crl/d-trust_ca_2-2_2019.crl
                  URI:http://cdn.d-trust-cloudcrl.net/crl/d-trust_ca_2-2_2019.crl

            X509v3 Subject Key Identifier: 
                AB:02:82:08:F2:07:E0:23:42:8D:C4:C1:C7:86:5B:B2:39:34:42:23
            X509v3 Key Usage: critical
                Digital Signature, Non Repudiation
    Signature Algorithm: rsassaPss
         Hash Algorithm: sha512
         Mask Algorithm: mgf1 with sha512
         Salt Length: 0x40
         Trailer Field: 0xBC (default)

         93:a8:05:62:4e:9d:a0:2e:d8:16:2b:59:ec:c6:9c:f4:7d:b6:
         72:d4:0d:73:68:5e:5d:5d:77:c9:f2:86:15:08:07:64:2e:bd:
         ac:00:c3:ef:24:5e:62:6a:57:ef:c0:df:a4:cc:75:30:f1:e0:
         31:51:c0:06:4a:96:c4:a6:b7:0c:40:a1:bc:4e:e5:3f:1f:d8:
         3a:8b:32:29:30:32:93:13:c4:60:fa:5e:40:14:e4:1b:75:6c:
         f0:e6:71:13:88:f6:e6:2c:c9:a2:18:87:2c:f1:30:73:28:68:
         2e:79:19:5a:92:cc:38:6c:e9:d8:75:7f:07:e7:bc:fe:57:78:
         c0:48:c4:fd:f8:65:f2:69:15:28:f4:65:80:87:eb:1f:52:e3:
         e2:f2:58:5b:58:6e:e7:d2:fe:1d:3c:eb:4e:30:b3:3e:b1:a8:
         63:6a:c6:eb:15:09:b1:ca:7b:37:c3:82:c8:5b:e9:f2:2f:8e:
         a2:08:7d:1e:ea:c6:67:e4:86:3d:f6:b5:06:8d:11:bf:d1:15:
         9c:01:20:96:74:57:62:51:f0:9b:bd:39:5f:71:5e:00:4d:09:
         79:ad:32:74:e2:33:ad:f9:c5:7e:7c:7d:c2:b0:52:89:57:23:
         19:cc:dc:b7:ce:cd:99:9f:e1:ab:37:de:43:c3:c5:56:cf:9e:
         f3:aa:18:aa:64:ea:dd:1f:45:ac:a8:8d:33:ad:b0:e1:a8:12:
         a5:22:5b:b6:3b:04:96:b0:4a:1b:37:3a:6f:98:69:e1:4a:33:
         c3:c1:98:18:c4:3e:5b:e4:e2:41:56:3e:b3:35:db:bb:ef:23:
         64:2d:22:46:86:67:89:c2:31:1b:b5:33:49:56:f3:f0:55:1c:
         f1:7e:71:06:ee:68:62:fc:c7:7d:1b:5d:44:af:b4:3f:d8:1c:
         e6:61:29:3b:92:49:48:c0:6e:a1:19:63:1a:41:9c:32:24:5e:
         55:bd:21:90:81:d0:35:7f:b3:c2:3e:3b:6c:fa:01:0f:f4:d0:
         39:05:a6:e0:16:b5:d7:2b:c5:3f:43:f0:cf:35:8e:3d:b4:7c:
         04:28:33:11:5a:94:7f:62:0f:be:e4:69:a8:e7:4b:ae:fe:3f:
         3a:79:23:b3:a9:8e:d1:01:be:60:da:a7:c0:10:a0:bc:48:1c:
         32:09:5c:d3:b0:ce:cd:71:d4:ba:cb:c6:67:c0:49:07:de:b9:
         89:7f:9f:1d:83:b3:8f:57:44:80:78:f5:ed:6c:6a:69:97:67:
         9d:49:65:5c:30:dc:ba:7c:5e:d3:2b:7b:ff:fe:c6:2d:60:e6:
         27:01:60:c8:09:fd:a8:20:ef:9e:8b:aa:65:0a:61:d6:22:ec:
         bc:90:42:b1:ea:51:57:71
-----BEGIN CERTIFICATE-----
MIIHUTCCBQmgAwIBAgIQdpS9NmsqTj9YOecMPZojLDA9BgkqhkiG9w0BAQowMKAN
MAsGCWCGSAFlAwQCA6EaMBgGCSqGSIb3DQEBCDALBglghkgBZQMEAgOiAwIBQDBb
MQswCQYDVQQGEwJERTEVMBMGA1UEChMMRC1UcnVzdCBHbWJIMRwwGgYDVQQDExNE
LVRSVVNUIENBIDItMiAyMDE5MRcwFQYDVQRhEw5OVFJERS1IUkI3NDM0NjAeFw0y
MTA2MDcxMDI5MTdaFw0yMzA2MTExMDI5MTdaMIHrMQswCQYDVQQGEwJERTEdMBsG
A1UEChMUUm9iZXJ0IEtvY2gtSW5zdGl0dXQxJDAiBgNVBAsTG0VsZWt0cm9uaXNj
aGVyIEltcGZuYWNod2VpczEdMBsGA1UEAxMUUm9iZXJ0IEtvY2gtSW5zdGl0dXQx
DzANBgNVBAcTBkJlcmxpbjEOMAwGA1UEEQwFMTMzNTMxFDASBgNVBAkTC05vcmR1
ZmVyIDIwMRkwFwYDVQRhExBEVDpERS0zMDIzNTMxNDQ1MRUwEwYDVQQFEwxDU00w
MjY0MTQxOTcxDzANBgNVBAgTBkJlcmxpbjBZMBMGByqGSM49AgEGCCqGSM49AwEH
A0IABONKxa/G2mRAzbzjRBPkcX+Xj52Sy5qkfuVMMf0uSNspTIo2cmeHNpA9zskx
5X0zWtZktPc151zSSqmcqotxhkOjggLpMIIC5TAfBgNVHSMEGDAWgBRxEDKudHF7
VI7x1qtiVK78PsC7FjAtBggrBgEFBQcBAwQhMB8wCAYGBACORgEBMBMGBgQAjkYB
BjAJBgcEAI5GAQYCMIH+BggrBgEFBQcBAQSB8TCB7jA3BggrBgEFBQcwAYYraHR0
cDovL2QtdHJ1c3QtY2EtMi0yLTIwMTkub2NzcC5kLXRydXN0Lm5ldDBCBggrBgEF
BQcwAoY2aHR0cDovL3d3dy5kLXRydXN0Lm5ldC9jZ2ktYmluL0QtVFJVU1RfQ0Ff
Mi0yXzIwMTkuY3J0MG8GCCsGAQUFBzAChmNsZGFwOi8vZGlyZWN0b3J5LmQtdHJ1
c3QubmV0L0NOPUQtVFJVU1QlMjBDQSUyMDItMiUyMDIwMTksTz1ELVRydXN0JTIw
R21iSCxDPURFP2NBQ2VydGlmaWNhdGU/YmFzZT8wcAYDVR0gBGkwZzAJBgcEAIvs
QAEBMFoGCysGAQQBpTQCgRYFMEswSQYIKwYBBQUHAgEWPWh0dHA6Ly93d3cuZC10
cnVzdC5uZXQvaW50ZXJuZXQvZmlsZXMvRC1UUlVTVF9DU01fUEtJX0NQUy5wZGYw
gfAGA1UdHwSB6DCB5TCB4qCB36CB3IZpbGRhcDovL2RpcmVjdG9yeS5kLXRydXN0
Lm5ldC9DTj1ELVRSVVNUJTIwQ0ElMjAyLTIlMjAyMDE5LE89RC1UcnVzdCUyMEdt
YkgsQz1ERT9jZXJ0aWZpY2F0ZXJldm9jYXRpb25saXN0hjJodHRwOi8vY3JsLmQt
dHJ1c3QubmV0L2NybC9kLXRydXN0X2NhXzItMl8yMDE5LmNybIY7aHR0cDovL2Nk
bi5kLXRydXN0LWNsb3VkY3JsLm5ldC9jcmwvZC10cnVzdF9jYV8yLTJfMjAxOS5j
cmwwHQYDVR0OBBYEFKsCggjyB+AjQo3EwceGW7I5NEIjMA4GA1UdDwEB/wQEAwIG
wDA9BgkqhkiG9w0BAQowMKANMAsGCWCGSAFlAwQCA6EaMBgGCSqGSIb3DQEBCDAL
BglghkgBZQMEAgOiAwIBQAOCAgEAk6gFYk6doC7YFitZ7Mac9H22ctQNc2heXV13
yfKGFQgHZC69rADD7yReYmpX78DfpMx1MPHgMVHABkqWxKa3DEChvE7lPx/YOosy
KTAykxPEYPpeQBTkG3Vs8OZxE4j25izJohiHLPEwcyhoLnkZWpLMOGzp2HV/B+e8
/ld4wEjE/fhl8mkVKPRlgIfrH1Lj4vJYW1hu59L+HTzrTjCzPrGoY2rG6xUJscp7
N8OCyFvp8i+Oogh9HurGZ+SGPfa1Bo0Rv9EVnAEglnRXYlHwm705X3FeAE0Jea0y
dOIzrfnFfnx9wrBSiVcjGczct87NmZ/hqzfeQ8PFVs+e86oYqmTq3R9FrKiNM62w
4agSpSJbtjsElrBKGzc6b5hp4Uozw8GYGMQ+W+TiQVY+szXbu+8jZC0iRoZnicIx
G7UzSVbz8FUc8X5xBu5oYvzHfRtdRK+0P9gc5mEpO5JJSMBuoRljGkGcMiReVb0h
kIHQNX+zwj47bPoBD/TQOQWm4Ba11yvFP0PwzzWOPbR8BCgzEVqUf2IPvuRpqOdL
rv4/Onkjs6mO0QG+YNqnwBCgvEgcMglc07DOzXHUusvGZ8BJB965iX+fHYOzj1dE
gHj17WxqaZdnnUllXDDcunxe0yt7//7GLWDmJwFgyAn9qCDvnouqZQph1iLsvJBC
sepRV3E=
-----END CERTIFICATE-----
