Certificate:
    Data:
        Version: 3 (0x2)
        Serial Number:
            68:9d:37:0c:03:20:2b:84:3f:93:a9:a5:c3:83:fd:e6
    Signature Algorithm: rsassaPss
         Hash Algorithm: sha512
         Mask Algorithm: mgf1 with sha512
         Salt Length: 0x40
         Trailer Field: 0xBC (default)
        Issuer: C = DE, O = D-Trust GmbH, CN = D-TRUST CA 2-2 2019, 2.5.4.97 = NTRDE-HRB74346
        Validity
            Not Before: Jun 24 13:22:00 2021 GMT
            Not After : Jun 28 13:22:00 2023 GMT
        Subject: C = DE, O = Robert Koch-Institut, OU = Elektronischer Impfnachweis, CN = Robert Koch-Institut, L = Berlin, postalCode = 13353, street = Nordufer 20, 2.5.4.97 = DT:DE-3023531445, serialNumber = CSM026571313, ST = Berlin
        Subject Public Key Info:
            Public Key Algorithm: id-ecPublicKey
                Public-Key: (256 bit)
                pub:
                    04:c7:81:c7:2f:2c:5e:1f:5c:29:fd:a3:c2:0b:0c:
                    91:c5:65:44:71:f5:00:2c:fe:ba:92:0c:1a:9e:e7:
                    46:e1:bf:2e:a6:f1:85:32:c5:57:a7:38:34:a2:11:
                    0f:6a:b5:5a:f7:5d:80:f5:40:6e:0a:48:c3:33:a8:
                    c5:02:c8:19:21
                ASN1 OID: prime256v1
                NIST CURVE: P-256
        X509v3 extensions:
            X509v3 Authority Key Identifier: 
                keyid:71:10:32:AE:74:71:7B:54:8E:F1:D6:AB:62:54:AE:FC:3E:C0:BB:16

            qcStatements: 
                0.0......F..0......F..0......F...
            Authority Information Access: 
                OCSP - URI:http://d-trust-ca-2-2-2019.ocsp.d-trust.net
                CA Issuers - URI:http://www.d-trust.net/cgi-bin/D-TRUST_CA_2-2_2019.crt
                CA Issuers - URI:ldap://directory.d-trust.net/CN=D-TRUST%20CA%202-2%202019,O=D-Trust%20GmbH,C=DE?cACertificate?base?

            X509v3 Certificate Policies: 
                Policy: 0.4.0.194112.1.1
                Policy: 1.3.6.1.4.1.4788.2.150.5
                  CPS: http://www.d-trust.net/internet/files/D-TRUST_CSM_PKI_CPS.pdf

            X509v3 CRL Distribution Points: 

                Full Name:
                  URI:http://crl.d-trust.net/crl/d-trust_ca_2-2_2019.crl
                  URI:http://cdn.d-trust-cloudcrl.net/crl/d-trust_ca_2-2_2019.crl
                  URI:ldap://directory.d-trust.net/CN=D-TRUST%20CA%202-2%202019,O=D-Trust%20GmbH,C=DE?certificaterevocationlist

            X509v3 Subject Key Identifier: 
                41:2E:FB:AA:5F:4F:C3:2D:11:7A:D3:7D:77:32:FE:19:85:55:1B:1E
            X509v3 Key Usage: critical
                Digital Signature, Non Repudiation
    Signature Algorithm: rsassaPss
         Hash Algorithm: sha512
         Mask Algorithm: mgf1 with sha512
         Salt Length: 0x40
         Trailer Field: 0xBC (default)

         c8:93:d6:ef:d6:6f:82:9e:53:8b:e9:07:57:13:84:b9:c5:fd:
         01:19:e5:5f:a7:72:cd:99:ce:5a:ae:d3:65:7b:d5:05:92:50:
         35:a1:89:08:57:75:57:34:06:8a:90:cd:f5:12:b9:a9:df:c9:
         c4:83:78:9d:af:12:54:3b:60:cc:69:c6:b3:cf:67:4e:7c:b9:
         7c:80:07:91:5d:3d:7b:78:f9:53:93:1a:07:98:22:6c:c9:13:
         ad:18:da:7c:a1:3c:ab:8d:88:7e:5c:0d:39:1b:3a:56:0c:17:
         11:33:ae:55:39:ec:09:e5:e8:7e:10:d0:fb:06:0e:89:61:14:
         32:19:2c:0d:90:09:bb:3a:00:5e:9b:42:60:be:d3:2a:a0:28:
         65:eb:0a:e5:03:09:f6:3d:18:65:14:44:20:e5:7e:d2:42:f0:
         96:a3:d7:76:c5:90:1e:48:94:38:66:87:27:d0:68:87:d1:a7:
         35:80:3d:16:01:86:5b:26:c0:b8:68:5d:9f:47:eb:b1:db:4d:
         c2:fc:d9:86:d8:6b:a3:22:50:be:4c:3e:5a:04:20:2f:08:05:
         75:69:38:b1:36:13:9c:8f:7e:19:b8:df:51:22:90:99:91:e7:
         3a:f9:30:ff:ce:ce:ee:96:3c:8c:c4:9d:5a:14:5c:74:d9:b2:
         b7:a9:aa:9b:89:30:ba:6b:27:cc:75:36:b7:61:1f:fe:e4:e5:
         43:b1:22:c9:c1:a8:bc:35:df:09:39:32:5b:a4:86:59:54:32:
         39:96:c2:1b:1a:51:78:85:43:66:96:0e:ec:15:99:80:28:5b:
         2f:7c:3f:44:6f:9b:2a:ee:09:6d:5e:cf:78:38:3d:21:b5:14:
         4e:ab:b5:53:50:c1:d2:38:2b:92:fc:89:80:07:80:6e:e0:e9:
         5b:5d:23:ba:6a:54:98:1f:e0:a1:34:98:14:4d:d0:bd:dd:98:
         8c:d0:ee:42:47:f0:11:c6:b2:e8:46:da:11:b9:4f:5a:fc:43:
         fd:3e:cd:0a:c2:77:a7:a1:a3:a1:f3:79:6f:e0:17:ba:cf:a5:
         8a:ea:15:67:17:d7:40:2c:f2:20:6f:e4:70:56:20:59:c2:6d:
         38:94:13:b5:25:77:0d:ed:59:79:e3:94:3c:41:2b:2a:70:0b:
         bf:54:db:9b:df:db:85:4f:52:1a:da:f8:8e:43:56:75:aa:15:
         b9:67:ae:e4:89:b5:1b:ee:25:42:30:54:33:89:ee:47:e3:23:
         2f:6c:12:1c:04:c7:da:4d:a9:85:11:53:ea:f3:96:28:8b:04:
         a8:70:88:fc:5d:dc:ba:ad:52:b0:6d:7b:97:c2:0e:80:07:46:
         5c:a2:dd:47:bc:c5:ca:cf
-----BEGIN CERTIFICATE-----
MIIHUTCCBQmgAwIBAgIQaJ03DAMgK4Q/k6mlw4P95jA9BgkqhkiG9w0BAQowMKAN
MAsGCWCGSAFlAwQCA6EaMBgGCSqGSIb3DQEBCDALBglghkgBZQMEAgOiAwIBQDBb
MQswCQYDVQQGEwJERTEVMBMGA1UEChMMRC1UcnVzdCBHbWJIMRwwGgYDVQQDExNE
LVRSVVNUIENBIDItMiAyMDE5MRcwFQYDVQRhEw5OVFJERS1IUkI3NDM0NjAeFw0y
MTA2MjQxMzIyMDBaFw0yMzA2MjgxMzIyMDBaMIHrMQswCQYDVQQGEwJERTEdMBsG
A1UEChMUUm9iZXJ0IEtvY2gtSW5zdGl0dXQxJDAiBgNVBAsTG0VsZWt0cm9uaXNj
aGVyIEltcGZuYWNod2VpczEdMBsGA1UEAxMUUm9iZXJ0IEtvY2gtSW5zdGl0dXQx
DzANBgNVBAcTBkJlcmxpbjEOMAwGA1UEEQwFMTMzNTMxFDASBgNVBAkTC05vcmR1
ZmVyIDIwMRkwFwYDVQRhExBEVDpERS0zMDIzNTMxNDQ1MRUwEwYDVQQFEwxDU00w
MjY1NzEzMTMxDzANBgNVBAgTBkJlcmxpbjBZMBMGByqGSM49AgEGCCqGSM49AwEH
A0IABMeBxy8sXh9cKf2jwgsMkcVlRHH1ACz+upIMGp7nRuG/LqbxhTLFV6c4NKIR
D2q1WvddgPVAbgpIwzOoxQLIGSGjggLpMIIC5TAfBgNVHSMEGDAWgBRxEDKudHF7
VI7x1qtiVK78PsC7FjAtBggrBgEFBQcBAwQhMB8wCAYGBACORgEBMBMGBgQAjkYB
BjAJBgcEAI5GAQYCMIH+BggrBgEFBQcBAQSB8TCB7jA3BggrBgEFBQcwAYYraHR0
cDovL2QtdHJ1c3QtY2EtMi0yLTIwMTkub2NzcC5kLXRydXN0Lm5ldDBCBggrBgEF
BQcwAoY2aHR0cDovL3d3dy5kLXRydXN0Lm5ldC9jZ2ktYmluL0QtVFJVU1RfQ0Ff
Mi0yXzIwMTkuY3J0MG8GCCsGAQUFBzAChmNsZGFwOi8vZGlyZWN0b3J5LmQtdHJ1
c3QubmV0L0NOPUQtVFJVU1QlMjBDQSUyMDItMiUyMDIwMTksTz1ELVRydXN0JTIw
R21iSCxDPURFP2NBQ2VydGlmaWNhdGU/YmFzZT8wcAYDVR0gBGkwZzAJBgcEAIvs
QAEBMFoGCysGAQQBpTQCgRYFMEswSQYIKwYBBQUHAgEWPWh0dHA6Ly93d3cuZC10
cnVzdC5uZXQvaW50ZXJuZXQvZmlsZXMvRC1UUlVTVF9DU01fUEtJX0NQUy5wZGYw
gfAGA1UdHwSB6DCB5TCB4qCB36CB3IYyaHR0cDovL2NybC5kLXRydXN0Lm5ldC9j
cmwvZC10cnVzdF9jYV8yLTJfMjAxOS5jcmyGO2h0dHA6Ly9jZG4uZC10cnVzdC1j
bG91ZGNybC5uZXQvY3JsL2QtdHJ1c3RfY2FfMi0yXzIwMTkuY3JshmlsZGFwOi8v
ZGlyZWN0b3J5LmQtdHJ1c3QubmV0L0NOPUQtVFJVU1QlMjBDQSUyMDItMiUyMDIw
MTksTz1ELVRydXN0JTIwR21iSCxDPURFP2NlcnRpZmljYXRlcmV2b2NhdGlvbmxp
c3QwHQYDVR0OBBYEFEEu+6pfT8MtEXrTfXcy/hmFVRseMA4GA1UdDwEB/wQEAwIG
wDA9BgkqhkiG9w0BAQowMKANMAsGCWCGSAFlAwQCA6EaMBgGCSqGSIb3DQEBCDAL
BglghkgBZQMEAgOiAwIBQAOCAgEAyJPW79Zvgp5Ti+kHVxOEucX9ARnlX6dyzZnO
Wq7TZXvVBZJQNaGJCFd1VzQGipDN9RK5qd/JxIN4na8SVDtgzGnGs89nTny5fIAH
kV09e3j5U5MaB5gibMkTrRjafKE8q42IflwNORs6VgwXETOuVTnsCeXofhDQ+wYO
iWEUMhksDZAJuzoAXptCYL7TKqAoZesK5QMJ9j0YZRREIOV+0kLwlqPXdsWQHkiU
OGaHJ9Boh9GnNYA9FgGGWybAuGhdn0frsdtNwvzZhthroyJQvkw+WgQgLwgFdWk4
sTYTnI9+GbjfUSKQmZHnOvkw/87O7pY8jMSdWhRcdNmyt6mqm4kwumsnzHU2t2Ef
/uTlQ7EiycGovDXfCTkyW6SGWVQyOZbCGxpReIVDZpYO7BWZgChbL3w/RG+bKu4J
bV7PeDg9IbUUTqu1U1DB0jgrkvyJgAeAbuDpW10jumpUmB/goTSYFE3Qvd2YjNDu
QkfwEcay6EbaEblPWvxD/T7NCsJ3p6GjofN5b+AXus+liuoVZxfXQCzyIG/kcFYg
WcJtOJQTtSV3De1ZeeOUPEErKnALv1Tbm9/bhU9SGtr4jkNWdaoVuWeu5Im1G+4l
QjBUM4nuR+MjL2wSHATH2k2phRFT6vOWKIsEqHCI/F3cuq1SsG17l8IOgAdGXKLd
R7zFys8=
-----END CERTIFICATE-----
