Certificate:
    Data:
        Version: 3 (0x2)
        Serial Number:
            6d:ac:03:98:62:29:b8:dc:9e:c0:62:ab:6c:33:4d:f0
    Signature Algorithm: rsassaPss
         Hash Algorithm: sha512
         Mask Algorithm: mgf1 with sha512
         Salt Length: 0x40
         Trailer Field: 0xBC (default)
        Issuer: C = DE, O = D-Trust GmbH, CN = D-TRUST CA 2-2 2019, 2.5.4.97 = NTRDE-HRB74346
        Validity
            Not Before: Jun  7 09:58:39 2021 GMT
            Not After : Jun 11 09:58:39 2023 GMT
        Subject: C = DE, O = Robert Koch-Institut, OU = Elektronischer Impfnachweis, CN = Robert Koch-Institut, L = Berlin, postalCode = 13353, street = Nordufer 20, 2.5.4.97 = DT:DE-3023531445, serialNumber = CSM026413569, ST = Berlin
        Subject Public Key Info:
            Public Key Algorithm: id-ecPublicKey
                Public-Key: (256 bit)
                pub:
                    04:3a:5d:8d:14:cf:b6:82:46:a4:ae:b0:1a:ee:0f:
                    85:ec:a3:97:47:38:92:e3:27:5b:c6:23:5b:9b:75:
                    d3:bb:e2:fd:2c:ff:a8:48:a3:0b:39:e2:4e:05:c8:
                    c9:03:74:6a:ae:a0:22:59:fa:0c:ae:25:86:77:42:
                    d1:60:ce:93:59
                ASN1 OID: prime256v1
                NIST CURVE: P-256
        X509v3 extensions:
            X509v3 Authority Key Identifier: 
                keyid:71:10:32:AE:74:71:7B:54:8E:F1:D6:AB:62:54:AE:FC:3E:C0:BB:16

            qcStatements: 
                0.0......F..0......F..0......F...
            Authority Information Access: 
                OCSP - URI:http://d-trust-ca-2-2-2019.ocsp.d-trust.net
                CA Issuers - URI:http://www.d-trust.net/cgi-bin/D-TRUST_CA_2-2_2019.crt
                CA Issuers - URI:ldap://directory.d-trust.net/CN=D-TRUST%20CA%202-2%202019,O=D-Trust%20GmbH,C=DE?cACertificate?base?

            X509v3 Certificate Policies: 
                Policy: 0.4.0.194112.1.1
                Policy: 1.3.6.1.4.1.4788.2.150.5
                  CPS: http://www.d-trust.net/internet/files/D-TRUST_CSM_PKI_CPS.pdf

            X509v3 CRL Distribution Points: 

                Full Name:
                  URI:ldap://directory.d-trust.net/CN=D-TRUST%20CA%202-2%202019,O=D-Trust%20GmbH,C=DE?certificaterevocationlist
                  URI:http://crl.d-trust.net/crl/d-trust_ca_2-2_2019.crl
                  URI:http://cdn.d-trust-cloudcrl.net/crl/d-trust_ca_2-2_2019.crl

            X509v3 Subject Key Identifier: 
                C6:EE:BB:BF:91:61:25:60:47:AA:FB:D3:2C:41:77:0D:75:B8:BB:A5
            X509v3 Key Usage: critical
                Digital Signature, Non Repudiation
    Signature Algorithm: rsassaPss
         Hash Algorithm: sha512
         Mask Algorithm: mgf1 with sha512
         Salt Length: 0x40
         Trailer Field: 0xBC (default)

         77:92:15:93:71:1a:59:a4:cc:9d:5d:4b:b0:38:de:43:9f:e6:
         91:38:42:87:2c:1d:6a:4f:66:f3:cf:78:46:27:a4:19:2b:d0:
         85:5a:c9:fb:19:65:7a:33:38:9c:7f:41:55:f4:c8:58:28:0a:
         90:19:6b:8d:16:77:d8:ec:95:34:52:57:1f:2f:20:ab:a1:8e:
         d1:63:52:08:f5:dd:d4:3e:b1:4a:18:31:78:fa:4c:78:6a:2a:
         11:d2:7f:6c:80:15:d0:fd:69:ab:7b:16:a6:ca:0e:2d:85:85:
         8c:ec:b2:a4:96:24:2b:34:ba:3a:af:aa:cc:ff:72:53:e0:fc:
         e0:62:20:bf:ec:e9:25:32:ae:87:50:2b:b2:27:2b:33:37:11:
         b5:0c:ec:da:bb:28:22:a5:b6:77:96:a2:5b:8d:96:f2:32:d6:
         c3:0a:eb:a2:f4:1a:25:30:7f:86:02:7b:ab:b9:bb:50:b5:6b:
         d7:d3:ec:54:b2:42:6d:3c:49:07:90:ef:68:77:80:93:82:41:
         00:59:e7:58:b0:4f:1b:79:a0:38:87:65:14:bc:ec:5b:35:72:
         44:51:b0:4e:bf:e4:20:35:eb:0e:d1:fd:3f:b4:45:19:1e:ed:
         44:e8:45:e2:13:bd:0e:ae:c7:87:91:61:aa:8f:60:ad:7d:bf:
         db:40:7d:7b:b1:be:f9:bd:69:ea:11:0f:84:6e:2d:6b:08:41:
         c9:91:49:4c:d6:63:22:62:12:19:1a:61:46:24:2d:41:20:df:
         97:8a:de:d1:76:34:81:0d:65:44:71:e5:83:d2:50:86:0b:24:
         a1:ae:de:aa:a7:96:27:7b:ed:bb:ef:ad:a4:69:57:41:94:5f:
         31:61:9d:d0:15:4f:89:7f:01:f5:db:e9:51:18:b3:b1:d6:6b:
         8c:87:29:0c:1d:cc:a2:7b:13:da:51:d8:f6:e5:63:24:2a:e1:
         a7:2f:88:12:a6:b6:bc:3b:c0:21:05:52:ab:81:38:45:0f:dd:
         17:9c:5a:df:80:b2:ba:30:c0:7e:44:fd:b5:d8:09:fb:9f:61:
         d5:3b:1a:43:d5:06:49:49:25:61:f7:50:62:6a:19:ec:3d:13:
         85:34:3b:47:92:d1:b1:78:ad:30:e2:8c:58:ce:96:61:03:4b:
         a7:f4:15:ed:f4:ab:7e:65:e1:fb:42:1b:23:dc:93:1d:ef:5a:
         11:33:22:29:ba:96:a5:24:f3:64:8c:17:8b:15:28:8b:6b:e3:
         eb:15:d3:6a:7e:49:bb:26:8e:1b:14:e3:b1:24:29:58:ff:e7:
         24:ed:da:51:f5:ab:e5:83:3d:bd:23:ba:4d:a0:1c:22:03:9a:
         ef:1c:87:e9:e1:9c:a6:d3
-----BEGIN CERTIFICATE-----
MIIHUTCCBQmgAwIBAgIQbawDmGIpuNyewGKrbDNN8DA9BgkqhkiG9w0BAQowMKAN
MAsGCWCGSAFlAwQCA6EaMBgGCSqGSIb3DQEBCDALBglghkgBZQMEAgOiAwIBQDBb
MQswCQYDVQQGEwJERTEVMBMGA1UEChMMRC1UcnVzdCBHbWJIMRwwGgYDVQQDExNE
LVRSVVNUIENBIDItMiAyMDE5MRcwFQYDVQRhEw5OVFJERS1IUkI3NDM0NjAeFw0y
MTA2MDcwOTU4MzlaFw0yMzA2MTEwOTU4MzlaMIHrMQswCQYDVQQGEwJERTEdMBsG
A1UEChMUUm9iZXJ0IEtvY2gtSW5zdGl0dXQxJDAiBgNVBAsTG0VsZWt0cm9uaXNj
aGVyIEltcGZuYWNod2VpczEdMBsGA1UEAxMUUm9iZXJ0IEtvY2gtSW5zdGl0dXQx
DzANBgNVBAcTBkJlcmxpbjEOMAwGA1UEEQwFMTMzNTMxFDASBgNVBAkTC05vcmR1
ZmVyIDIwMRkwFwYDVQRhExBEVDpERS0zMDIzNTMxNDQ1MRUwEwYDVQQFEwxDU00w
MjY0MTM1NjkxDzANBgNVBAgTBkJlcmxpbjBZMBMGByqGSM49AgEGCCqGSM49AwEH
A0IABDpdjRTPtoJGpK6wGu4Pheyjl0c4kuMnW8YjW5t107vi/Sz/qEijCzniTgXI
yQN0aq6gIln6DK4lhndC0WDOk1mjggLpMIIC5TAfBgNVHSMEGDAWgBRxEDKudHF7
VI7x1qtiVK78PsC7FjAtBggrBgEFBQcBAwQhMB8wCAYGBACORgEBMBMGBgQAjkYB
BjAJBgcEAI5GAQYCMIH+BggrBgEFBQcBAQSB8TCB7jA3BggrBgEFBQcwAYYraHR0
cDovL2QtdHJ1c3QtY2EtMi0yLTIwMTkub2NzcC5kLXRydXN0Lm5ldDBCBggrBgEF
BQcwAoY2aHR0cDovL3d3dy5kLXRydXN0Lm5ldC9jZ2ktYmluL0QtVFJVU1RfQ0Ff
Mi0yXzIwMTkuY3J0MG8GCCsGAQUFBzAChmNsZGFwOi8vZGlyZWN0b3J5LmQtdHJ1
c3QubmV0L0NOPUQtVFJVU1QlMjBDQSUyMDItMiUyMDIwMTksTz1ELVRydXN0JTIw
R21iSCxDPURFP2NBQ2VydGlmaWNhdGU/YmFzZT8wcAYDVR0gBGkwZzAJBgcEAIvs
QAEBMFoGCysGAQQBpTQCgRYFMEswSQYIKwYBBQUHAgEWPWh0dHA6Ly93d3cuZC10
cnVzdC5uZXQvaW50ZXJuZXQvZmlsZXMvRC1UUlVTVF9DU01fUEtJX0NQUy5wZGYw
gfAGA1UdHwSB6DCB5TCB4qCB36CB3IZpbGRhcDovL2RpcmVjdG9yeS5kLXRydXN0
Lm5ldC9DTj1ELVRSVVNUJTIwQ0ElMjAyLTIlMjAyMDE5LE89RC1UcnVzdCUyMEdt
YkgsQz1ERT9jZXJ0aWZpY2F0ZXJldm9jYXRpb25saXN0hjJodHRwOi8vY3JsLmQt
dHJ1c3QubmV0L2NybC9kLXRydXN0X2NhXzItMl8yMDE5LmNybIY7aHR0cDovL2Nk
bi5kLXRydXN0LWNsb3VkY3JsLm5ldC9jcmwvZC10cnVzdF9jYV8yLTJfMjAxOS5j
cmwwHQYDVR0OBBYEFMbuu7+RYSVgR6r70yxBdw11uLulMA4GA1UdDwEB/wQEAwIG
wDA9BgkqhkiG9w0BAQowMKANMAsGCWCGSAFlAwQCA6EaMBgGCSqGSIb3DQEBCDAL
BglghkgBZQMEAgOiAwIBQAOCAgEAd5IVk3EaWaTMnV1LsDjeQ5/mkThChywdak9m
8894RiekGSvQhVrJ+xllejM4nH9BVfTIWCgKkBlrjRZ32OyVNFJXHy8gq6GO0WNS
CPXd1D6xShgxePpMeGoqEdJ/bIAV0P1pq3sWpsoOLYWFjOyypJYkKzS6Oq+qzP9y
U+D84GIgv+zpJTKuh1ArsicrMzcRtQzs2rsoIqW2d5aiW42W8jLWwwrrovQaJTB/
hgJ7q7m7ULVr19PsVLJCbTxJB5DvaHeAk4JBAFnnWLBPG3mgOIdlFLzsWzVyRFGw
Tr/kIDXrDtH9P7RFGR7tROhF4hO9Dq7Hh5Fhqo9grX2/20B9e7G++b1p6hEPhG4t
awhByZFJTNZjImISGRphRiQtQSDfl4re0XY0gQ1lRHHlg9JQhgskoa7eqqeWJ3vt
u++tpGlXQZRfMWGd0BVPiX8B9dvpURizsdZrjIcpDB3MonsT2lHY9uVjJCrhpy+I
Eqa2vDvAIQVSq4E4RQ/dF5xa34CyujDAfkT9tdgJ+59h1TsaQ9UGSUklYfdQYmoZ
7D0ThTQ7R5LRsXitMOKMWM6WYQNLp/QV7fSrfmXh+0IbI9yTHe9aETMiKbqWpSTz
ZIwXixUoi2vj6xXTan5JuyaOGxTjsSQpWP/nJO3aUfWr5YM9vSO6TaAcIgOa7xyH
6eGcptM=
-----END CERTIFICATE-----
