Certificate:
    Data:
        Version: 3 (0x2)
        Serial Number:
            4e:b3:52:63:1c:64:82:46:24:74:22:d4:c8:df:50:b9
    Signature Algorithm: rsassaPss
         Hash Algorithm: sha512
         Mask Algorithm: mgf1 with sha512
         Salt Length: 0x40
         Trailer Field: 0xBC (default)
        Issuer: C = DE, O = D-Trust GmbH, CN = D-TRUST CA 2-2 2019, 2.5.4.97 = NTRDE-HRB74346
        Validity
            Not Before: Jun  3 10:52:53 2021 GMT
            Not After : Jun  7 10:52:53 2023 GMT
        Subject: C = DE, O = Robert Koch-Institut, OU = Elektronischer Impfnachweis, CN = Robert Koch-Institut, L = Berlin, postalCode = 13353, street = Nordufer 20, 2.5.4.97 = DT:DE-3023531445, serialNumber = CSM026382968, ST = Berlin
        Subject Public Key Info:
            Public Key Algorithm: id-ecPublicKey
                Public-Key: (256 bit)
                pub:
                    04:80:c8:69:3a:4b:5f:0c:3e:d5:9f:b5:a6:f8:19:
                    47:69:b1:5b:a4:eb:36:52:60:95:ae:d2:29:70:e1:
                    69:22:5a:fc:fb:6c:07:3f:9f:d5:49:46:6c:94:4c:
                    52:a3:6f:38:7e:9c:2e:a0:9e:5e:29:c8:c3:ba:f9:
                    42:3e:36:4d:85
                ASN1 OID: prime256v1
                NIST CURVE: P-256
        X509v3 extensions:
            X509v3 Authority Key Identifier: 
                keyid:71:10:32:AE:74:71:7B:54:8E:F1:D6:AB:62:54:AE:FC:3E:C0:BB:16

            qcStatements: 
                0.0......F..0......F..0......F...
            Authority Information Access: 
                OCSP - URI:http://d-trust-ca-2-2-2019.ocsp.d-trust.net
                CA Issuers - URI:http://www.d-trust.net/cgi-bin/D-TRUST_CA_2-2_2019.crt
                CA Issuers - URI:ldap://directory.d-trust.net/CN=D-TRUST%20CA%202-2%202019,O=D-Trust%20GmbH,C=DE?cACertificate?base?

            X509v3 Certificate Policies: 
                Policy: 0.4.0.194112.1.1
                Policy: 1.3.6.1.4.1.4788.2.150.5
                  CPS: http://www.d-trust.net/internet/files/D-TRUST_CSM_PKI_CPS.pdf

            X509v3 CRL Distribution Points: 

                Full Name:
                  URI:ldap://directory.d-trust.net/CN=D-TRUST%20CA%202-2%202019,O=D-Trust%20GmbH,C=DE?certificaterevocationlist
                  URI:http://crl.d-trust.net/crl/d-trust_ca_2-2_2019.crl
                  URI:http://cdn.d-trust-cloudcrl.net/crl/d-trust_ca_2-2_2019.crl

            X509v3 Subject Key Identifier: 
                E5:1F:DE:25:9D:D8:7B:A6:F8:3D:3A:F0:C8:30:36:A5:39:E4:C1:87
            X509v3 Key Usage: critical
                Digital Signature, Non Repudiation
    Signature Algorithm: rsassaPss
         Hash Algorithm: sha512
         Mask Algorithm: mgf1 with sha512
         Salt Length: 0x40
         Trailer Field: 0xBC (default)

         80:d1:02:ee:b9:10:9e:1f:fb:db:0a:ed:1a:16:71:fc:0e:5d:
         1d:78:9e:5f:92:a9:e1:53:3a:b8:04:be:02:76:44:fd:61:ec:
         0e:c8:3a:b4:e0:7f:f2:30:fa:84:00:07:38:07:a6:83:41:a0:
         50:7a:e9:33:f0:38:bb:04:d7:ff:d9:49:b5:71:7f:a7:ed:c4:
         8a:fe:78:91:e1:76:aa:7b:fd:71:9c:9b:2e:66:4b:ea:b0:bb:
         3b:2b:40:ef:1d:c4:96:11:71:7d:5d:52:ba:64:6a:8a:45:b9:
         75:d6:fb:1f:fc:c0:7b:29:0a:4d:c9:28:99:63:46:d8:f1:03:
         c0:1d:c5:e4:71:79:2f:c3:06:39:89:aa:10:8d:57:fa:67:48:
         f1:de:cb:fb:81:36:cf:93:97:62:30:74:be:1e:a7:f9:1d:39:
         30:3d:b7:2c:cf:04:11:f3:7f:5a:45:78:e2:da:0b:54:0a:7f:
         b4:ba:65:9f:83:26:13:ab:15:85:79:31:da:9e:cb:ab:24:73:
         cc:ec:81:23:8e:a5:71:c0:6a:1a:0a:e2:5a:6e:6b:26:b7:bd:
         61:83:b4:22:5e:e3:00:50:b5:48:93:71:99:3b:46:c7:02:bd:
         55:e6:f1:cc:d7:aa:95:51:3d:95:5b:ff:89:14:90:bb:ed:45:
         c0:9e:72:a9:41:8b:8d:85:1b:6d:64:c0:d5:4e:93:57:99:20:
         2e:0e:cc:3b:74:e1:06:b5:15:90:90:f0:ed:fe:71:7b:0b:97:
         7d:65:ee:78:50:d6:f7:89:52:ec:4a:fe:c6:c5:e2:1c:fa:ac:
         3a:a0:eb:6c:3a:9c:f8:6c:1c:64:ae:65:08:a4:ed:fd:d7:f6:
         5b:a9:56:59:74:7e:4c:5c:aa:23:a0:84:72:31:4b:9f:35:75:
         b7:e0:6e:46:7c:a1:65:c2:18:71:4c:8d:0c:f5:15:c3:b7:2e:
         87:cd:5e:37:88:ce:44:22:97:c2:f4:e1:45:dd:c2:00:52:27:
         f0:5d:bc:fc:2e:3c:ed:a0:10:0c:f5:d3:14:22:f4:c6:93:db:
         6c:d6:8d:fc:0a:94:63:92:d6:19:f0:ae:51:6a:d5:9d:50:9a:
         38:23:df:98:28:a3:1d:b2:8c:62:36:de:6f:26:e2:72:8b:2d:
         76:77:50:97:63:df:59:d0:b1:35:22:15:d9:04:93:be:08:8e:
         49:89:cb:f0:b7:15:d5:ca:c4:f5:ea:1e:5c:dd:02:60:58:23:
         fa:98:4d:bd:e3:b0:5e:b0:38:37:c9:97:21:ed:ae:41:f5:bb:
         80:a5:b8:be:a4:b4:ba:6d:1f:74:f7:ae:e7:7f:47:86:9a:7c:
         b0:8d:8b:76:c1:21:ec:40
-----BEGIN CERTIFICATE-----
MIIHUTCCBQmgAwIBAgIQTrNSYxxkgkYkdCLUyN9QuTA9BgkqhkiG9w0BAQowMKAN
MAsGCWCGSAFlAwQCA6EaMBgGCSqGSIb3DQEBCDALBglghkgBZQMEAgOiAwIBQDBb
MQswCQYDVQQGEwJERTEVMBMGA1UEChMMRC1UcnVzdCBHbWJIMRwwGgYDVQQDExNE
LVRSVVNUIENBIDItMiAyMDE5MRcwFQYDVQRhEw5OVFJERS1IUkI3NDM0NjAeFw0y
MTA2MDMxMDUyNTNaFw0yMzA2MDcxMDUyNTNaMIHrMQswCQYDVQQGEwJERTEdMBsG
A1UEChMUUm9iZXJ0IEtvY2gtSW5zdGl0dXQxJDAiBgNVBAsTG0VsZWt0cm9uaXNj
aGVyIEltcGZuYWNod2VpczEdMBsGA1UEAxMUUm9iZXJ0IEtvY2gtSW5zdGl0dXQx
DzANBgNVBAcTBkJlcmxpbjEOMAwGA1UEEQwFMTMzNTMxFDASBgNVBAkTC05vcmR1
ZmVyIDIwMRkwFwYDVQRhExBEVDpERS0zMDIzNTMxNDQ1MRUwEwYDVQQFEwxDU00w
MjYzODI5NjgxDzANBgNVBAgTBkJlcmxpbjBZMBMGByqGSM49AgEGCCqGSM49AwEH
A0IABIDIaTpLXww+1Z+1pvgZR2mxW6TrNlJgla7SKXDhaSJa/PtsBz+f1UlGbJRM
UqNvOH6cLqCeXinIw7r5Qj42TYWjggLpMIIC5TAfBgNVHSMEGDAWgBRxEDKudHF7
VI7x1qtiVK78PsC7FjAtBggrBgEFBQcBAwQhMB8wCAYGBACORgEBMBMGBgQAjkYB
BjAJBgcEAI5GAQYCMIH+BggrBgEFBQcBAQSB8TCB7jA3BggrBgEFBQcwAYYraHR0
cDovL2QtdHJ1c3QtY2EtMi0yLTIwMTkub2NzcC5kLXRydXN0Lm5ldDBCBggrBgEF
BQcwAoY2aHR0cDovL3d3dy5kLXRydXN0Lm5ldC9jZ2ktYmluL0QtVFJVU1RfQ0Ff
Mi0yXzIwMTkuY3J0MG8GCCsGAQUFBzAChmNsZGFwOi8vZGlyZWN0b3J5LmQtdHJ1
c3QubmV0L0NOPUQtVFJVU1QlMjBDQSUyMDItMiUyMDIwMTksTz1ELVRydXN0JTIw
R21iSCxDPURFP2NBQ2VydGlmaWNhdGU/YmFzZT8wcAYDVR0gBGkwZzAJBgcEAIvs
QAEBMFoGCysGAQQBpTQCgRYFMEswSQYIKwYBBQUHAgEWPWh0dHA6Ly93d3cuZC10
cnVzdC5uZXQvaW50ZXJuZXQvZmlsZXMvRC1UUlVTVF9DU01fUEtJX0NQUy5wZGYw
gfAGA1UdHwSB6DCB5TCB4qCB36CB3IZpbGRhcDovL2RpcmVjdG9yeS5kLXRydXN0
Lm5ldC9DTj1ELVRSVVNUJTIwQ0ElMjAyLTIlMjAyMDE5LE89RC1UcnVzdCUyMEdt
YkgsQz1ERT9jZXJ0aWZpY2F0ZXJldm9jYXRpb25saXN0hjJodHRwOi8vY3JsLmQt
dHJ1c3QubmV0L2NybC9kLXRydXN0X2NhXzItMl8yMDE5LmNybIY7aHR0cDovL2Nk
bi5kLXRydXN0LWNsb3VkY3JsLm5ldC9jcmwvZC10cnVzdF9jYV8yLTJfMjAxOS5j
cmwwHQYDVR0OBBYEFOUf3iWd2Hum+D068MgwNqU55MGHMA4GA1UdDwEB/wQEAwIG
wDA9BgkqhkiG9w0BAQowMKANMAsGCWCGSAFlAwQCA6EaMBgGCSqGSIb3DQEBCDAL
BglghkgBZQMEAgOiAwIBQAOCAgEAgNEC7rkQnh/72wrtGhZx/A5dHXieX5Kp4VM6
uAS+AnZE/WHsDsg6tOB/8jD6hAAHOAemg0GgUHrpM/A4uwTX/9lJtXF/p+3Eiv54
keF2qnv9cZybLmZL6rC7OytA7x3ElhFxfV1SumRqikW5ddb7H/zAeykKTckomWNG
2PEDwB3F5HF5L8MGOYmqEI1X+mdI8d7L+4E2z5OXYjB0vh6n+R05MD23LM8EEfN/
WkV44toLVAp/tLpln4MmE6sVhXkx2p7LqyRzzOyBI46lccBqGgriWm5rJre9YYO0
Il7jAFC1SJNxmTtGxwK9VebxzNeqlVE9lVv/iRSQu+1FwJ5yqUGLjYUbbWTA1U6T
V5kgLg7MO3ThBrUVkJDw7f5xewuXfWXueFDW94lS7Er+xsXiHPqsOqDrbDqc+Gwc
ZK5lCKTt/df2W6lWWXR+TFyqI6CEcjFLnzV1t+BuRnyhZcIYcUyNDPUVw7cuh81e
N4jORCKXwvThRd3CAFIn8F28/C487aAQDPXTFCL0xpPbbNaN/AqUY5LWGfCuUWrV
nVCaOCPfmCijHbKMYjbebybicostdndQl2PfWdCxNSIV2QSTvgiOSYnL8LcV1crE
9eoeXN0CYFgj+phNveOwXrA4N8mXIe2uQfW7gKW4vqS0um0fdPeu539Hhpp8sI2L
dsEh7EA=
-----END CERTIFICATE-----
