Certificate:
    Data:
        Version: 3 (0x2)
        Serial Number:
            03:c2:28:cf:2b:e4:32:51:60:b0:ef:ec:53:e4:e7:af
    Signature Algorithm: ecdsa-with-SHA256
        Issuer: C = ES, O = IZENPE S.A., OU = Peer, CN = iCA Izenpe
        Validity
            Not Before: May 28 13:28:12 2021 GMT
            Not After : May 28 13:28:12 2024 GMT
        Subject: C = ES, O = EUSKO JAURLARITZA - GOBIERNO VASCO, OU = SELLO ELECTRONICO, 2.5.4.97 = VATES-S4833001C, CN = DIRECCI\C3\93N DE SALUD P\C3\9ABLICA Y ADICCIONES
        Subject Public Key Info:
            Public Key Algorithm: id-ecPublicKey
                Public-Key: (256 bit)
                pub:
                    04:28:ca:64:7c:b9:5e:c5:26:40:c8:e9:77:16:34:
                    a8:9a:56:f8:3f:c3:ce:a5:06:fb:3d:8c:f5:6e:0f:
                    2e:71:af:92:fe:5f:e1:a4:f8:96:d1:4d:82:c7:98:
                    12:56:fa:1d:10:93:89:75:c6:cc:30:28:11:a0:61:
                    c7:77:00:fe:d5
                ASN1 OID: prime256v1
                NIST CURVE: P-256
        X509v3 extensions:
            X509v3 Subject Alternative Name: 
                DirName:/1.3.6.1.4.1.14777.0.6=S4833001C/1.3.6.1.4.1.14777.0.5=EUSKO JAURLARITZA - GOBIERNO VASCO
            X509v3 Key Usage: critical
                Digital Signature, Non Repudiation, Key Encipherment
            X509v3 Extended Key Usage: 
                TLS Web Client Authentication
            X509v3 Subject Key Identifier: 
                49:E6:A5:E0:C1:BA:BA:26:77:D8:68:71:28:F7:D4:04:91:E7:2A:00
            X509v3 Authority Key Identifier: 
                keyid:73:17:0F:0E:14:CF:8C:B5:D5:06:F7:A6:04:33:C3:19:7D:31:BE:ED

            X509v3 Certificate Policies: 
                Policy: 1.3.6.1.4.1.14777.200.1
                  CPS: http://www.izenpe.eus/cps
                  User Notice:
                    Explicit Text: Kontsulta www.izenpe.eus-en baldintzak eta kondizioak ziurtagirian fidatu edo erabili aurretik - Consulte en www.izenpe.eus los términos y condiciones antes de utilizar o confiar en el certificado

            X509v3 CRL Distribution Points: 

                Full Name:
                  URI:http://crldes.izenpe.com/cgi-bin/crlbcizenpe

    Signature Algorithm: ecdsa-with-SHA256
         30:44:02:20:6d:1d:b5:6b:a6:7b:0b:32:9b:66:44:8e:50:2f:
         82:61:38:6f:3a:a6:a4:81:55:05:e2:39:43:2c:22:4a:5c:3e:
         02:20:63:f9:e9:b2:bc:d1:31:c5:07:02:1e:cd:c2:fa:a1:9d:
         b8:16:be:fd:55:c1:b4:72:dd:bc:43:eb:ea:37:44:6c
-----BEGIN CERTIFICATE-----
MIIEEjCCA7mgAwIBAgIQA8IozyvkMlFgsO/sU+TnrzAKBggqhkjOPQQDAjBHMQsw
CQYDVQQGEwJFUzEUMBIGA1UECgwLSVpFTlBFIFMuQS4xDTALBgNVBAsMBFBlZXIx
EzARBgNVBAMMCmlDQSBJemVucGUwHhcNMjEwNTI4MTMyODEyWhcNMjQwNTI4MTMy
ODEyWjCBpDELMAkGA1UEBhMCRVMxKzApBgNVBAoMIkVVU0tPIEpBVVJMQVJJVFpB
IC0gR09CSUVSTk8gVkFTQ08xGjAYBgNVBAsMEVNFTExPIEVMRUNUUk9OSUNPMRgw
FgYDVQRhDA9WQVRFUy1TNDgzMzAwMUMxMjAwBgNVBAMMKURJUkVDQ0nDk04gREUg
U0FMVUQgUMOaQkxJQ0EgWSBBRElDQ0lPTkVTMFkwEwYHKoZIzj0CAQYIKoZIzj0D
AQcDQgAEKMpkfLlexSZAyOl3FjSomlb4P8POpQb7PYz1bg8uca+S/l/hpPiW0U2C
x5gSVvodEJOJdcbMMCgRoGHHdwD+1aOCAicwggIjMFoGA1UdEQRTMFGkTzBNMRgw
FgYJKwYBBAHzOQAGDAlTNDgzMzAwMUMxMTAvBgkrBgEEAfM5AAUMIkVVU0tPIEpB
VVJMQVJJVFpBIC0gR09CSUVSTk8gVkFTQ08wDgYDVR0PAQH/BAQDAgXgMBMGA1Ud
JQQMMAoGCCsGAQUFBwMCMB0GA1UdDgQWBBRJ5qXgwbq6JnfYaHEo99QEkecqADAf
BgNVHSMEGDAWgBRzFw8OFM+MtdUG96YEM8MZfTG+7TCCAR8GA1UdIASCARYwggES
MIIBDgYKKwYBBAHzOYFIATCB/zAlBggrBgEFBQcCARYZaHR0cDovL3d3dy5pemVu
cGUuZXVzL2NwczCB1QYIKwYBBQUHAgIwgcgMgcVLb250c3VsdGEgd3d3Lml6ZW5w
ZS5ldXMtZW4gYmFsZGludHphayBldGEga29uZGl6aW9hayB6aXVydGFnaXJpYW4g
ZmlkYXR1IGVkbyBlcmFiaWxpIGF1cnJldGlrIC0gQ29uc3VsdGUgZW4gd3d3Lml6
ZW5wZS5ldXMgbG9zIHTDqXJtaW5vcyB5IGNvbmRpY2lvbmVzIGFudGVzIGRlIHV0
aWxpemFyIG8gY29uZmlhciBlbiBlbCBjZXJ0aWZpY2FkbzA9BgNVHR8ENjA0MDKg
MKAuhixodHRwOi8vY3JsZGVzLml6ZW5wZS5jb20vY2dpLWJpbi9jcmxiY2l6ZW5w
ZTAKBggqhkjOPQQDAgNHADBEAiBtHbVrpnsLMptmRI5QL4JhOG86pqSBVQXiOUMs
IkpcPgIgY/npsrzRMcUHAh7NwvqhnbgWvv1VwbRy3bxD6+o3RGw=
-----END CERTIFICATE-----
