Certificate:
    Data:
        Version: 3 (0x2)
        Serial Number: 4404348436996622577 (0x3d1f6391763b08f1)
    Signature Algorithm: ecdsa-with-SHA256
        Issuer: C = HR, O = AKD d.o.o., CN = Croatia DGC CSCA
        Validity
            Not Before: May 20 13:17:46 2021 GMT
            Not After : May 20 13:17:45 2023 GMT
        Subject: C = HR, O = AKD d.o.o., CN = Croatia DGC DS 001
        Subject Public Key Info:
            Public Key Algorithm: id-ecPublicKey
                Public-Key: (256 bit)
                pub:
                    04:b7:98:70:0f:47:09:50:1e:53:79:02:00:68:4e:
                    e7:2e:37:9e:7f:4b:d5:e6:66:a6:47:7d:24:8c:4a:
                    c6:39:c4:5e:19:ed:fb:74:3a:e6:14:07:8e:a8:82:
                    da:8d:04:e2:05:7c:dc:9c:f6:8c:c5:65:1d:f5:22:
                    bd:65:17:b1:cd
                ASN1 OID: prime256v1
                NIST CURVE: P-256
        X509v3 extensions:
            X509v3 Authority Key Identifier: 
                keyid:31:2B:1C:A3:C8:80:65:E1:1F:BD:04:92:D0:25:3C:7C:86:8F:52:D1

            X509v3 Issuer Alternative Name: 
                email:Croatia.DGC@dgc.hr, DirName:/L=HRV
            X509v3 Subject Alternative Name: 
                email:Croatia.DGC@dgc.hr, DirName:/L=HRV
            X509v3 CRL Distribution Points: 

                Full Name:
                  URI:http://dgc1.dgc.hr/croatia-dgc-csca.crl

                Full Name:
                  URI:http://dgc2.dgc.hr/croatia-dgc-csca.crl

            X509v3 Subject Key Identifier: 
                1E:79:C8:B9:F3:F9:3D:D2:85:01:6C:DF:8E:66:C5:01:09:65:BE:D3
            X509v3 Private Key Usage Period: 
                Not Before: May 20 13:17:46 2021 GMT, Not After: Nov 16 13:17:46 2021 GMT
            X509v3 Key Usage: critical
                Digital Signature
    Signature Algorithm: ecdsa-with-SHA256
         30:45:02:20:0d:62:5a:8c:cc:2a:3b:3f:af:c5:6f:0c:52:f3:
         c3:02:07:8d:c2:20:18:1f:a4:90:e6:43:e0:f5:db:43:af:d2:
         02:21:00:b2:4d:41:b9:3c:1d:d1:e7:91:dd:f5:19:5f:3c:53:
         53:78:62:08:47:49:9b:25:2d:8f:1e:65:7f:30:49:84:7f
-----BEGIN CERTIFICATE-----
MIICwDCCAmagAwIBAgIIPR9jkXY7CPEwCgYIKoZIzj0EAwIwPTELMAkGA1UEBhMC
SFIxEzARBgNVBAoMCkFLRCBkLm8uby4xGTAXBgNVBAMMEENyb2F0aWEgREdDIENT
Q0EwHhcNMjEwNTIwMTMxNzQ2WhcNMjMwNTIwMTMxNzQ1WjA/MQswCQYDVQQGEwJI
UjETMBEGA1UECgwKQUtEIGQuby5vLjEbMBkGA1UEAwwSQ3JvYXRpYSBER0MgRFMg
MDAxMFkwEwYHKoZIzj0CAQYIKoZIzj0DAQcDQgAEt5hwD0cJUB5TeQIAaE7nLjee
f0vV5mamR30kjErGOcReGe37dDrmFAeOqILajQTiBXzcnPaMxWUd9SK9ZRexzaOC
AUwwggFIMB8GA1UdIwQYMBaAFDErHKPIgGXhH70EktAlPHyGj1LRMC8GA1UdEgQo
MCaBEkNyb2F0aWEuREdDQGRnYy5ocqQQMA4xDDAKBgNVBAcMA0hSVjAvBgNVHREE
KDAmgRJDcm9hdGlhLkRHQ0BkZ2MuaHKkEDAOMQwwCgYDVQQHDANIUlYwZwYDVR0f
BGAwXjAtoCugKYYnaHR0cDovL2RnYzEuZGdjLmhyL2Nyb2F0aWEtZGdjLWNzY2Eu
Y3JsMC2gK6AphidodHRwOi8vZGdjMi5kZ2MuaHIvY3JvYXRpYS1kZ2MtY3NjYS5j
cmwwHQYDVR0OBBYEFB55yLnz+T3ShQFs345mxQEJZb7TMCsGA1UdEAQkMCKADzIw
MjEwNTIwMTMxNzQ2WoEPMjAyMTExMTYxMzE3NDZaMA4GA1UdDwEB/wQEAwIHgDAK
BggqhkjOPQQDAgNIADBFAiANYlqMzCo7P6/FbwxS88MCB43CIBgfpJDmQ+D120Ov
0gIhALJNQbk8HdHnkd31GV88U1N4YghHSZslLY8eZX8wSYR/
-----END CERTIFICATE-----
