Certificate:
    Data:
        Version: 3 (0x2)
        Serial Number:
            76:fc:0f:80:81:b1:c6:4d:c6:78:b0:45:4a:4d:11:b8:a3:f5:36:71
    Signature Algorithm: sha256WithRSAEncryption
        Issuer: C = FR, O = Gouv, CN = CSCA-FRANCE
        Validity
            Not Before: Jul  1 22:00:00 2021 GMT
            Not After : Jul  1 22:00:00 2023 GMT
        Subject: C = FR, O = DGS, OU = 120036017, CN = DSC_FR_013
        Subject Public Key Info:
            Public Key Algorithm: id-ecPublicKey
                Public-Key: (256 bit)
                pub:
                    04:b0:d0:b1:01:48:ba:ee:f9:4b:10:16:86:22:a0:
                    24:db:9f:65:f9:d9:3a:fd:8c:3b:85:92:f8:24:5a:
                    93:e8:cf:e6:05:72:1c:ec:ff:a6:66:d2:bd:d3:72:
                    97:89:56:5e:95:ba:04:08:e3:a8:4c:6f:fe:da:75:
                    44:16:16:99:b8
                ASN1 OID: prime256v1
                NIST CURVE: P-256
        X509v3 extensions:
            X509v3 Subject Key Identifier: 
                2B:FB:3F:96:68:40:7E:F6:4A:D5:1C:AE:5F:13:08:84:9E:E8:4E:6E
            X509v3 Authority Key Identifier: 
                keyid:BE:8A:2E:D6:C9:F9:20:4E:3A:27:03:08:97:4D:EC:FD:D9:7D:C5:E6

            X509v3 Basic Constraints: critical
                CA:FALSE
            X509v3 Key Usage: critical
                Digital Signature
            X509v3 CRL Distribution Points: 

                Full Name:
                  URI:http://ants.gouv.fr/csca_crl

            X509v3 Certificate Policies: 
                Policy: 1.2.250.1.200.31.3.9.1.1

            Authority Information Access: 
                CA Issuers - URI:https://ant.gouv.fr/csca

    Signature Algorithm: sha256WithRSAEncryption
         b0:a3:24:8d:42:08:6f:17:74:12:bb:fe:91:b4:78:35:5c:35:
         7f:e1:e3:45:14:fc:25:fa:a9:99:9f:50:1f:38:31:c0:7d:54:
         b8:da:18:ec:98:c2:de:0c:e2:ef:d0:95:20:dd:77:71:f1:d7:
         9b:b6:cf:fc:fe:58:f2:b3:55:cc:cb:5b:4e:0c:1f:72:d3:a6:
         6b:43:55:f5:1b:1b:6e:b4:2e:1c:49:a7:01:61:6b:32:d3:aa:
         b2:23:fb:e7:d5:0e:af:c0:a9:0d:1c:00:cd:24:fd:86:37:14:
         14:96:89:64:5e:47:60:4b:ba:be:da:d5:82:c5:c2:bc:95:01:
         38:b7:64:eb:ac:d5:22:e5:43:7c:b6:56:a0:2e:46:ee:19:8a:
         a7:cc:79:c6:75:9f:00:37:a3:6c:90:18:6a:f2:3d:26:70:31:
         f1:85:9d:f6:c8:18:3f:f9:99:8b:19:d9:c2:a9:1b:99:f5:f8:
         eb:1f:a0:77:93:f9:fb:7c:78:43:1b:95:0f:9e:4f:a6:f8:b4:
         5e:09:13:7d:66:e7:78:94:6c:cb:9f:71:d2:4b:57:6a:07:95:
         77:93:79:6c:b3:39:90:28:48:bd:85:a1:65:8f:12:26:71:4d:
         9a:27:e2:11:7a:93:ba:4f:f9:17:87:e6:e7:e5:e8:ba:e2:c1:
         2b:a3:77:da:77:bd:1e:00:e8:3d:0b:88:64:0f:79:2b:b0:73:
         29:61:d3:37:4c:11:7b:d3:87:5a:84:f6:ee:ba:c4:45:a8:30:
         83:f5:7a:cb:a5:83:f8:7b:a5:03:f8:47:63:3a:0f:da:a8:6e:
         22:e4:31:1d:93:d7:05:26:db:fe:e6:0a:7c:13:1b:6a:51:79:
         08:93:9e:a3:8e:64:a1:40:5c:1f:36:00:39:49:66:ba:94:55:
         a7:89:00:98:3f:16:fd:ef:c0:4c:22:a3:9a:98:e2:ff:e8:1c:
         27:c9:a6:b3:41:61:66:d9:0c:a5:e0:0c:e5:5a:8b:75:0a:b3:
         ad:de:bf:9a:2b:f8:b4:9b:59:c4:d3:6f:1d:8e:ed:b1:6b:70:
         53:28:4b:31:8c:20:17:27:b7:8e:95:d5:e4:7b:30:4f:15:51:
         a9:7e:b7:56:b2:ca:a7:6f:36:96:55:7b:55:21:f6:7f:08:d3:
         26:12:4f:7f:72:a8:12:f8:0e:a5:ad:99:42:e4:e8:36:f3:38:
         91:ae:44:1a:b6:72:f6:48:86:c1:5e:67:09:ef:6f:47:d5:21:
         d1:7c:05:4a:bb:ec:97:0f:31:d5:d9:f7:30:72:81:41:81:95:
         1f:d6:0f:c8:4b:f2:26:cd:4e:00:e2:c2:48:99:f0:c0:bd:a1:
         58:de:67:10:b2:57:26:e1
-----BEGIN CERTIFICATE-----
MIIEGjCCAgKgAwIBAgIUdvwPgIGxxk3GeLBFSk0RuKP1NnEwDQYJKoZIhvcNAQEL
BQAwMjELMAkGA1UEBhMCRlIxDTALBgNVBAoMBEdvdXYxFDASBgNVBAMMC0NTQ0Et
RlJBTkNFMB4XDTIxMDcwMTIyMDAwMFoXDTIzMDcwMTIyMDAwMFowRDELMAkGA1UE
BhMCRlIxDDAKBgNVBAoMA0RHUzESMBAGA1UECwwJMTIwMDM2MDE3MRMwEQYDVQQD
DApEU0NfRlJfMDEzMFkwEwYHKoZIzj0CAQYIKoZIzj0DAQcDQgAEsNCxAUi67vlL
EBaGIqAk259l+dk6/Yw7hZL4JFqT6M/mBXIc7P+mZtK903KXiVZelboECOOoTG/+
2nVEFhaZuKOB4DCB3TAdBgNVHQ4EFgQUK/s/lmhAfvZK1RyuXxMIhJ7oTm4wHwYD
VR0jBBgwFoAUvoou1sn5IE46JwMIl03s/dl9xeYwDAYDVR0TAQH/BAIwADAOBgNV
HQ8BAf8EBAMCB4AwLQYDVR0fBCYwJDAioCCgHoYcaHR0cDovL2FudHMuZ291di5m
ci9jc2NhX2NybDAYBgNVHSAEETAPMA0GCyqBegGBSB8DCQEBMDQGCCsGAQUFBwEB
BCgwJjAkBggrBgEFBQcwAoYYaHR0cHM6Ly9hbnQuZ291di5mci9jc2NhMA0GCSqG
SIb3DQEBCwUAA4ICAQCwoySNQghvF3QSu/6RtHg1XDV/4eNFFPwl+qmZn1AfODHA
fVS42hjsmMLeDOLv0JUg3Xdx8debts/8/ljys1XMy1tODB9y06ZrQ1X1GxtutC4c
SacBYWsy06qyI/vn1Q6vwKkNHADNJP2GNxQUlolkXkdgS7q+2tWCxcK8lQE4t2Tr
rNUi5UN8tlagLkbuGYqnzHnGdZ8AN6NskBhq8j0mcDHxhZ32yBg/+ZmLGdnCqRuZ
9fjrH6B3k/n7fHhDG5UPnk+m+LReCRN9Zud4lGzLn3HSS1dqB5V3k3lsszmQKEi9
haFljxImcU2aJ+IRepO6T/kXh+bn5ei64sEro3fad70eAOg9C4hkD3krsHMpYdM3
TBF704dahPbuusRFqDCD9XrLpYP4e6UD+EdjOg/aqG4i5DEdk9cFJtv+5gp8Extq
UXkIk56jjmShQFwfNgA5SWa6lFWniQCYPxb978BMIqOamOL/6BwnyaazQWFm2Qyl
4AzlWot1CrOt3r+aK/i0m1nE028dju2xa3BTKEsxjCAXJ7eOldXkezBPFVGpfrdW
ssqnbzaWVXtVIfZ/CNMmEk9/cqgS+A6lrZlC5Og28ziRrkQatnL2SIbBXmcJ729H
1SHRfAVKu+yXDzHV2fcwcoFBgZUf1g/IS/ImzU4A4sJImfDAvaFY3mcQslcm4Q==
-----END CERTIFICATE-----
