Certificate:
    Data:
        Version: 3 (0x2)
        Serial Number:
            69:a6:4d:66:88:92:ee:ea:78:91:c2:af:a2:0a:f3:5b:c8:b0:5d:b2
    Signature Algorithm: sha256WithRSAEncryption
        Issuer: C = FR, O = Gouv, CN = CSCA-FRANCE
        Validity
            Not Before: Sep 10 22:00:00 2021 GMT
            Not After : Sep 10 22:00:00 2023 GMT
        Subject: C = FR, O = APHP, OU = 26750045200011, CN = DSC_FR_003
        Subject Public Key Info:
            Public Key Algorithm: id-ecPublicKey
                Public-Key: (256 bit)
                pub:
                    04:62:16:f3:a4:65:30:59:9b:2e:08:40:3c:d6:80:
                    32:7c:ff:3b:9f:93:f0:6a:12:7d:f5:0e:cc:ee:df:
                    00:c8:d9:fb:41:5b:f7:d2:65:fe:19:44:cd:dd:a5:
                    9b:f7:5f:74:dd:4b:e3:7f:04:65:08:94:22:0b:ba:
                    4b:72:18:e4:cc
                ASN1 OID: prime256v1
                NIST CURVE: P-256
        X509v3 extensions:
            X509v3 Subject Key Identifier: 
                3D:04:2E:1B:CC:FA:9C:C7:EB:78:64:89:3B:3F:0C:76:82:0C:BC:56
            X509v3 Authority Key Identifier: 
                keyid:BE:8A:2E:D6:C9:F9:20:4E:3A:27:03:08:97:4D:EC:FD:D9:7D:C5:E6

            X509v3 Basic Constraints: critical
                CA:FALSE
            X509v3 Key Usage: critical
                Digital Signature
            X509v3 CRL Distribution Points: 

                Full Name:
                  URI:http://ants.gouv.fr/csca_crl

            X509v3 Certificate Policies: 
                Policy: 1.2.250.1.200.31.3.9.1.1

            Authority Information Access: 
                CA Issuers - URI:https://ant.gouv.fr/csca

    Signature Algorithm: sha256WithRSAEncryption
         9e:f0:8d:70:57:c7:e8:66:41:c1:a7:a3:0c:e5:06:c7:14:db:
         ad:fa:04:38:e6:74:e3:64:43:95:17:6c:33:01:9c:f8:c5:ae:
         3c:2a:78:65:f4:ae:89:75:e0:50:85:e7:50:07:3c:77:8c:a5:
         84:a6:5f:40:e3:27:0f:6f:00:b0:4b:bf:87:96:90:f3:0b:6d:
         d9:69:eb:00:18:f8:51:f9:50:04:c9:83:14:10:7f:0e:35:bb:
         23:28:80:3e:ae:0f:f8:38:82:79:6f:23:d8:c6:76:64:76:b4:
         8d:1f:e3:50:cc:49:fc:3d:be:59:01:6f:03:41:77:89:80:9f:
         f1:dd:68:3e:3a:07:74:88:cf:32:35:dd:6c:30:c4:22:3b:6d:
         02:e1:e0:51:68:eb:49:66:7a:fc:5b:7c:4b:45:86:83:e6:cc:
         55:1d:25:91:92:40:95:10:b4:17:01:57:2e:82:68:8b:ea:ef:
         4c:47:82:a0:c5:5e:6a:5a:a8:ba:e8:6a:87:23:8c:df:6d:ed:
         47:f8:44:3a:ed:b9:c7:d7:b6:19:fb:27:b4:af:e1:51:8b:b6:
         9a:71:7c:bb:5e:d9:34:f3:34:02:aa:10:c5:69:90:eb:d8:7e:
         f0:4e:3e:4d:24:8b:92:9d:97:3c:de:00:32:57:e0:b8:43:1a:
         e4:60:86:d5:a8:f5:49:f9:b7:9a:d9:11:af:5d:8a:dc:c8:7f:
         4b:ad:97:4f:0c:9a:b2:95:c2:8e:a1:1a:6f:48:9a:02:a3:22:
         78:d3:3b:b8:07:5b:62:96:e7:53:d8:77:53:c0:de:70:8d:52:
         e6:02:f2:5f:3d:3f:99:2a:75:57:3a:0c:1a:6e:6f:fd:e5:7b:
         3f:63:c7:ce:71:f6:91:cc:7e:38:a7:88:f7:7b:ae:6e:67:85:
         35:9f:f8:14:9f:26:bd:89:a8:8d:a4:1a:98:ab:47:3c:73:33:
         aa:b9:19:b5:08:95:5f:fe:c8:51:92:a9:90:4f:0e:e9:f0:16:
         8c:ca:06:2c:d9:5a:d2:e7:6d:4b:6e:21:1e:64:02:e9:1b:eb:
         1d:a1:55:10:7c:c4:4d:f0:88:b6:f9:1a:c9:56:ef:80:59:47:
         73:f7:7f:ae:f7:c4:d1:0e:87:53:44:a7:c2:20:9a:b8:fe:b0:
         e8:f7:27:a9:88:a4:a0:52:36:b1:be:f8:03:b3:34:0b:72:a1:
         c1:17:31:c1:f5:8f:c6:bf:e9:7c:61:0c:c8:28:af:59:c4:55:
         44:8c:40:d7:fb:e8:5e:14:f6:02:ec:2f:8b:41:3a:19:72:7f:
         42:29:90:02:e8:cd:c3:ee:b4:41:11:9d:62:6c:ca:55:c8:45:
         b8:61:7b:bd:b6:ef:11:7c
-----BEGIN CERTIFICATE-----
MIIEIDCCAgigAwIBAgIUaaZNZoiS7up4kcKvogrzW8iwXbIwDQYJKoZIhvcNAQEL
BQAwMjELMAkGA1UEBhMCRlIxDTALBgNVBAoMBEdvdXYxFDASBgNVBAMMC0NTQ0Et
RlJBTkNFMB4XDTIxMDkxMDIyMDAwMFoXDTIzMDkxMDIyMDAwMFowSjELMAkGA1UE
BhMCRlIxDTALBgNVBAoMBEFQSFAxFzAVBgNVBAsMDjI2NzUwMDQ1MjAwMDExMRMw
EQYDVQQDDApEU0NfRlJfMDAzMFkwEwYHKoZIzj0CAQYIKoZIzj0DAQcDQgAEYhbz
pGUwWZsuCEA81oAyfP87n5PwahJ99Q7M7t8AyNn7QVv30mX+GUTN3aWb91903Uvj
fwRlCJQiC7pLchjkzKOB4DCB3TAdBgNVHQ4EFgQUPQQuG8z6nMfreGSJOz8MdoIM
vFYwHwYDVR0jBBgwFoAUvoou1sn5IE46JwMIl03s/dl9xeYwDAYDVR0TAQH/BAIw
ADAOBgNVHQ8BAf8EBAMCB4AwLQYDVR0fBCYwJDAioCCgHoYcaHR0cDovL2FudHMu
Z291di5mci9jc2NhX2NybDAYBgNVHSAEETAPMA0GCyqBegGBSB8DCQEBMDQGCCsG
AQUFBwEBBCgwJjAkBggrBgEFBQcwAoYYaHR0cHM6Ly9hbnQuZ291di5mci9jc2Nh
MA0GCSqGSIb3DQEBCwUAA4ICAQCe8I1wV8foZkHBp6MM5QbHFNut+gQ45nTjZEOV
F2wzAZz4xa48Knhl9K6JdeBQhedQBzx3jKWEpl9A4ycPbwCwS7+HlpDzC23ZaesA
GPhR+VAEyYMUEH8ONbsjKIA+rg/4OIJ5byPYxnZkdrSNH+NQzEn8Pb5ZAW8DQXeJ
gJ/x3Wg+Ogd0iM8yNd1sMMQiO20C4eBRaOtJZnr8W3xLRYaD5sxVHSWRkkCVELQX
AVcugmiL6u9MR4KgxV5qWqi66GqHI4zfbe1H+EQ67bnH17YZ+ye0r+FRi7aacXy7
Xtk08zQCqhDFaZDr2H7wTj5NJIuSnZc83gAyV+C4QxrkYIbVqPVJ+bea2RGvXYrc
yH9LrZdPDJqylcKOoRpvSJoCoyJ40zu4B1tiludT2HdTwN5wjVLmAvJfPT+ZKnVX
Ogwabm/95Xs/Y8fOcfaRzH44p4j3e65uZ4U1n/gUnya9iaiNpBqYq0c8czOquRm1
CJVf/shRkqmQTw7p8BaMygYs2VrS521LbiEeZALpG+sdoVUQfMRN8Ii2+RrJVu+A
WUdz93+u98TRDodTRKfCIJq4/rDo9yepiKSgUjaxvvgDszQLcqHBFzHB9Y/Gv+l8
YQzIKK9ZxFVEjEDX++heFPYC7C+LQToZcn9CKZAC6M3D7rRBEZ1ibMpVyEW4YXu9
tu8RfA==
-----END CERTIFICATE-----
