Certificate:
    Data:
        Version: 3 (0x2)
        Serial Number:
            7d:dd:10:f5:90:9b:58:87:7f:a1:e8:2d:6f:89:b7:63
    Signature Algorithm: rsassaPss
         Hash Algorithm: sha512
         Mask Algorithm: mgf1 with sha512
         Salt Length: 0x40
         Trailer Field: 0xBC (default)
        Issuer: C = DE, O = D-Trust GmbH, CN = D-TRUST CA 2-2 2019, 2.5.4.97 = NTRDE-HRB74346
        Validity
            Not Before: Jun  3 10:43:55 2021 GMT
            Not After : Jun  7 10:43:55 2023 GMT
        Subject: C = DE, O = Robert Koch-Institut, OU = Elektronischer Impfnachweis, CN = Robert Koch-Institut, L = Berlin, postalCode = 13353, street = Nordufer 20, 2.5.4.97 = DT:DE-3023531445, serialNumber = CSM026382843, ST = Berlin
        Subject Public Key Info:
            Public Key Algorithm: id-ecPublicKey
                Public-Key: (256 bit)
                pub:
                    04:50:24:8f:40:e8:38:84:88:04:27:30:f6:3c:71:
                    63:71:c9:d0:cd:24:08:bd:8b:3e:81:b0:6e:26:a1:
                    f1:bf:bb:42:00:4a:72:12:3e:57:21:f8:e3:7c:c8:
                    cd:c4:0f:ac:a3:e0:1d:67:21:1f:c2:cc:e1:2a:bd:
                    80:d7:f9:d5:49
                ASN1 OID: prime256v1
                NIST CURVE: P-256
        X509v3 extensions:
            X509v3 Authority Key Identifier: 
                keyid:71:10:32:AE:74:71:7B:54:8E:F1:D6:AB:62:54:AE:FC:3E:C0:BB:16

            qcStatements: 
                0.0......F..0......F..0......F...
            Authority Information Access: 
                OCSP - URI:http://d-trust-ca-2-2-2019.ocsp.d-trust.net
                CA Issuers - URI:http://www.d-trust.net/cgi-bin/D-TRUST_CA_2-2_2019.crt
                CA Issuers - URI:ldap://directory.d-trust.net/CN=D-TRUST%20CA%202-2%202019,O=D-Trust%20GmbH,C=DE?cACertificate?base?

            X509v3 Certificate Policies: 
                Policy: 0.4.0.194112.1.1
                Policy: 1.3.6.1.4.1.4788.2.150.5
                  CPS: http://www.d-trust.net/internet/files/D-TRUST_CSM_PKI_CPS.pdf

            X509v3 CRL Distribution Points: 

                Full Name:
                  URI:ldap://directory.d-trust.net/CN=D-TRUST%20CA%202-2%202019,O=D-Trust%20GmbH,C=DE?certificaterevocationlist
                  URI:http://crl.d-trust.net/crl/d-trust_ca_2-2_2019.crl
                  URI:http://cdn.d-trust-cloudcrl.net/crl/d-trust_ca_2-2_2019.crl

            X509v3 Subject Key Identifier: 
                5F:17:33:C1:47:82:71:A4:AA:DC:C7:8B:66:1B:88:45:DF:ED:B2:12
            X509v3 Key Usage: critical
                Digital Signature, Non Repudiation
    Signature Algorithm: rsassaPss
         Hash Algorithm: sha512
         Mask Algorithm: mgf1 with sha512
         Salt Length: 0x40
         Trailer Field: 0xBC (default)

         29:7b:77:c0:ca:84:2b:85:de:ea:5f:b2:44:8e:7b:42:82:e2:
         80:65:90:c7:00:e8:f7:74:6e:f8:99:8c:0d:8c:ef:7b:5c:0f:
         2c:74:4f:88:7c:f8:f0:39:f2:9f:57:a8:cd:31:60:df:58:b6:
         46:47:b0:8a:f3:3b:57:f4:ca:3d:23:ca:d2:26:63:82:93:61:
         06:34:26:bc:d0:7b:d6:db:97:2c:1d:4f:a4:98:16:31:ca:5e:
         70:cb:6f:8b:93:00:33:a7:d3:50:80:42:b2:96:05:c2:2d:96:
         42:4f:28:ce:dc:80:f6:ac:a6:1a:4c:37:cb:96:c6:cd:26:0a:
         95:8d:9b:5f:bf:eb:0c:2a:59:f5:5f:a5:b0:ad:d4:a4:0b:b6:
         12:5b:87:5f:21:b0:56:05:04:69:b1:cc:54:35:c0:a6:43:b2:
         ab:df:b6:1d:52:b0:73:91:ba:4b:b4:86:ba:d5:cf:1a:82:d0:
         d1:60:bb:77:34:41:f8:be:ec:b5:a0:dc:84:f3:90:98:ac:e4:
         c5:2b:1d:54:dd:a6:7a:3e:94:77:db:f5:58:83:62:12:6f:f1:
         1a:82:48:eb:37:76:ac:4d:17:b9:ab:ba:e9:80:38:fa:a7:de:
         0e:fc:27:62:c8:41:c9:0b:75:81:5f:98:af:0a:7c:71:0c:86:
         88:fe:ad:cc:3a:60:0a:0a:f1:8d:4c:10:1d:12:27:5a:2e:0c:
         4d:de:42:77:c1:92:2d:5f:dd:c1:d3:9e:7b:7e:3b:e6:ec:07:
         cd:21:b5:6d:aa:65:46:57:e9:44:ae:fa:c2:8c:63:a7:eb:2d:
         e3:84:cb:66:b4:03:b6:0a:de:a5:a1:83:f6:7f:5e:95:04:4f:
         48:c0:58:5c:c8:02:b0:33:f5:6f:98:6b:6b:7c:66:51:32:d1:
         2a:82:f6:7b:3f:e2:b3:60:aa:c8:d0:21:90:4a:a8:5d:10:b6:
         a4:b3:18:36:0c:a3:d1:25:be:33:7c:3b:f5:99:bf:d6:e6:c4:
         a6:e3:d8:55:aa:13:de:9d:a2:a4:ae:d0:e0:2e:e8:f0:1b:bf:
         96:b1:59:e9:12:8b:54:15:9e:38:13:21:26:21:ff:8c:02:9d:
         4d:fc:4d:f5:16:20:be:c1:49:a0:88:96:5f:82:55:fb:82:d4:
         28:60:93:4a:9e:cb:60:5d:82:e6:52:77:79:6b:d0:9d:29:a2:
         a6:c2:be:b7:e7:c6:da:d5:3e:7e:cb:41:fe:2b:1b:fd:3c:be:
         ac:7d:f6:a4:77:ec:fb:5e:73:08:71:0b:fd:a2:82:f1:65:02:
         8c:ea:34:19:4f:46:0b:81:90:cc:de:4c:aa:b2:c9:57:c7:8e:
         5f:01:77:9d:95:da:e7:be
-----BEGIN CERTIFICATE-----
MIIHUTCCBQmgAwIBAgIQfd0Q9ZCbWId/oegtb4m3YzA9BgkqhkiG9w0BAQowMKAN
MAsGCWCGSAFlAwQCA6EaMBgGCSqGSIb3DQEBCDALBglghkgBZQMEAgOiAwIBQDBb
MQswCQYDVQQGEwJERTEVMBMGA1UEChMMRC1UcnVzdCBHbWJIMRwwGgYDVQQDExNE
LVRSVVNUIENBIDItMiAyMDE5MRcwFQYDVQRhEw5OVFJERS1IUkI3NDM0NjAeFw0y
MTA2MDMxMDQzNTVaFw0yMzA2MDcxMDQzNTVaMIHrMQswCQYDVQQGEwJERTEdMBsG
A1UEChMUUm9iZXJ0IEtvY2gtSW5zdGl0dXQxJDAiBgNVBAsTG0VsZWt0cm9uaXNj
aGVyIEltcGZuYWNod2VpczEdMBsGA1UEAxMUUm9iZXJ0IEtvY2gtSW5zdGl0dXQx
DzANBgNVBAcTBkJlcmxpbjEOMAwGA1UEEQwFMTMzNTMxFDASBgNVBAkTC05vcmR1
ZmVyIDIwMRkwFwYDVQRhExBEVDpERS0zMDIzNTMxNDQ1MRUwEwYDVQQFEwxDU00w
MjYzODI4NDMxDzANBgNVBAgTBkJlcmxpbjBZMBMGByqGSM49AgEGCCqGSM49AwEH
A0IABFAkj0DoOISIBCcw9jxxY3HJ0M0kCL2LPoGwbiah8b+7QgBKchI+VyH443zI
zcQPrKPgHWchH8LM4Sq9gNf51UmjggLpMIIC5TAfBgNVHSMEGDAWgBRxEDKudHF7
VI7x1qtiVK78PsC7FjAtBggrBgEFBQcBAwQhMB8wCAYGBACORgEBMBMGBgQAjkYB
BjAJBgcEAI5GAQYCMIH+BggrBgEFBQcBAQSB8TCB7jA3BggrBgEFBQcwAYYraHR0
cDovL2QtdHJ1c3QtY2EtMi0yLTIwMTkub2NzcC5kLXRydXN0Lm5ldDBCBggrBgEF
BQcwAoY2aHR0cDovL3d3dy5kLXRydXN0Lm5ldC9jZ2ktYmluL0QtVFJVU1RfQ0Ff
Mi0yXzIwMTkuY3J0MG8GCCsGAQUFBzAChmNsZGFwOi8vZGlyZWN0b3J5LmQtdHJ1
c3QubmV0L0NOPUQtVFJVU1QlMjBDQSUyMDItMiUyMDIwMTksTz1ELVRydXN0JTIw
R21iSCxDPURFP2NBQ2VydGlmaWNhdGU/YmFzZT8wcAYDVR0gBGkwZzAJBgcEAIvs
QAEBMFoGCysGAQQBpTQCgRYFMEswSQYIKwYBBQUHAgEWPWh0dHA6Ly93d3cuZC10
cnVzdC5uZXQvaW50ZXJuZXQvZmlsZXMvRC1UUlVTVF9DU01fUEtJX0NQUy5wZGYw
gfAGA1UdHwSB6DCB5TCB4qCB36CB3IZpbGRhcDovL2RpcmVjdG9yeS5kLXRydXN0
Lm5ldC9DTj1ELVRSVVNUJTIwQ0ElMjAyLTIlMjAyMDE5LE89RC1UcnVzdCUyMEdt
YkgsQz1ERT9jZXJ0aWZpY2F0ZXJldm9jYXRpb25saXN0hjJodHRwOi8vY3JsLmQt
dHJ1c3QubmV0L2NybC9kLXRydXN0X2NhXzItMl8yMDE5LmNybIY7aHR0cDovL2Nk
bi5kLXRydXN0LWNsb3VkY3JsLm5ldC9jcmwvZC10cnVzdF9jYV8yLTJfMjAxOS5j
cmwwHQYDVR0OBBYEFF8XM8FHgnGkqtzHi2YbiEXf7bISMA4GA1UdDwEB/wQEAwIG
wDA9BgkqhkiG9w0BAQowMKANMAsGCWCGSAFlAwQCA6EaMBgGCSqGSIb3DQEBCDAL
BglghkgBZQMEAgOiAwIBQAOCAgEAKXt3wMqEK4Xe6l+yRI57QoLigGWQxwDo93Ru
+JmMDYzve1wPLHRPiHz48Dnyn1eozTFg31i2RkewivM7V/TKPSPK0iZjgpNhBjQm
vNB71tuXLB1PpJgWMcpecMtvi5MAM6fTUIBCspYFwi2WQk8oztyA9qymGkw3y5bG
zSYKlY2bX7/rDCpZ9V+lsK3UpAu2EluHXyGwVgUEabHMVDXApkOyq9+2HVKwc5G6
S7SGutXPGoLQ0WC7dzRB+L7staDchPOQmKzkxSsdVN2mej6Ud9v1WINiEm/xGoJI
6zd2rE0Xuau66YA4+qfeDvwnYshByQt1gV+Yrwp8cQyGiP6tzDpgCgrxjUwQHRIn
Wi4MTd5Cd8GSLV/dwdOee3475uwHzSG1baplRlfpRK76woxjp+st44TLZrQDtgre
paGD9n9elQRPSMBYXMgCsDP1b5hra3xmUTLRKoL2ez/is2CqyNAhkEqoXRC2pLMY
Ngyj0SW+M3w79Zm/1ubEpuPYVaoT3p2ipK7Q4C7o8Bu/lrFZ6RKLVBWeOBMhJiH/
jAKdTfxN9RYgvsFJoIiWX4JV+4LUKGCTSp7LYF2C5lJ3eWvQnSmipsK+t+fG2tU+
fstB/isb/Ty+rH32pHfs+15zCHEL/aKC8WUCjOo0GU9GC4GQzN5MqrLJV8eOXwF3
nZXa574=
-----END CERTIFICATE-----
