Certificate:
    Data:
        Version: 3 (0x2)
        Serial Number:
            53:42:6b:45:40:55:2f:c0:c4:5b:5c:f4:8f:1f:3f:f8:a0:02:84:b2
    Signature Algorithm: ecdsa-with-SHA256
        Issuer: CN = CSCA Health NL, serialNumber = 1, OU = Ministry of Health Welfare and Sport, O = Kingdom of the Netherlands, C = NL
        Validity
            Not Before: May 31 14:27:32 2021 GMT
            Not After : May 28 14:27:32 2032 GMT
        Subject: C = NL, O = Kingdom of the Netherlands, OU = Ministry of Health Welfare and Sport, serialNumber = 1, CN = Health DSC for vaccinations
        Subject Public Key Info:
            Public Key Algorithm: id-ecPublicKey
                Public-Key: (256 bit)
                pub:
                    04:fc:30:67:84:18:53:7f:c4:e4:7e:c4:e7:e2:d2:
                    c4:6f:79:90:2c:2b:0e:36:46:5b:63:82:39:8b:4c:
                    e1:d1:68:6c:0e:ea:43:b2:11:a7:bb:84:c4:e0:08:
                    07:e9:8f:ee:06:7b:09:f8:3e:90:91:50:22:93:36:
                    bf:ae:dc:3c:f7
                ASN1 OID: prime256v1
                NIST CURVE: P-256
        X509v3 extensions:
            2.23.136.1.1.6.2: 
                0....1...H
            X509v3 Authority Key Identifier: 
                keyid:22:4D:F8:C3:8D:29:73:53:83:77:86:9A:F7:52:C1:1A:EC:A1:A1:1F

            X509v3 Issuer Alternative Name: 
                DirName:/L=NLD
            X509v3 Subject Alternative Name: 
                DirName:/L=NLD
            X509v3 Extended Key Usage: 
                1.3.6.1.4.1.0.1847.2021.1.2
            X509v3 CRL Distribution Points: 

                Full Name:
                  URI:http://crl.npkd.nl/CRLs/NL-Health.crl

            X509v3 Subject Key Identifier: 
                55:60:98:19:59:FC:B3:93:72:49:C0:1D:07:55:DA:26:EC:FE:C0:C4
            X509v3 Private Key Usage Period: 
                Not Before: May 31 14:27:32 2021 GMT, Not After: Dec 27 14:27:32 2021 GMT
            X509v3 Key Usage: critical
                Digital Signature
    Signature Algorithm: ecdsa-with-SHA256
         30:45:02:21:00:c3:05:90:8b:9c:b5:2a:ac:65:b5:41:bc:4e:
         7a:60:46:68:c6:b1:7a:9b:59:fe:17:f2:1a:8c:57:4d:b1:1c:
         9e:02:20:02:ef:b4:3a:7b:a2:0e:b0:39:0f:c2:af:da:8c:f0:
         39:be:c9:73:78:51:13:c1:ca:8d:a1:db:1f:01:c2:49:12
-----BEGIN CERTIFICATE-----
MIIDQjCCAuigAwIBAgIUU0JrRUBVL8DEW1z0jx8/+KAChLIwCgYIKoZIzj0EAwIw
gYYxFzAVBgNVBAMMDkNTQ0EgSGVhbHRoIE5MMQowCAYDVQQFEwExMS0wKwYDVQQL
DCRNaW5pc3RyeSBvZiBIZWFsdGggV2VsZmFyZSBhbmQgU3BvcnQxIzAhBgNVBAoM
Gktpbmdkb20gb2YgdGhlIE5ldGhlcmxhbmRzMQswCQYDVQQGEwJOTDAeFw0yMTA1
MzExNDI3MzJaFw0zMjA1MjgxNDI3MzJaMIGTMQswCQYDVQQGEwJOTDEjMCEGA1UE
CgwaS2luZ2RvbSBvZiB0aGUgTmV0aGVybGFuZHMxLTArBgNVBAsMJE1pbmlzdHJ5
IG9mIEhlYWx0aCBXZWxmYXJlIGFuZCBTcG9ydDEKMAgGA1UEBRMBMTEkMCIGA1UE
AwwbSGVhbHRoIERTQyBmb3IgdmFjY2luYXRpb25zMFkwEwYHKoZIzj0CAQYIKoZI
zj0DAQcDQgAE/DBnhBhTf8TkfsTn4tLEb3mQLCsONkZbY4I5i0zh0WhsDupDshGn
u4TE4AgH6Y/uBnsJ+D6QkVAikza/rtw896OCASMwggEfMBUGB2eBCAEBBgIECjAI
AgEAMQMTAUgwHwYDVR0jBBgwFoAUIk34w40pc1ODd4aa91LBGuyhoR8wGwYDVR0S
BBQwEqQQMA4xDDAKBgNVBAcMA05MRDAbBgNVHREEFDASpBAwDjEMMAoGA1UEBwwD
TkxEMBcGA1UdJQQQMA4GDCsGAQQBAI43j2UBAjA2BgNVHR8ELzAtMCugKaAnhiVo
dHRwOi8vY3JsLm5wa2QubmwvQ1JMcy9OTC1IZWFsdGguY3JsMB0GA1UdDgQWBBRV
YJgZWfyzk3JJwB0HVdom7P7AxDArBgNVHRAEJDAigA8yMDIxMDUzMTE0MjczMlqB
DzIwMjExMjI3MTQyNzMyWjAOBgNVHQ8BAf8EBAMCB4AwCgYIKoZIzj0EAwIDSAAw
RQIhAMMFkIuctSqsZbVBvE56YEZoxrF6m1n+F/IajFdNsRyeAiAC77Q6e6IOsDkP
wq/ajPA5vslzeFETwcqNodsfAcJJEg==
-----END CERTIFICATE-----
