Certificate:
    Data:
        Version: 3 (0x2)
        Serial Number: 6773132352682331480 (0x5dfefffd3a560d58)
    Signature Algorithm: ecdsa-with-SHA256
        Issuer: C = BE, O = eHealth - Belgium, CN = Belgium Covid19 Country Signing CA 01
        Validity
            Not Before: May 27 10:12:47 2021 GMT
            Not After : May 27 10:12:47 2023 GMT
        Subject: C = BE, O = eHealth - Belgium, CN = Belgium Covid19 DSC 01
        Subject Public Key Info:
            Public Key Algorithm: id-ecPublicKey
                Public-Key: (256 bit)
                pub:
                    04:53:f7:ff:2a:c9:8f:dc:d6:ac:53:f8:d9:a3:b6:
                    ae:95:3a:dd:f4:61:e8:ce:77:e7:c1:6b:d7:f3:19:
                    87:b4:ae:3d:12:8a:1b:30:01:bb:2e:15:e7:a4:b4:
                    3e:69:1c:26:9a:74:8c:70:85:b2:f3:03:f1:33:c4:
                    03:30:15:2d:c8
                ASN1 OID: prime256v1
                NIST CURVE: P-256
        X509v3 extensions:
            X509v3 Subject Key Identifier: 
                AF:F0:23:4A:CE:47:28:9B:17:41:5A:FA:D7:B6:7A:38:ED:99:F6:1F
            X509v3 Authority Key Identifier: 
                keyid:31:CE:28:26:B7:DB:CB:91:64:F5:E2:D9:48:CB:AD:A5:68:6F:5F:D5

            X509v3 CRL Distribution Points: 

                Full Name:
                  URI:http://cert-app.be/revokedList/dgc_csca01.crl

            X509v3 Key Usage: critical
                Digital Signature
    Signature Algorithm: ecdsa-with-SHA256
         30:45:02:20:39:ea:4a:0f:7a:41:11:37:78:96:b6:55:f0:b8:
         3f:2b:c0:18:1b:b1:39:19:8f:66:2a:7b:c9:0b:d9:da:08:6f:
         02:21:00:a6:0e:27:2c:88:79:1e:0f:a3:9d:b7:3d:8e:6b:9e:
         23:78:8d:a6:92:92:07:9f:ba:5b:ac:5d:72:a2:12:d8:54
-----BEGIN CERTIFICATE-----
MIICLTCCAdOgAwIBAgIIXf7//TpWDVgwCgYIKoZIzj0EAwIwWTELMAkGA1UEBhMC
QkUxGjAYBgNVBAoMEWVIZWFsdGggLSBCZWxnaXVtMS4wLAYDVQQDDCVCZWxnaXVt
IENvdmlkMTkgQ291bnRyeSBTaWduaW5nIENBIDAxMB4XDTIxMDUyNzEwMTI0N1oX
DTIzMDUyNzEwMTI0N1owSjELMAkGA1UEBhMCQkUxGjAYBgNVBAoMEWVIZWFsdGgg
LSBCZWxnaXVtMR8wHQYDVQQDDBZCZWxnaXVtIENvdmlkMTkgRFNDIDAxMFkwEwYH
KoZIzj0CAQYIKoZIzj0DAQcDQgAEU/f/KsmP3NasU/jZo7aulTrd9GHoznfnwWvX
8xmHtK49EoobMAG7LhXnpLQ+aRwmmnSMcIWy8wPxM8QDMBUtyKOBkzCBkDAdBgNV
HQ4EFgQUr/AjSs5HKJsXQVr617Z6OO2Z9h8wHwYDVR0jBBgwFoAUMc4oJrfby5Fk
9eLZSMutpWhvX9UwPgYDVR0fBDcwNTAzoDGgL4YtaHR0cDovL2NlcnQtYXBwLmJl
L3Jldm9rZWRMaXN0L2RnY19jc2NhMDEuY3JsMA4GA1UdDwEB/wQEAwIHgDAKBggq
hkjOPQQDAgNIADBFAiA56koPekERN3iWtlXwuD8rwBgbsTkZj2Yqe8kL2doIbwIh
AKYOJyyIeR4Po523PY5rniN4jaaSkgefulusXXKiEthU
-----END CERTIFICATE-----
