Certificate:
    Data:
        Version: 3 (0x2)
        Serial Number:
            68:60:d1:65:f4:c6:6c:2d:fd:38:81:93:f1:b1:b3:4c
    Signature Algorithm: rsassaPss
         Hash Algorithm: sha512
         Mask Algorithm: mgf1 with sha512
         Salt Length: 0x40
         Trailer Field: 0xBC (default)
        Issuer: C = DE, O = D-Trust GmbH, CN = D-TRUST CA 2-2 2019, 2.5.4.97 = NTRDE-HRB74346
        Validity
            Not Before: May  7 14:13:31 2021 GMT
            Not After : May 11 14:13:31 2023 GMT
        Subject: C = DE, O = Robert Koch-Institut, OU = Elektronischer Impfnachweis, CN = Robert Koch-Institut, L = Berlin, postalCode = 13353, street = Nordufer 20, 2.5.4.97 = DT:DE-3023531445, serialNumber = CSM026164168, ST = Berlin
        Subject Public Key Info:
            Public Key Algorithm: id-ecPublicKey
                Public-Key: (256 bit)
                pub:
                    04:b0:b6:bf:cd:18:52:c7:1b:26:ac:f1:3f:47:03:
                    cd:29:71:9b:96:f2:38:26:b7:6a:7c:f3:58:a6:e3:
                    e7:dd:3a:64:13:16:ff:be:87:75:d4:cb:96:ec:18:
                    ac:9a:61:2b:65:c2:42:fa:85:ae:22:d5:b5:50:7f:
                    b0:71:71:c9:71
                ASN1 OID: prime256v1
                NIST CURVE: P-256
        X509v3 extensions:
            X509v3 Authority Key Identifier: 
                keyid:71:10:32:AE:74:71:7B:54:8E:F1:D6:AB:62:54:AE:FC:3E:C0:BB:16

            qcStatements: 
                0.0......F..0......F..0......F...
            Authority Information Access: 
                OCSP - URI:http://d-trust-ca-2-2-2019.ocsp.d-trust.net
                CA Issuers - URI:http://www.d-trust.net/cgi-bin/D-TRUST_CA_2-2_2019.crt
                CA Issuers - URI:ldap://directory.d-trust.net/CN=D-TRUST%20CA%202-2%202019,O=D-Trust%20GmbH,C=DE?cACertificate?base?

            X509v3 Certificate Policies: 
                Policy: 0.4.0.194112.1.1
                Policy: 1.3.6.1.4.1.4788.2.150.5
                  CPS: http://www.d-trust.net/internet/files/D-TRUST_CSM_PKI_CPS.pdf

            X509v3 CRL Distribution Points: 

                Full Name:
                  URI:ldap://directory.d-trust.net/CN=D-TRUST%20CA%202-2%202019,O=D-Trust%20GmbH,C=DE?certificaterevocationlist
                  URI:http://crl.d-trust.net/crl/d-trust_ca_2-2_2019.crl
                  URI:http://cdn.d-trust-cloudcrl.net/crl/d-trust_ca_2-2_2019.crl

            X509v3 Subject Key Identifier: 
                E0:FE:90:29:BF:F2:F3:2A:BF:6F:9F:13:9D:AA:AB:A4:B2:1C:4E:62
            X509v3 Key Usage: critical
                Digital Signature, Non Repudiation
    Signature Algorithm: rsassaPss
         Hash Algorithm: sha512
         Mask Algorithm: mgf1 with sha512
         Salt Length: 0x40
         Trailer Field: 0xBC (default)

         41:03:5b:1c:79:14:1f:64:16:f3:36:56:17:36:94:4c:9c:be:
         3b:0c:e8:5d:8c:72:16:df:ac:00:e7:18:a1:e1:2f:f7:4e:7b:
         3c:fc:89:34:3a:99:49:b2:55:d0:cb:75:8c:51:da:ba:43:eb:
         84:58:e5:9a:71:5d:e4:12:c6:9a:58:c2:2f:cd:9d:da:14:16:
         5b:33:ca:13:5c:98:7b:f7:62:9b:5a:54:dc:25:65:6e:15:aa:
         e3:d5:4b:f6:93:de:49:74:5f:05:e3:2e:7b:71:32:78:aa:46:
         8d:7e:bc:8b:ce:17:01:47:25:05:eb:87:46:de:8e:18:89:51:
         a5:7f:bc:2c:c8:f7:77:b1:4f:b5:4e:58:5c:e4:e2:c6:42:33:
         41:ff:c3:f8:b7:88:0b:d9:13:90:a0:a1:04:43:f7:d2:df:8c:
         5d:bd:aa:73:f5:d2:3c:76:31:af:83:a6:9a:ae:bc:3d:8f:ba:
         dd:8a:4c:c4:b1:42:4d:78:22:3e:7a:6e:e1:25:46:23:dd:84:
         67:27:e2:18:e1:9f:3c:74:56:31:8c:21:b1:89:af:7a:2e:0d:
         db:c0:85:31:34:f7:6b:47:51:c7:9a:8f:15:77:40:84:da:99:
         30:8f:db:51:dd:a6:d8:19:72:34:4e:64:51:e4:00:5a:2e:8b:
         1f:e7:26:9d:b5:8f:df:b4:ba:0a:00:c8:9e:1e:30:83:af:02:
         3b:85:d1:b4:de:c6:99:d1:d0:de:6b:10:fe:fd:61:83:70:38:
         c8:26:c0:fa:23:9f:f8:4d:24:b6:e5:5c:15:dc:f9:a9:33:50:
         13:dd:3a:fa:07:fd:03:76:94:07:e2:30:ce:8e:a5:f9:16:b0:
         7a:2c:3b:27:81:f9:9e:bc:c1:45:5d:95:6d:73:b5:27:32:a4:
         7b:bf:61:dd:2d:45:e0:30:c1:7c:9a:c6:f2:7a:23:b4:6b:17:
         5a:56:8a:97:72:c0:22:bd:23:9a:a9:f7:71:1c:f8:54:9e:b0:
         6b:65:b9:ff:d4:cd:5c:89:ea:8e:56:c2:72:a6:93:0b:ca:7d:
         a4:0a:62:71:fc:18:a8:8d:36:44:e7:9a:2f:fb:9b:02:9f:b9:
         62:d6:e6:b3:65:db:73:4e:c9:51:9b:84:37:56:cc:78:74:fc:
         ec:35:8e:4a:bd:5a:07:e7:f5:e4:ac:69:0c:28:d4:22:59:2b:
         16:5c:e4:0f:2b:e7:09:a6:d2:40:6a:d2:1f:e6:61:82:ce:09:
         c0:e2:f7:dd:7e:a7:f8:cb:51:67:50:4e:17:05:bf:fc:f3:f4:
         de:86:e6:f3:a5:d4:42:d3:b9:32:5e:3c:9a:18:87:d6:78:1b:
         90:7a:25:3f:c0:4b:9c:2d
-----BEGIN CERTIFICATE-----
MIIHUTCCBQmgAwIBAgIQaGDRZfTGbC39OIGT8bGzTDA9BgkqhkiG9w0BAQowMKAN
MAsGCWCGSAFlAwQCA6EaMBgGCSqGSIb3DQEBCDALBglghkgBZQMEAgOiAwIBQDBb
MQswCQYDVQQGEwJERTEVMBMGA1UEChMMRC1UcnVzdCBHbWJIMRwwGgYDVQQDExNE
LVRSVVNUIENBIDItMiAyMDE5MRcwFQYDVQRhEw5OVFJERS1IUkI3NDM0NjAeFw0y
MTA1MDcxNDEzMzFaFw0yMzA1MTExNDEzMzFaMIHrMQswCQYDVQQGEwJERTEdMBsG
A1UEChMUUm9iZXJ0IEtvY2gtSW5zdGl0dXQxJDAiBgNVBAsTG0VsZWt0cm9uaXNj
aGVyIEltcGZuYWNod2VpczEdMBsGA1UEAxMUUm9iZXJ0IEtvY2gtSW5zdGl0dXQx
DzANBgNVBAcTBkJlcmxpbjEOMAwGA1UEEQwFMTMzNTMxFDASBgNVBAkTC05vcmR1
ZmVyIDIwMRkwFwYDVQRhExBEVDpERS0zMDIzNTMxNDQ1MRUwEwYDVQQFEwxDU00w
MjYxNjQxNjgxDzANBgNVBAgTBkJlcmxpbjBZMBMGByqGSM49AgEGCCqGSM49AwEH
A0IABLC2v80YUscbJqzxP0cDzSlxm5byOCa3anzzWKbj5906ZBMW/76HddTLluwY
rJphK2XCQvqFriLVtVB/sHFxyXGjggLpMIIC5TAfBgNVHSMEGDAWgBRxEDKudHF7
VI7x1qtiVK78PsC7FjAtBggrBgEFBQcBAwQhMB8wCAYGBACORgEBMBMGBgQAjkYB
BjAJBgcEAI5GAQYCMIH+BggrBgEFBQcBAQSB8TCB7jA3BggrBgEFBQcwAYYraHR0
cDovL2QtdHJ1c3QtY2EtMi0yLTIwMTkub2NzcC5kLXRydXN0Lm5ldDBCBggrBgEF
BQcwAoY2aHR0cDovL3d3dy5kLXRydXN0Lm5ldC9jZ2ktYmluL0QtVFJVU1RfQ0Ff
Mi0yXzIwMTkuY3J0MG8GCCsGAQUFBzAChmNsZGFwOi8vZGlyZWN0b3J5LmQtdHJ1
c3QubmV0L0NOPUQtVFJVU1QlMjBDQSUyMDItMiUyMDIwMTksTz1ELVRydXN0JTIw
R21iSCxDPURFP2NBQ2VydGlmaWNhdGU/YmFzZT8wcAYDVR0gBGkwZzAJBgcEAIvs
QAEBMFoGCysGAQQBpTQCgRYFMEswSQYIKwYBBQUHAgEWPWh0dHA6Ly93d3cuZC10
cnVzdC5uZXQvaW50ZXJuZXQvZmlsZXMvRC1UUlVTVF9DU01fUEtJX0NQUy5wZGYw
gfAGA1UdHwSB6DCB5TCB4qCB36CB3IZpbGRhcDovL2RpcmVjdG9yeS5kLXRydXN0
Lm5ldC9DTj1ELVRSVVNUJTIwQ0ElMjAyLTIlMjAyMDE5LE89RC1UcnVzdCUyMEdt
YkgsQz1ERT9jZXJ0aWZpY2F0ZXJldm9jYXRpb25saXN0hjJodHRwOi8vY3JsLmQt
dHJ1c3QubmV0L2NybC9kLXRydXN0X2NhXzItMl8yMDE5LmNybIY7aHR0cDovL2Nk
bi5kLXRydXN0LWNsb3VkY3JsLm5ldC9jcmwvZC10cnVzdF9jYV8yLTJfMjAxOS5j
cmwwHQYDVR0OBBYEFOD+kCm/8vMqv2+fE52qq6SyHE5iMA4GA1UdDwEB/wQEAwIG
wDA9BgkqhkiG9w0BAQowMKANMAsGCWCGSAFlAwQCA6EaMBgGCSqGSIb3DQEBCDAL
BglghkgBZQMEAgOiAwIBQAOCAgEAQQNbHHkUH2QW8zZWFzaUTJy+OwzoXYxyFt+s
AOcYoeEv9057PPyJNDqZSbJV0Mt1jFHaukPrhFjlmnFd5BLGmljCL82d2hQWWzPK
E1yYe/dim1pU3CVlbhWq49VL9pPeSXRfBeMue3EyeKpGjX68i84XAUclBeuHRt6O
GIlRpX+8LMj3d7FPtU5YXOTixkIzQf/D+LeIC9kTkKChBEP30t+MXb2qc/XSPHYx
r4Ommq68PY+63YpMxLFCTXgiPnpu4SVGI92EZyfiGOGfPHRWMYwhsYmvei4N28CF
MTT3a0dRx5qPFXdAhNqZMI/bUd2m2BlyNE5kUeQAWi6LH+cmnbWP37S6CgDInh4w
g68CO4XRtN7GmdHQ3msQ/v1hg3A4yCbA+iOf+E0ktuVcFdz5qTNQE906+gf9A3aU
B+Iwzo6l+Raweiw7J4H5nrzBRV2VbXO1JzKke79h3S1F4DDBfJrG8nojtGsXWlaK
l3LAIr0jmqn3cRz4VJ6wa2W5/9TNXInqjlbCcqaTC8p9pApicfwYqI02ROeaL/ub
Ap+5Ytbms2Xbc07JUZuEN1bMeHT87DWOSr1aB+f15KxpDCjUIlkrFlzkDyvnCabS
QGrSH+Zhgs4JwOL33X6n+MtRZ1BOFwW//PP03obm86XUQtO5Ml48mhiH1ngbkHol
P8BLnC0=
-----END CERTIFICATE-----
