Certificate:
    Data:
        Version: 3 (0x2)
        Serial Number:
            11:26:5a:4d:da:72:68:7f:cc
    Signature Algorithm: ecdsa-with-SHA256
        Issuer: CN = EADTrust ECC 256 SubCA For Qualified Certificates 2019, O = "European Agency of Digital Trust, S.L.", C = ES, 2.5.4.97 = VATES-B85626240, OU = Legal Person
        Validity
            Not Before: May 24 12:40:00 2021 GMT
            Not After : May 24 12:40:00 2023 GMT
        Subject: CN = Consejer\C3\ADa de Salud del Principado de Asturias, serialNumber = S3333001J, OU = SELLO ELECTRONICO, 2.5.4.97 = VATES- S3333001J, O = Principado de Asturias, C = ES
        Subject Public Key Info:
            Public Key Algorithm: id-ecPublicKey
                Public-Key: (256 bit)
                pub:
                    04:52:f9:63:aa:5d:59:1a:9c:33:0b:dd:80:6c:ee:
                    09:ef:9d:64:aa:72:04:5d:a0:88:f2:16:14:20:40:
                    2b:85:17:aa:25:cc:79:a8:29:40:19:29:03:15:c6:
                    eb:4c:f5:7d:5a:e5:2d:98:34:3f:36:9a:15:f8:47:
                    a3:a8:19:a5:ca
                ASN1 OID: prime256v1
                NIST CURVE: P-256
        X509v3 extensions:
            X509v3 Basic Constraints: critical
                CA:FALSE
            X509v3 Authority Key Identifier: 
                keyid:D3:4C:6C:3A:BD:36:FE:70:87:23:87:3A:EE:3D:90:CF:CB:9B:F7:21

            Authority Information Access: 
                CA Issuers - URI:http://ca.eadtrust.eu/eadtrust-subca-ecc256eadlp2019.crt
                OCSP - URI:http://ocsp.eadtrust.eu

            X509v3 Issuer Alternative Name: 
                email:ca@eadtrust.eu, URI:http://www.eadtrust.eu, URI:http://ca.eadtrust.eu, URI:http://policy.eadtrust.eu
            X509v3 Subject Alternative Name: 
                DirName:/2.16.724.1.3.5.6.2.1=SELLO ELECTRONICO DE NIVEL MEDIO/2.16.724.1.3.5.6.2.2=Principado de Asturias/2.16.724.1.3.5.6.2.3=S3333001J
            X509v3 Certificate Policies: 
                Policy: 2.16.724.1.3.5.6.2
                Policy: 0.4.0.194112.1.1
                  User Notice:
                    Explicit Text: European Telecommunications Standards Institute. eIDAS European Regulation Compliant
                Policy: 1.3.6.1.4.1.501.2.1.1.0.41233
                  CPS: http://policy.eadtrust.eu
                  User Notice:
                    Explicit Text: Certificado cualificado de sello electrónico de Administración, órgano o entidad de derecho público, nivel Medio/Sustancial. Consulte las condiciones de uso en http://policy.eadtrust.eu

            X509v3 Extended Key Usage: 
                TLS Web Client Authentication, E-mail Protection
            qcStatements: 
                0..0...+.......0.......I..0......F..0......F.....0......F..0......F...0l.....F..0b00.*https://eadtrust.eu/en/documents-in-force/..en0..(https://eadtrust.eu/documentos-vigentes/..es
            X509v3 CRL Distribution Points: 

                Full Name:
                  URI:http://crl.eadtrust.eu/eadtrust-subca-ecc256eadlp2019.crl

            X509v3 Subject Key Identifier: 
                2B:B0:94:37:35:B8:0C:AF:68:D3:B2:34:61:90:B2:85:35:D9:B9:6C
            X509v3 Key Usage: critical
                Digital Signature, Non Repudiation, Key Encipherment
    Signature Algorithm: ecdsa-with-SHA256
         30:46:02:21:00:b4:d9:ff:9f:40:ea:a9:c9:17:9c:62:a0:89:
         e6:ac:7c:0a:0b:82:65:c8:4c:b5:a3:8d:40:a7:f7:67:9c:77:
         bb:02:21:00:c8:72:e9:93:21:cd:3b:ec:1a:73:11:99:ce:ed:
         25:5a:ad:49:a8:93:24:1c:09:60:e2:ad:20:e4:6b:27:eb:e7
-----BEGIN CERTIFICATE-----
MIIG7TCCBpKgAwIBAgIJESZaTdpyaH/MMAoGCCqGSM49BAMCMIGwMT8wPQYDVQQD
DDZFQURUcnVzdCBFQ0MgMjU2IFN1YkNBIEZvciBRdWFsaWZpZWQgQ2VydGlmaWNh
dGVzIDIwMTkxLzAtBgNVBAoMJkV1cm9wZWFuIEFnZW5jeSBvZiBEaWdpdGFsIFRy
dXN0LCBTLkwuMQswCQYDVQQGEwJFUzEYMBYGA1UEYQwPVkFURVMtQjg1NjI2MjQw
MRUwEwYDVQQLDAxMZWdhbCBQZXJzb24wHhcNMjEwNTI0MTI0MDAwWhcNMjMwNTI0
MTI0MDAwWjCBszE4MDYGA1UEAwwvQ29uc2VqZXLDrWEgZGUgU2FsdWQgZGVsIFBy
aW5jaXBhZG8gZGUgQXN0dXJpYXMxEjAQBgNVBAUTCVMzMzMzMDAxSjEaMBgGA1UE
CwwRU0VMTE8gRUxFQ1RST05JQ08xGTAXBgNVBGEMEFZBVEVTLSBTMzMzMzAwMUox
HzAdBgNVBAoMFlByaW5jaXBhZG8gZGUgQXN0dXJpYXMxCzAJBgNVBAYTAkVTMFkw
EwYHKoZIzj0CAQYIKoZIzj0DAQcDQgAEUvljql1ZGpwzC92AbO4J751kqnIEXaCI
8hYUIEArhReqJcx5qClAGSkDFcbrTPV9WuUtmDQ/NpoV+EejqBmlyqOCBI4wggSK
MAwGA1UdEwEB/wQCMAAwHwYDVR0jBBgwFoAU00xsOr02/nCHI4c67j2Qz8ub9yEw
eQYIKwYBBQUHAQEEbTBrMEQGCCsGAQUFBzAChjhodHRwOi8vY2EuZWFkdHJ1c3Qu
ZXUvZWFkdHJ1c3Qtc3ViY2EtZWNjMjU2ZWFkbHAyMDE5LmNydDAjBggrBgEFBQcw
AYYXaHR0cDovL29jc3AuZWFkdHJ1c3QuZXUwYwYDVR0SBFwwWoEOY2FAZWFkdHJ1
c3QuZXWGFmh0dHA6Ly93d3cuZWFkdHJ1c3QuZXWGFWh0dHA6Ly9jYS5lYWR0cnVz
dC5ldYYZaHR0cDovL3BvbGljeS5lYWR0cnVzdC5ldTB/BgNVHREEeDB2pHQwcjEv
MC0GCWCFVAEDBQYCAQwgU0VMTE8gRUxFQ1RST05JQ08gREUgTklWRUwgTUVESU8x
JTAjBglghVQBAwUGAgIMFlByaW5jaXBhZG8gZGUgQXN0dXJpYXMxGDAWBglghVQB
AwUGAgMMCVMzMzMzMDAxSjCCAZgGA1UdIASCAY8wggGLMAoGCGCFVAEDBQYCMG8G
BwQAi+xAAQEwZDBiBggrBgEFBQcCAjBWDFRFdXJvcGVhbiBUZWxlY29tbXVuaWNh
dGlvbnMgU3RhbmRhcmRzIEluc3RpdHV0ZS4gZUlEQVMgRXVyb3BlYW4gUmVndWxh
dGlvbiBDb21wbGlhbnQwggEKBg4rBgEEAYN1AgEBAILCETCB9zAlBggrBgEFBQcC
ARYZaHR0cDovL3BvbGljeS5lYWR0cnVzdC5ldTCBzQYIKwYBBQUHAgIwgcAMgb1D
ZXJ0aWZpY2FkbyBjdWFsaWZpY2FkbyBkZSBzZWxsbyBlbGVjdHLDs25pY28gZGUg
QWRtaW5pc3RyYWNpw7NuLCDDs3JnYW5vIG8gZW50aWRhZCBkZSBkZXJlY2hvIHDD
umJsaWNvLCBuaXZlbCBNZWRpby9TdXN0YW5jaWFsLiBDb25zdWx0ZSBsYXMgY29u
ZGljaW9uZXMgZGUgdXNvIGVuIGh0dHA6Ly9wb2xpY3kuZWFkdHJ1c3QuZXUwHQYD
VR0lBBYwFAYIKwYBBQUHAwIGCCsGAQUFBwMEMIHBBggrBgEFBQcBAwSBtDCBsTAV
BggrBgEFBQcLAjAJBgcEAIvsSQECMAgGBgQAjkYBATALBgYEAI5GAQMCAQ8wEwYG
BACORgEGMAkGBwQAjkYBBgIwbAYGBACORgEFMGIwMBYqaHR0cHM6Ly9lYWR0cnVz
dC5ldS9lbi9kb2N1bWVudHMtaW4tZm9yY2UvEwJlbjAuFihodHRwczovL2VhZHRy
dXN0LmV1L2RvY3VtZW50b3MtdmlnZW50ZXMvEwJlczBKBgNVHR8EQzBBMD+gPaA7
hjlodHRwOi8vY3JsLmVhZHRydXN0LmV1L2VhZHRydXN0LXN1YmNhLWVjYzI1NmVh
ZGxwMjAxOS5jcmwwHQYDVR0OBBYEFCuwlDc1uAyvaNOyNGGQsoU12blsMA4GA1Ud
DwEB/wQEAwIF4DAKBggqhkjOPQQDAgNJADBGAiEAtNn/n0DqqckXnGKgieasfAoL
gmXITLWjjUCn92ecd7sCIQDIcumTIc077BpzEZnO7SVarUmokyQcCWDirSDkayfr
5w==
-----END CERTIFICATE-----
