Certificate:
    Data:
        Version: 3 (0x2)
        Serial Number:
            7c:13:5f:e1:48:38:ef:f0:60:b1:1f:38:9f:4b:39:34
    Signature Algorithm: sha256WithRSAEncryption
        Issuer: C = LV, O = VAS Latvijas Valsts radio un telev\C4\ABzijas centrs, 2.5.4.97 = NTRLV-40003011203, CN = Digital Green Certificate CSCA
        Validity
            Not Before: May 28 16:50:00 2021 GMT
            Not After : May 28 16:50:00 2023 GMT
        Subject: CN = LV DSC 001, O = Nacion\C4\81lais vesel\C4\ABbas dienests, C = LV
        Subject Public Key Info:
            Public Key Algorithm: id-ecPublicKey
                Public-Key: (256 bit)
                pub:
                    04:3d:4c:04:ee:1b:6b:fa:40:f5:79:59:c9:05:f4:
                    5f:e6:dc:74:90:0d:7b:aa:ee:29:d7:04:73:dc:42:
                    8f:c6:c2:72:c8:8c:e7:22:aa:fd:f8:7b:27:31:de:
                    e4:f4:80:ff:7f:47:5e:aa:33:fc:76:e9:73:4b:67:
                    05:ad:55:67:15
                ASN1 OID: prime256v1
                NIST CURVE: P-256
        X509v3 extensions:
            X509v3 Basic Constraints: critical
                CA:FALSE
            X509v3 Key Usage: critical
                Digital Signature
            X509v3 Extended Key Usage: 
                1.3.6.1.4.1.0.1847.2021.1.1, 1.3.6.1.4.1.0.1847.2021.1.2, 1.3.6.1.4.1.0.1847.2021.1.3
            X509v3 Subject Key Identifier: 
                62:BD:D5:87:AF:D6:E2:83:87:09:91:AA:23:43:92:0D:B1:D9:EE:34
            X509v3 Authority Key Identifier: 
                keyid:E4:93:6A:80:1E:DE:23:DC:3D:42:F1:46:82:13:7C:23:BD:AF:3D:1C

            Authority Information Access: 
                CA Issuers - URI:http://www.eparaksts.lv/cert/Digital_Green_Certificate_CSCA.crt

            X509v3 CRL Distribution Points: 

                Full Name:
                  URI:http://www.eparaksts.lv/crl/Digital_Green_Certificate_CSCA_1.crl

    Signature Algorithm: sha256WithRSAEncryption
         82:32:b0:01:75:fa:93:4f:ed:ee:c7:55:50:e5:17:6a:b0:58:
         00:ae:29:a7:7a:e3:f1:54:74:92:8a:d2:2a:67:7a:cf:c2:44:
         b4:12:c4:e5:e5:f5:26:ea:6e:59:ab:16:6b:7a:ee:42:85:f1:
         8c:cc:2f:7e:fd:9e:0e:41:f6:9f:ba:f5:69:d2:2f:d3:e5:e0:
         fe:a2:23:78:ea:0d:f7:6d:d7:1b:c6:16:81:83:48:bb:fb:ec:
         69:6d:11:8a:33:95:a1:f4:bb:84:5b:88:94:ab:fc:08:c4:90:
         44:25:d6:05:1b:2b:c5:d9:e3:fd:e6:61:4c:69:d2:b1:72:cf:
         3e:68:a7:47:58:48:b1:f4:25:20:26:8c:cc:10:ab:00:b2:51:
         bc:d7:16:25:4b:35:6d:0a:60:13:e6:aa:da:0b:db:b3:fe:a1:
         93:8f:f6:d8:7e:2b:ed:30:21:1d:0a:1a:7b:05:6a:7b:30:fe:
         21:0f:75:06:da:b5:be:c3:11:f3:0f:58:18:2f:2e:cd:aa:a4:
         46:df:ea:8f:7e:89:4d:33:44:aa:96:26:5e:75:ea:f2:b4:46:
         28:b3:3b:f6:cc:ba:14:95:e5:46:3e:ad:f7:5d:ab:ea:2d:37:
         c2:80:f8:4e:aa:1c:4f:b2:71:f4:34:b7:2e:26:48:12:7a:ae:
         72:c6:0f:05:59:06:91:74:84:7a:f8:19:44:37:35:50:e8:b6:
         0d:6a:6b:2e:05:1c:4d:64:f0:ee:ac:a5:cb:e7:ca:ed:ff:c7:
         59:a1:e1:08:9f:ea:8e:f7:69:a8:f2:85:6b:0f:8c:43:38:7b:
         e3:24:92:2e:3a:a6:76:cd:c3:83:6e:f5:7f:c0:18:42:5e:3a:
         d3:0c:18:94:49:ef:6d:a5:e6:a0:13:95:0a:7c:b3:7f:a7:28:
         77:4c:6c:cc:cd:5c:a8:e5:39:f7:d2:28:6a:5c:42:17:e8:86:
         b0:a5:97:cb:24:db:25:66:71:1b:0c:58:b5:ff:62:bc:6f:4d:
         2d:ef:cc:7b:a4:d4:d2:14:ac:97:a2:ef:15:69:a6:d0:54:fb:
         29:be:e5:ac:a1:6f:43:d2:7c:a2:83:5c:a6:2d:c0:ab:48:5a:
         67:0a:97:ff:18:42:8e:35:16:08:e9:98:be:2d:8a:56:ce:32:
         3c:d7:f0:f3:57:20:b8:f4:68:76:e5:95:fa:67:49:3a:4e:18:
         03:ab:52:78:aa:68:86:53:72:35:5b:e5:5c:43:e7:cd:b5:3b:
         02:cf:d7:ef:d8:a7:62:eb:65:34:a1:8a:a6:b7:71:40:73:65:
         67:b7:7d:32:a0:aa:a0:9d:27:f2:0f:8c:61:65:26:9f:1f:1c:
         f6:9a:5d:23:15:2d:71:ce
-----BEGIN CERTIFICATE-----
MIIE4zCCAsugAwIBAgIQfBNf4Ug47/BgsR84n0s5NDANBgkqhkiG9w0BAQsFADCB
jTELMAkGA1UEBhMCTFYxOTA3BgNVBAoMMFZBUyBMYXR2aWphcyBWYWxzdHMgcmFk
aW8gdW4gdGVsZXbEq3ppamFzIGNlbnRyczEaMBgGA1UEYQwRTlRSTFYtNDAwMDMw
MTEyMDMxJzAlBgNVBAMMHkRpZ2l0YWwgR3JlZW4gQ2VydGlmaWNhdGUgQ1NDQTAe
Fw0yMTA1MjgxNjUwMDBaFw0yMzA1MjgxNjUwMDBaME0xEzARBgNVBAMMCkxWIERT
QyAwMDExKTAnBgNVBAoMIE5hY2lvbsSBbGFpcyB2ZXNlbMSrYmFzIGRpZW5lc3Rz
MQswCQYDVQQGEwJMVjBZMBMGByqGSM49AgEGCCqGSM49AwEHA0IABD1MBO4ba/pA
9XlZyQX0X+bcdJANe6ruKdcEc9xCj8bCcsiM5yKq/fh7JzHe5PSA/39HXqoz/Hbp
c0tnBa1VZxWjggFHMIIBQzAMBgNVHRMBAf8EAjAAMA4GA1UdDwEB/wQEAwIHgDAz
BgNVHSUELDAqBgwrBgEEAQCON49lAQEGDCsGAQQBAI43j2UBAgYMKwYBBAEAjjeP
ZQEDMB0GA1UdDgQWBBRivdWHr9big4cJkaojQ5INsdnuNDAfBgNVHSMEGDAWgBTk
k2qAHt4j3D1C8UaCE3wjva89HDBbBggrBgEFBQcBAQRPME0wSwYIKwYBBQUHMAKG
P2h0dHA6Ly93d3cuZXBhcmFrc3RzLmx2L2NlcnQvRGlnaXRhbF9HcmVlbl9DZXJ0
aWZpY2F0ZV9DU0NBLmNydDBRBgNVHR8ESjBIMEagRKBChkBodHRwOi8vd3d3LmVw
YXJha3N0cy5sdi9jcmwvRGlnaXRhbF9HcmVlbl9DZXJ0aWZpY2F0ZV9DU0NBXzEu
Y3JsMA0GCSqGSIb3DQEBCwUAA4ICAQCCMrABdfqTT+3ux1VQ5RdqsFgArimneuPx
VHSSitIqZ3rPwkS0EsTl5fUm6m5ZqxZreu5ChfGMzC9+/Z4OQfafuvVp0i/T5eD+
oiN46g33bdcbxhaBg0i7++xpbRGKM5Wh9LuEW4iUq/wIxJBEJdYFGyvF2eP95mFM
adKxcs8+aKdHWEix9CUgJozMEKsAslG81xYlSzVtCmAT5qraC9uz/qGTj/bYfivt
MCEdChp7BWp7MP4hD3UG2rW+wxHzD1gYLy7NqqRG3+qPfolNM0SqliZederytEYo
szv2zLoUleVGPq33XavqLTfCgPhOqhxPsnH0NLcuJkgSeq5yxg8FWQaRdIR6+BlE
NzVQ6LYNamsuBRxNZPDurKXL58rt/8dZoeEIn+qO92mo8oVrD4xDOHvjJJIuOqZ2
zcODbvV/wBhCXjrTDBiUSe9tpeagE5UKfLN/pyh3TGzMzVyo5Tn30ihqXEIX6Iaw
pZfLJNslZnEbDFi1/2K8b00t78x7pNTSFKyXou8VaabQVPspvuWsoW9D0nyig1ym
LcCrSFpnCpf/GEKONRYI6Zi+LYpWzjI81/DzVyC49Gh25ZX6Z0k6ThgDq1J4qmiG
U3I1W+VcQ+fNtTsCz9fv2Kdi62U0oYqmt3FAc2Vnt30yoKqgnSfyD4xhZSafHxz2
ml0jFS1xzg==
-----END CERTIFICATE-----
