Certificate:
    Data:
        Version: 3 (0x2)
        Serial Number:
            01:79:cc:f8:be:3b:7e:60:5c:7b
    Signature Algorithm: ecdsa-with-SHA256
        Issuer: C = AT, O = BMSGPK, serialNumber = 001, CN = AT DGC CSCA 1
        Validity
            Not Before: Jun  2 13:45:24 2021 GMT
            Not After : Jun  2 13:45:24 2023 GMT
        Subject: C = AT, O = BMSGPK, serialNumber = 001001, CN = AT DGC DSC 1
        Subject Public Key Info:
            Public Key Algorithm: id-ecPublicKey
                Public-Key: (256 bit)
                pub:
                    04:60:4d:b8:a8:82:a6:75:c7:d1:59:48:76:4e:a9:
                    25:91:f6:7a:9f:23:41:a5:7e:15:1d:e2:cc:c5:f1:
                    65:f2:b9:10:f1:99:2e:d1:b7:27:1f:93:99:5d:c9:
                    24:4a:df:ad:2a:cf:85:19:9f:6d:28:9d:55:b4:d0:
                    e6:79:d9:4b:eb
                ASN1 OID: prime256v1
                NIST CURVE: P-256
        X509v3 extensions:
            X509v3 Key Usage: critical
                Digital Signature
            X509v3 Subject Key Identifier: 
                36:CD:AC:9A:B8:C1:86:E4:79:06:AC:65:EA:D7:84:D7:1D:68:DB:27
            X509v3 Authority Key Identifier: 
                keyid:1F:22:AC:1C:65:16:29:B4:C1:98:B3:63:6F:BF:DD:09:9D:BB:7B:7B

            X509v3 Private Key Usage Period: 
                Not After: Dec 16 14:45:24 2021 GMT
    Signature Algorithm: ecdsa-with-SHA256
         30:44:02:20:38:d7:1e:7c:b3:ab:7b:13:8a:c3:17:d6:e6:3c:
         c5:0d:99:a8:24:4b:db:19:b1:b5:83:8f:85:26:7d:65:a7:18:
         02:20:2a:1d:43:0e:0b:b5:8d:82:ae:21:db:c9:f7:d5:62:dc:
         d6:63:0f:01:86:ae:5a:c9:52:13:09:d7:0b:bf:40:1b
-----BEGIN CERTIFICATE-----
MIIB7zCCAZagAwIBAgIKAXnM+L47fmBcezAKBggqhkjOPQQDAjBEMQswCQYDVQQG
EwJBVDEPMA0GA1UECgwGQk1TR1BLMQwwCgYDVQQFEwMwMDExFjAUBgNVBAMMDUFU
IERHQyBDU0NBIDEwHhcNMjEwNjAyMTM0NTI0WhcNMjMwNjAyMTM0NTI0WjBGMQsw
CQYDVQQGEwJBVDEPMA0GA1UECgwGQk1TR1BLMQ8wDQYDVQQFEwYwMDEwMDExFTAT
BgNVBAMMDEFUIERHQyBEU0MgMTBZMBMGByqGSM49AgEGCCqGSM49AwEHA0IABGBN
uKiCpnXH0VlIdk6pJZH2ep8jQaV+FR3izMXxZfK5EPGZLtG3Jx+TmV3JJErfrSrP
hRmfbSidVbTQ5nnZS+ujbjBsMA4GA1UdDwEB/wQEAwIHgDAdBgNVHQ4EFgQUNs2s
mrjBhuR5Bqxl6teE1x1o2ycwHwYDVR0jBBgwFoAUHyKsHGUWKbTBmLNjb7/dCZ27
e3swGgYDVR0QBBMwEYEPMjAyMTEyMTYxNDQ1MjRaMAoGCCqGSM49BAMCA0cAMEQC
IDjXHnyzq3sTisMX1uY8xQ2ZqCRL2xmxtYOPhSZ9ZacYAiAqHUMOC7WNgq4h28n3
1WLc1mMPAYauWslSEwnXC79AGw==
-----END CERTIFICATE-----
