Certificate:
    Data:
        Version: 3 (0x2)
        Serial Number:
            4a:e8:55:dd:c2:aa:bd:57:06:72:ab:73:cf:a2:05:1e
    Signature Algorithm: rsassaPss
         Hash Algorithm: sha512
         Mask Algorithm: mgf1 with sha512
         Salt Length: 0x40
         Trailer Field: 0xBC (default)
        Issuer: C = DE, O = D-Trust GmbH, CN = D-TRUST CA 2-2 2019, 2.5.4.97 = NTRDE-HRB74346
        Validity
            Not Before: Jun  7 10:22:49 2021 GMT
            Not After : Jun 11 10:22:49 2023 GMT
        Subject: C = DE, O = Robert Koch-Institut, OU = Elektronischer Impfnachweis, CN = Robert Koch-Institut, L = Berlin, postalCode = 13353, street = Nordufer 20, 2.5.4.97 = DT:DE-3023531445, serialNumber = CSM026414054, ST = Berlin
        Subject Public Key Info:
            Public Key Algorithm: id-ecPublicKey
                Public-Key: (256 bit)
                pub:
                    04:ef:53:76:a4:7e:98:c8:2e:a0:7d:41:f0:88:42:
                    43:cc:8c:70:30:85:bf:1e:cf:82:82:7f:e0:3d:06:
                    d9:02:41:5c:c9:7f:cb:4c:4d:a3:da:06:43:f2:12:
                    ec:e7:94:c4:ad:34:ca:a2:4b:c7:92:b1:0e:5a:d1:
                    d8:90:80:e1:c9
                ASN1 OID: prime256v1
                NIST CURVE: P-256
        X509v3 extensions:
            X509v3 Authority Key Identifier: 
                keyid:71:10:32:AE:74:71:7B:54:8E:F1:D6:AB:62:54:AE:FC:3E:C0:BB:16

            qcStatements: 
                0.0......F..0......F..0......F...
            Authority Information Access: 
                OCSP - URI:http://d-trust-ca-2-2-2019.ocsp.d-trust.net
                CA Issuers - URI:http://www.d-trust.net/cgi-bin/D-TRUST_CA_2-2_2019.crt
                CA Issuers - URI:ldap://directory.d-trust.net/CN=D-TRUST%20CA%202-2%202019,O=D-Trust%20GmbH,C=DE?cACertificate?base?

            X509v3 Certificate Policies: 
                Policy: 0.4.0.194112.1.1
                Policy: 1.3.6.1.4.1.4788.2.150.5
                  CPS: http://www.d-trust.net/internet/files/D-TRUST_CSM_PKI_CPS.pdf

            X509v3 CRL Distribution Points: 

                Full Name:
                  URI:ldap://directory.d-trust.net/CN=D-TRUST%20CA%202-2%202019,O=D-Trust%20GmbH,C=DE?certificaterevocationlist
                  URI:http://crl.d-trust.net/crl/d-trust_ca_2-2_2019.crl
                  URI:http://cdn.d-trust-cloudcrl.net/crl/d-trust_ca_2-2_2019.crl

            X509v3 Subject Key Identifier: 
                B9:51:A0:03:06:3D:8B:AD:F7:5F:01:6D:D8:5F:BC:55:CE:EE:3C:D6
            X509v3 Key Usage: critical
                Digital Signature, Non Repudiation
    Signature Algorithm: rsassaPss
         Hash Algorithm: sha512
         Mask Algorithm: mgf1 with sha512
         Salt Length: 0x40
         Trailer Field: 0xBC (default)

         87:25:14:90:5f:39:f8:fb:dc:16:3c:f0:9b:66:a7:aa:c7:2a:
         94:f7:2c:44:2b:42:8c:c7:cb:4d:06:1e:28:0b:f5:49:4f:b2:
         c2:98:10:9d:7b:e4:f5:62:ce:36:40:0c:63:c5:6e:64:6c:31:
         57:39:78:b4:9b:58:17:b5:02:3f:62:1c:ef:db:cc:5b:b5:33:
         b9:94:04:b3:e6:13:23:2e:03:a3:4a:f7:f3:67:7c:18:53:05:
         fa:fd:ac:d9:92:19:a3:9c:4e:2f:29:20:09:4b:53:e7:c5:83:
         ab:2e:0a:73:82:44:9a:66:34:36:fa:d1:46:3d:e5:52:c3:1c:
         65:74:d4:03:f1:3c:af:e1:ac:fd:c5:bd:2d:61:8f:1e:67:75:
         fc:3d:11:fd:f3:25:09:5b:d6:ec:92:c8:b7:9b:df:da:78:fb:
         60:87:3e:d7:4d:09:4a:7e:68:54:97:97:4f:07:a2:ce:f7:b4:
         a0:44:31:d8:55:23:5f:62:3b:e9:bf:86:d1:15:0a:d1:b7:0d:
         dd:96:4d:b1:4a:2b:b1:6f:c9:b8:fe:3b:a9:bf:97:87:6f:cc:
         b7:fd:1d:24:cd:8d:e2:b2:b9:c9:b5:8e:69:04:3a:63:66:e3:
         95:6c:74:e8:c7:09:f5:60:e3:09:78:f6:08:52:c5:22:f9:a1:
         8c:78:d7:e4:17:1c:b7:b1:45:50:a1:22:4c:63:af:b1:00:04:
         02:99:86:a5:81:57:6a:94:5d:12:3e:05:fe:b7:76:cd:98:ad:
         70:52:ea:da:52:24:25:1c:79:ad:ae:3e:46:3c:c9:8d:7f:e0:
         f6:39:6f:f6:6d:46:2c:92:0a:4d:85:4d:4e:cd:b2:9d:c1:6f:
         ed:4f:5c:3c:51:e4:74:ca:e7:6c:55:c5:e7:81:d0:78:33:60:
         a1:16:08:7d:13:1e:e2:62:88:af:ca:9c:31:eb:9f:62:a1:02:
         ff:ce:85:af:86:4e:92:9f:03:d1:44:71:6e:db:6b:14:6d:d0:
         53:75:b8:11:ad:ba:2f:9a:7d:75:0f:d4:d0:f7:c8:7a:f1:bf:
         e6:d0:66:18:1f:91:96:33:da:9b:42:55:c4:7d:43:56:1a:5f:
         17:ab:8f:48:e4:51:bb:3f:5b:50:21:36:93:ef:eb:c0:cb:c7:
         c6:c4:b5:67:db:2d:45:53:ad:a8:32:76:cb:34:03:e5:a2:20:
         cb:c9:26:3c:70:a3:af:42:63:97:9d:6d:c0:39:47:b5:17:14:
         0d:0f:d6:ef:93:cb:6e:e3:fc:26:4e:df:b8:86:12:0b:b6:d8:
         35:b6:3f:ff:e4:1f:c6:70:80:df:f7:65:cb:db:b5:96:0b:29:
         68:dc:b7:e1:7d:4d:f8:65
-----BEGIN CERTIFICATE-----
MIIHUTCCBQmgAwIBAgIQSuhV3cKqvVcGcqtzz6IFHjA9BgkqhkiG9w0BAQowMKAN
MAsGCWCGSAFlAwQCA6EaMBgGCSqGSIb3DQEBCDALBglghkgBZQMEAgOiAwIBQDBb
MQswCQYDVQQGEwJERTEVMBMGA1UEChMMRC1UcnVzdCBHbWJIMRwwGgYDVQQDExNE
LVRSVVNUIENBIDItMiAyMDE5MRcwFQYDVQRhEw5OVFJERS1IUkI3NDM0NjAeFw0y
MTA2MDcxMDIyNDlaFw0yMzA2MTExMDIyNDlaMIHrMQswCQYDVQQGEwJERTEdMBsG
A1UEChMUUm9iZXJ0IEtvY2gtSW5zdGl0dXQxJDAiBgNVBAsTG0VsZWt0cm9uaXNj
aGVyIEltcGZuYWNod2VpczEdMBsGA1UEAxMUUm9iZXJ0IEtvY2gtSW5zdGl0dXQx
DzANBgNVBAcTBkJlcmxpbjEOMAwGA1UEEQwFMTMzNTMxFDASBgNVBAkTC05vcmR1
ZmVyIDIwMRkwFwYDVQRhExBEVDpERS0zMDIzNTMxNDQ1MRUwEwYDVQQFEwxDU00w
MjY0MTQwNTQxDzANBgNVBAgTBkJlcmxpbjBZMBMGByqGSM49AgEGCCqGSM49AwEH
A0IABO9TdqR+mMguoH1B8IhCQ8yMcDCFvx7PgoJ/4D0G2QJBXMl/y0xNo9oGQ/IS
7OeUxK00yqJLx5KxDlrR2JCA4cmjggLpMIIC5TAfBgNVHSMEGDAWgBRxEDKudHF7
VI7x1qtiVK78PsC7FjAtBggrBgEFBQcBAwQhMB8wCAYGBACORgEBMBMGBgQAjkYB
BjAJBgcEAI5GAQYCMIH+BggrBgEFBQcBAQSB8TCB7jA3BggrBgEFBQcwAYYraHR0
cDovL2QtdHJ1c3QtY2EtMi0yLTIwMTkub2NzcC5kLXRydXN0Lm5ldDBCBggrBgEF
BQcwAoY2aHR0cDovL3d3dy5kLXRydXN0Lm5ldC9jZ2ktYmluL0QtVFJVU1RfQ0Ff
Mi0yXzIwMTkuY3J0MG8GCCsGAQUFBzAChmNsZGFwOi8vZGlyZWN0b3J5LmQtdHJ1
c3QubmV0L0NOPUQtVFJVU1QlMjBDQSUyMDItMiUyMDIwMTksTz1ELVRydXN0JTIw
R21iSCxDPURFP2NBQ2VydGlmaWNhdGU/YmFzZT8wcAYDVR0gBGkwZzAJBgcEAIvs
QAEBMFoGCysGAQQBpTQCgRYFMEswSQYIKwYBBQUHAgEWPWh0dHA6Ly93d3cuZC10
cnVzdC5uZXQvaW50ZXJuZXQvZmlsZXMvRC1UUlVTVF9DU01fUEtJX0NQUy5wZGYw
gfAGA1UdHwSB6DCB5TCB4qCB36CB3IZpbGRhcDovL2RpcmVjdG9yeS5kLXRydXN0
Lm5ldC9DTj1ELVRSVVNUJTIwQ0ElMjAyLTIlMjAyMDE5LE89RC1UcnVzdCUyMEdt
YkgsQz1ERT9jZXJ0aWZpY2F0ZXJldm9jYXRpb25saXN0hjJodHRwOi8vY3JsLmQt
dHJ1c3QubmV0L2NybC9kLXRydXN0X2NhXzItMl8yMDE5LmNybIY7aHR0cDovL2Nk
bi5kLXRydXN0LWNsb3VkY3JsLm5ldC9jcmwvZC10cnVzdF9jYV8yLTJfMjAxOS5j
cmwwHQYDVR0OBBYEFLlRoAMGPYut918BbdhfvFXO7jzWMA4GA1UdDwEB/wQEAwIG
wDA9BgkqhkiG9w0BAQowMKANMAsGCWCGSAFlAwQCA6EaMBgGCSqGSIb3DQEBCDAL
BglghkgBZQMEAgOiAwIBQAOCAgEAhyUUkF85+PvcFjzwm2anqscqlPcsRCtCjMfL
TQYeKAv1SU+ywpgQnXvk9WLONkAMY8VuZGwxVzl4tJtYF7UCP2Ic79vMW7UzuZQE
s+YTIy4Do0r382d8GFMF+v2s2ZIZo5xOLykgCUtT58WDqy4Kc4JEmmY0NvrRRj3l
UsMcZXTUA/E8r+Gs/cW9LWGPHmd1/D0R/fMlCVvW7JLIt5vf2nj7YIc+100JSn5o
VJeXTweizve0oEQx2FUjX2I76b+G0RUK0bcN3ZZNsUorsW/JuP47qb+Xh2/Mt/0d
JM2N4rK5ybWOaQQ6Y2bjlWx06McJ9WDjCXj2CFLFIvmhjHjX5Bcct7FFUKEiTGOv
sQAEApmGpYFXapRdEj4F/rd2zZitcFLq2lIkJRx5ra4+RjzJjX/g9jlv9m1GLJIK
TYVNTs2yncFv7U9cPFHkdMrnbFXF54HQeDNgoRYIfRMe4mKIr8qcMeufYqEC/86F
r4ZOkp8D0URxbttrFG3QU3W4Ea26L5p9dQ/U0PfIevG/5tBmGB+RljPam0JVxH1D
VhpfF6uPSORRuz9bUCE2k+/rwMvHxsS1Z9stRVOtqDJ2yzQD5aIgy8kmPHCjr0Jj
l51twDlHtRcUDQ/W75PLbuP8Jk7fuIYSC7bYNbY//+QfxnCA3/dly9u1lgspaNy3
4X1N+GU=
-----END CERTIFICATE-----
