Certificate:
    Data:
        Version: 3 (0x2)
        Serial Number:
            6e:07:56:75:45:c1:8e:24:e2:f6:a7:75:a3:f8:a9:bf
    Signature Algorithm: rsassaPss
         Hash Algorithm: sha512
         Mask Algorithm: mgf1 with sha512
         Salt Length: 0x40
         Trailer Field: 0xBC (default)
        Issuer: C = DE, O = D-Trust GmbH, CN = D-TRUST CA 2-2 2019, 2.5.4.97 = NTRDE-HRB74346
        Validity
            Not Before: Jun  3 10:56:04 2021 GMT
            Not After : Jun  7 10:56:04 2023 GMT
        Subject: C = DE, O = Robert Koch-Institut, OU = Elektronischer Impfnachweis, CN = Robert Koch-Institut, L = Berlin, postalCode = 13353, street = Nordufer 20, 2.5.4.97 = DT:DE-3023531445, serialNumber = CSM026383019, ST = Berlin
        Subject Public Key Info:
            Public Key Algorithm: id-ecPublicKey
                Public-Key: (256 bit)
                pub:
                    04:b8:28:0d:5f:95:54:9a:9e:ff:94:de:ff:50:31:
                    79:91:10:f3:ee:ab:d6:9e:98:05:38:ac:2f:d4:0c:
                    49:5d:b4:af:c0:98:f9:00:33:8f:f7:01:80:b2:87:
                    28:48:9b:4f:af:72:db:8d:b9:aa:02:a9:dd:ae:0a:
                    f7:f3:7d:7e:b6
                ASN1 OID: prime256v1
                NIST CURVE: P-256
        X509v3 extensions:
            X509v3 Authority Key Identifier: 
                keyid:71:10:32:AE:74:71:7B:54:8E:F1:D6:AB:62:54:AE:FC:3E:C0:BB:16

            qcStatements: 
                0.0......F..0......F..0......F...
            Authority Information Access: 
                OCSP - URI:http://d-trust-ca-2-2-2019.ocsp.d-trust.net
                CA Issuers - URI:http://www.d-trust.net/cgi-bin/D-TRUST_CA_2-2_2019.crt
                CA Issuers - URI:ldap://directory.d-trust.net/CN=D-TRUST%20CA%202-2%202019,O=D-Trust%20GmbH,C=DE?cACertificate?base?

            X509v3 Certificate Policies: 
                Policy: 0.4.0.194112.1.1
                Policy: 1.3.6.1.4.1.4788.2.150.5
                  CPS: http://www.d-trust.net/internet/files/D-TRUST_CSM_PKI_CPS.pdf

            X509v3 CRL Distribution Points: 

                Full Name:
                  URI:ldap://directory.d-trust.net/CN=D-TRUST%20CA%202-2%202019,O=D-Trust%20GmbH,C=DE?certificaterevocationlist
                  URI:http://crl.d-trust.net/crl/d-trust_ca_2-2_2019.crl
                  URI:http://cdn.d-trust-cloudcrl.net/crl/d-trust_ca_2-2_2019.crl

            X509v3 Subject Key Identifier: 
                CD:15:7B:73:51:0D:27:8B:85:52:98:B6:7A:60:4B:67:8C:A8:18:6D
            X509v3 Key Usage: critical
                Digital Signature, Non Repudiation
    Signature Algorithm: rsassaPss
         Hash Algorithm: sha512
         Mask Algorithm: mgf1 with sha512
         Salt Length: 0x40
         Trailer Field: 0xBC (default)

         1a:03:ee:a6:a6:87:74:c8:4f:50:41:cb:f0:71:49:49:3b:87:
         65:7e:64:a4:d2:3c:e4:22:ff:15:70:cb:7c:29:b5:df:13:b0:
         b8:79:df:58:ac:2b:d0:9e:3a:c9:5e:ad:f3:de:a1:bc:0e:ee:
         dc:dc:99:0c:42:8c:d4:58:c2:3f:27:e0:cc:5d:58:3a:e5:5b:
         06:9e:fd:41:f2:43:8d:c2:7b:0e:9a:56:25:7f:69:ee:99:0a:
         0c:e3:87:c9:ab:c2:76:08:0d:3f:30:62:07:61:c6:64:d3:72:
         ec:c9:d5:f8:66:92:9f:3f:f0:f2:f7:c8:45:e5:ff:65:bb:88:
         ce:e3:ba:80:35:20:c2:34:f0:7a:d4:40:d3:7d:3d:fb:23:20:
         f9:89:90:5e:2d:91:b3:dc:86:93:60:9f:ef:46:b2:9e:3f:58:
         d0:0a:37:f8:a2:d9:4f:fd:bf:a4:08:83:9e:22:7f:b7:95:a4:
         ed:a3:24:4a:86:55:c9:aa:54:48:a9:6d:62:e7:25:34:72:a8:
         39:c3:4d:27:92:e1:17:34:e8:b6:65:0a:d6:0e:a4:b3:5f:39:
         d9:ed:64:1a:9c:24:c7:d8:fe:06:29:78:5c:94:f1:a4:7a:02:
         f7:5e:b9:7f:2e:db:39:09:60:4b:ed:44:57:74:5a:66:79:21:
         38:30:b5:36:3f:aa:9a:69:91:45:a3:95:15:7f:88:12:a6:15:
         dc:3a:c6:d2:1d:c2:6e:70:56:f0:96:0d:db:75:c4:22:98:84:
         52:11:ef:1d:dd:c1:29:f7:10:61:0d:ae:75:f5:51:fc:34:30:
         67:8b:d5:19:44:56:6e:48:1e:0c:e0:d4:37:cb:91:ea:86:6a:
         73:62:be:fd:a0:99:35:21:83:e9:c7:82:de:28:63:44:c9:b3:
         4d:80:b6:06:12:ad:4c:4e:65:d1:15:22:4b:8f:71:8c:1e:c7:
         73:10:8a:91:c6:24:ea:c1:9f:14:e8:bc:ba:ba:2b:d0:49:43:
         37:99:35:ec:66:de:7e:75:97:b0:2d:e0:f1:6e:e2:0f:c1:91:
         8c:1a:1f:65:a6:48:96:77:b0:ff:38:e2:da:64:90:86:1c:7e:
         8d:27:bf:8c:25:92:71:3d:98:ab:6b:7b:8f:86:43:df:10:55:
         e9:a5:ec:f4:4e:7c:72:ce:8b:f7:a2:9b:b1:a0:a5:5c:ba:a4:
         9e:ff:d2:3a:4e:9b:05:82:45:10:32:2d:de:80:7f:92:de:f0:
         6f:6e:52:83:07:9b:69:6b:31:5c:11:bb:98:2d:87:7e:01:a6:
         bc:cc:8e:f8:a0:de:9b:2b:9e:21:87:a3:7b:35:50:fe:d7:3e:
         75:5e:50:86:ba:41:9c:0b
-----BEGIN CERTIFICATE-----
MIIHUTCCBQmgAwIBAgIQbgdWdUXBjiTi9qd1o/ipvzA9BgkqhkiG9w0BAQowMKAN
MAsGCWCGSAFlAwQCA6EaMBgGCSqGSIb3DQEBCDALBglghkgBZQMEAgOiAwIBQDBb
MQswCQYDVQQGEwJERTEVMBMGA1UEChMMRC1UcnVzdCBHbWJIMRwwGgYDVQQDExNE
LVRSVVNUIENBIDItMiAyMDE5MRcwFQYDVQRhEw5OVFJERS1IUkI3NDM0NjAeFw0y
MTA2MDMxMDU2MDRaFw0yMzA2MDcxMDU2MDRaMIHrMQswCQYDVQQGEwJERTEdMBsG
A1UEChMUUm9iZXJ0IEtvY2gtSW5zdGl0dXQxJDAiBgNVBAsTG0VsZWt0cm9uaXNj
aGVyIEltcGZuYWNod2VpczEdMBsGA1UEAxMUUm9iZXJ0IEtvY2gtSW5zdGl0dXQx
DzANBgNVBAcTBkJlcmxpbjEOMAwGA1UEEQwFMTMzNTMxFDASBgNVBAkTC05vcmR1
ZmVyIDIwMRkwFwYDVQRhExBEVDpERS0zMDIzNTMxNDQ1MRUwEwYDVQQFEwxDU00w
MjYzODMwMTkxDzANBgNVBAgTBkJlcmxpbjBZMBMGByqGSM49AgEGCCqGSM49AwEH
A0IABLgoDV+VVJqe/5Te/1AxeZEQ8+6r1p6YBTisL9QMSV20r8CY+QAzj/cBgLKH
KEibT69y2425qgKp3a4K9/N9frajggLpMIIC5TAfBgNVHSMEGDAWgBRxEDKudHF7
VI7x1qtiVK78PsC7FjAtBggrBgEFBQcBAwQhMB8wCAYGBACORgEBMBMGBgQAjkYB
BjAJBgcEAI5GAQYCMIH+BggrBgEFBQcBAQSB8TCB7jA3BggrBgEFBQcwAYYraHR0
cDovL2QtdHJ1c3QtY2EtMi0yLTIwMTkub2NzcC5kLXRydXN0Lm5ldDBCBggrBgEF
BQcwAoY2aHR0cDovL3d3dy5kLXRydXN0Lm5ldC9jZ2ktYmluL0QtVFJVU1RfQ0Ff
Mi0yXzIwMTkuY3J0MG8GCCsGAQUFBzAChmNsZGFwOi8vZGlyZWN0b3J5LmQtdHJ1
c3QubmV0L0NOPUQtVFJVU1QlMjBDQSUyMDItMiUyMDIwMTksTz1ELVRydXN0JTIw
R21iSCxDPURFP2NBQ2VydGlmaWNhdGU/YmFzZT8wcAYDVR0gBGkwZzAJBgcEAIvs
QAEBMFoGCysGAQQBpTQCgRYFMEswSQYIKwYBBQUHAgEWPWh0dHA6Ly93d3cuZC10
cnVzdC5uZXQvaW50ZXJuZXQvZmlsZXMvRC1UUlVTVF9DU01fUEtJX0NQUy5wZGYw
gfAGA1UdHwSB6DCB5TCB4qCB36CB3IZpbGRhcDovL2RpcmVjdG9yeS5kLXRydXN0
Lm5ldC9DTj1ELVRSVVNUJTIwQ0ElMjAyLTIlMjAyMDE5LE89RC1UcnVzdCUyMEdt
YkgsQz1ERT9jZXJ0aWZpY2F0ZXJldm9jYXRpb25saXN0hjJodHRwOi8vY3JsLmQt
dHJ1c3QubmV0L2NybC9kLXRydXN0X2NhXzItMl8yMDE5LmNybIY7aHR0cDovL2Nk
bi5kLXRydXN0LWNsb3VkY3JsLm5ldC9jcmwvZC10cnVzdF9jYV8yLTJfMjAxOS5j
cmwwHQYDVR0OBBYEFM0Ve3NRDSeLhVKYtnpgS2eMqBhtMA4GA1UdDwEB/wQEAwIG
wDA9BgkqhkiG9w0BAQowMKANMAsGCWCGSAFlAwQCA6EaMBgGCSqGSIb3DQEBCDAL
BglghkgBZQMEAgOiAwIBQAOCAgEAGgPupqaHdMhPUEHL8HFJSTuHZX5kpNI85CL/
FXDLfCm13xOwuHnfWKwr0J46yV6t896hvA7u3NyZDEKM1FjCPyfgzF1YOuVbBp79
QfJDjcJ7DppWJX9p7pkKDOOHyavCdggNPzBiB2HGZNNy7MnV+GaSnz/w8vfIReX/
ZbuIzuO6gDUgwjTwetRA0309+yMg+YmQXi2Rs9yGk2Cf70aynj9Y0Ao3+KLZT/2/
pAiDniJ/t5Wk7aMkSoZVyapUSKltYuclNHKoOcNNJ5LhFzTotmUK1g6ks1852e1k
Gpwkx9j+Bil4XJTxpHoC9165fy7bOQlgS+1EV3RaZnkhODC1Nj+qmmmRRaOVFX+I
EqYV3DrG0h3CbnBW8JYN23XEIpiEUhHvHd3BKfcQYQ2udfVR/DQwZ4vVGURWbkge
DODUN8uR6oZqc2K+/aCZNSGD6ceC3ihjRMmzTYC2BhKtTE5l0RUiS49xjB7HcxCK
kcYk6sGfFOi8uror0ElDN5k17GbefnWXsC3g8W7iD8GRjBofZaZIlnew/zji2mSQ
hhx+jSe/jCWScT2Yq2t7j4ZD3xBV6aXs9E58cs6L96KbsaClXLqknv/SOk6bBYJF
EDIt3oB/kt7wb25SgwebaWsxXBG7mC2HfgGmvMyO+KDemyueIYejezVQ/tc+dV5Q
hrpBnAs=
-----END CERTIFICATE-----
