Certificate:
    Data:
        Version: 3 (0x2)
        Serial Number:
            74:5e:a1:63:cb:38:26:d7:f2:07:70:51:ea:e7:fd:a5
    Signature Algorithm: rsassaPss
         Hash Algorithm: sha512
         Mask Algorithm: mgf1 with sha512
         Salt Length: 0x40
         Trailer Field: 0xBC (default)
        Issuer: C = DE, O = D-Trust GmbH, CN = D-TRUST CA 2-2 2019, 2.5.4.97 = NTRDE-HRB74346
        Validity
            Not Before: Jun  3 10:40:44 2021 GMT
            Not After : Jun  7 10:40:44 2023 GMT
        Subject: C = DE, O = Robert Koch-Institut, OU = Elektronischer Impfnachweis, CN = Robert Koch-Institut, L = Berlin, postalCode = 13353, street = Nordufer 20, 2.5.4.97 = DT:DE-3023531445, serialNumber = CSM026382791, ST = Berlin
        Subject Public Key Info:
            Public Key Algorithm: id-ecPublicKey
                Public-Key: (256 bit)
                pub:
                    04:f2:76:6b:2e:a3:25:c3:91:2f:75:fb:c9:5e:0c:
                    5b:da:b5:e3:f4:e0:53:d9:45:81:a8:01:4b:78:2a:
                    10:5e:e6:3e:60:e6:49:a5:4b:4b:e3:01:50:1c:c1:
                    8f:6e:fc:a8:5a:fb:dc:7d:6b:6b:cf:76:57:1f:06:
                    9a:8a:04:06:fc
                ASN1 OID: prime256v1
                NIST CURVE: P-256
        X509v3 extensions:
            X509v3 Authority Key Identifier: 
                keyid:71:10:32:AE:74:71:7B:54:8E:F1:D6:AB:62:54:AE:FC:3E:C0:BB:16

            qcStatements: 
                0.0......F..0......F..0......F...
            Authority Information Access: 
                OCSP - URI:http://d-trust-ca-2-2-2019.ocsp.d-trust.net
                CA Issuers - URI:http://www.d-trust.net/cgi-bin/D-TRUST_CA_2-2_2019.crt
                CA Issuers - URI:ldap://directory.d-trust.net/CN=D-TRUST%20CA%202-2%202019,O=D-Trust%20GmbH,C=DE?cACertificate?base?

            X509v3 Certificate Policies: 
                Policy: 0.4.0.194112.1.1
                Policy: 1.3.6.1.4.1.4788.2.150.5
                  CPS: http://www.d-trust.net/internet/files/D-TRUST_CSM_PKI_CPS.pdf

            X509v3 CRL Distribution Points: 

                Full Name:
                  URI:ldap://directory.d-trust.net/CN=D-TRUST%20CA%202-2%202019,O=D-Trust%20GmbH,C=DE?certificaterevocationlist
                  URI:http://crl.d-trust.net/crl/d-trust_ca_2-2_2019.crl
                  URI:http://cdn.d-trust-cloudcrl.net/crl/d-trust_ca_2-2_2019.crl

            X509v3 Subject Key Identifier: 
                15:44:F7:FD:75:8E:53:B7:B4:AB:6C:10:CD:C3:32:0F:A4:8A:DB:3A
            X509v3 Key Usage: critical
                Digital Signature, Non Repudiation
    Signature Algorithm: rsassaPss
         Hash Algorithm: sha512
         Mask Algorithm: mgf1 with sha512
         Salt Length: 0x40
         Trailer Field: 0xBC (default)

         97:dc:b6:56:2d:23:52:10:32:22:6d:5a:c7:97:b7:0e:48:e0:
         59:f4:ea:d4:6d:f6:cb:a8:8e:3f:95:d8:07:06:dc:a6:49:0b:
         7e:03:bd:ab:5e:af:85:d9:f1:bf:09:13:fc:75:1e:04:0c:b1:
         f0:da:6f:e5:dc:23:95:33:aa:94:42:29:10:cf:cd:14:d9:6e:
         65:99:1f:d0:63:7b:6e:25:f8:72:5d:95:10:52:bc:8a:83:f6:
         f7:9d:ad:d9:95:2a:8a:6c:f0:ec:f3:02:7f:e5:ac:1a:44:64:
         d2:6d:df:c2:5f:49:1c:31:6f:17:6d:1c:cf:11:62:df:5d:5b:
         98:31:07:47:6a:61:82:48:23:b5:90:c2:d2:2a:85:e3:62:27:
         e9:30:91:c7:ee:fc:3f:f4:8c:da:7b:41:23:03:2a:20:43:2e:
         d9:40:71:90:e3:40:1a:e9:e6:00:2d:ce:7f:b5:78:32:61:08:
         c7:bc:db:a6:2b:25:31:b2:29:fc:ad:12:e7:83:1f:43:b8:ac:
         8b:04:d6:e5:6c:55:45:b9:ea:3e:98:44:b8:cc:2c:2a:6b:c5:
         0e:a7:15:32:7d:65:a1:d0:8e:c0:c0:b6:52:93:d1:e9:c7:10:
         e3:eb:8f:f3:de:b8:13:02:bd:8a:77:4d:24:f8:c4:c4:97:41:
         75:76:58:77:9b:b6:3b:2d:e2:82:29:19:f4:43:87:07:c0:91:
         d6:cf:b2:65:30:d6:7f:e5:08:e7:f0:12:63:39:8a:74:d4:2f:
         b1:d3:79:a0:a5:ab:42:67:ad:34:cf:b9:72:aa:24:38:4f:8b:
         f7:f4:4c:37:5f:fb:a2:17:7c:69:10:59:f7:4b:39:15:4f:13:
         24:1a:d2:01:50:b1:49:5f:ff:00:34:3f:f8:14:19:da:04:86:
         56:bb:f7:ae:f4:5f:6d:3c:29:d8:c2:a1:ba:56:9a:01:a5:a6:
         02:2a:84:36:2b:99:7c:db:89:3b:f4:e6:2e:68:80:83:48:03:
         f0:d0:6b:5b:9e:07:ac:7e:da:ab:ed:52:41:55:48:86:56:46:
         f6:f7:1c:b5:89:d1:80:a6:0f:38:3f:49:23:63:ac:97:53:09:
         da:5d:a2:dc:8d:31:58:3f:de:cf:6a:ff:02:62:4a:45:0f:b7:
         82:5c:9c:22:95:d5:e0:81:d0:dd:f6:ea:2e:c0:ed:4e:fe:43:
         5c:8a:7b:9c:ff:be:e5:cc:1e:e9:82:57:28:88:b6:0d:fa:59:
         1a:ad:ed:b3:1e:9d:91:bc:52:ec:d4:08:e6:91:1d:18:e9:b3:
         5b:80:b3:de:f2:57:73:5e:59:a7:dc:5a:b4:50:e5:c6:5e:74:
         e9:90:10:e1:79:03:b9:33
-----BEGIN CERTIFICATE-----
MIIHUTCCBQmgAwIBAgIQdF6hY8s4JtfyB3BR6uf9pTA9BgkqhkiG9w0BAQowMKAN
MAsGCWCGSAFlAwQCA6EaMBgGCSqGSIb3DQEBCDALBglghkgBZQMEAgOiAwIBQDBb
MQswCQYDVQQGEwJERTEVMBMGA1UEChMMRC1UcnVzdCBHbWJIMRwwGgYDVQQDExNE
LVRSVVNUIENBIDItMiAyMDE5MRcwFQYDVQRhEw5OVFJERS1IUkI3NDM0NjAeFw0y
MTA2MDMxMDQwNDRaFw0yMzA2MDcxMDQwNDRaMIHrMQswCQYDVQQGEwJERTEdMBsG
A1UEChMUUm9iZXJ0IEtvY2gtSW5zdGl0dXQxJDAiBgNVBAsTG0VsZWt0cm9uaXNj
aGVyIEltcGZuYWNod2VpczEdMBsGA1UEAxMUUm9iZXJ0IEtvY2gtSW5zdGl0dXQx
DzANBgNVBAcTBkJlcmxpbjEOMAwGA1UEEQwFMTMzNTMxFDASBgNVBAkTC05vcmR1
ZmVyIDIwMRkwFwYDVQRhExBEVDpERS0zMDIzNTMxNDQ1MRUwEwYDVQQFEwxDU00w
MjYzODI3OTExDzANBgNVBAgTBkJlcmxpbjBZMBMGByqGSM49AgEGCCqGSM49AwEH
A0IABPJ2ay6jJcORL3X7yV4MW9q14/TgU9lFgagBS3gqEF7mPmDmSaVLS+MBUBzB
j278qFr73H1ra892Vx8GmooEBvyjggLpMIIC5TAfBgNVHSMEGDAWgBRxEDKudHF7
VI7x1qtiVK78PsC7FjAtBggrBgEFBQcBAwQhMB8wCAYGBACORgEBMBMGBgQAjkYB
BjAJBgcEAI5GAQYCMIH+BggrBgEFBQcBAQSB8TCB7jA3BggrBgEFBQcwAYYraHR0
cDovL2QtdHJ1c3QtY2EtMi0yLTIwMTkub2NzcC5kLXRydXN0Lm5ldDBCBggrBgEF
BQcwAoY2aHR0cDovL3d3dy5kLXRydXN0Lm5ldC9jZ2ktYmluL0QtVFJVU1RfQ0Ff
Mi0yXzIwMTkuY3J0MG8GCCsGAQUFBzAChmNsZGFwOi8vZGlyZWN0b3J5LmQtdHJ1
c3QubmV0L0NOPUQtVFJVU1QlMjBDQSUyMDItMiUyMDIwMTksTz1ELVRydXN0JTIw
R21iSCxDPURFP2NBQ2VydGlmaWNhdGU/YmFzZT8wcAYDVR0gBGkwZzAJBgcEAIvs
QAEBMFoGCysGAQQBpTQCgRYFMEswSQYIKwYBBQUHAgEWPWh0dHA6Ly93d3cuZC10
cnVzdC5uZXQvaW50ZXJuZXQvZmlsZXMvRC1UUlVTVF9DU01fUEtJX0NQUy5wZGYw
gfAGA1UdHwSB6DCB5TCB4qCB36CB3IZpbGRhcDovL2RpcmVjdG9yeS5kLXRydXN0
Lm5ldC9DTj1ELVRSVVNUJTIwQ0ElMjAyLTIlMjAyMDE5LE89RC1UcnVzdCUyMEdt
YkgsQz1ERT9jZXJ0aWZpY2F0ZXJldm9jYXRpb25saXN0hjJodHRwOi8vY3JsLmQt
dHJ1c3QubmV0L2NybC9kLXRydXN0X2NhXzItMl8yMDE5LmNybIY7aHR0cDovL2Nk
bi5kLXRydXN0LWNsb3VkY3JsLm5ldC9jcmwvZC10cnVzdF9jYV8yLTJfMjAxOS5j
cmwwHQYDVR0OBBYEFBVE9/11jlO3tKtsEM3DMg+kits6MA4GA1UdDwEB/wQEAwIG
wDA9BgkqhkiG9w0BAQowMKANMAsGCWCGSAFlAwQCA6EaMBgGCSqGSIb3DQEBCDAL
BglghkgBZQMEAgOiAwIBQAOCAgEAl9y2Vi0jUhAyIm1ax5e3DkjgWfTq1G32y6iO
P5XYBwbcpkkLfgO9q16vhdnxvwkT/HUeBAyx8Npv5dwjlTOqlEIpEM/NFNluZZkf
0GN7biX4cl2VEFK8ioP2952t2ZUqimzw7PMCf+WsGkRk0m3fwl9JHDFvF20czxFi
311bmDEHR2phgkgjtZDC0iqF42In6TCRx+78P/SM2ntBIwMqIEMu2UBxkONAGunm
AC3Of7V4MmEIx7zbpislMbIp/K0S54MfQ7isiwTW5WxVRbnqPphEuMwsKmvFDqcV
Mn1lodCOwMC2UpPR6ccQ4+uP8964EwK9indNJPjExJdBdXZYd5u2Oy3igikZ9EOH
B8CR1s+yZTDWf+UI5/ASYzmKdNQvsdN5oKWrQmetNM+5cqokOE+L9/RMN1/7ohd8
aRBZ90s5FU8TJBrSAVCxSV//ADQ/+BQZ2gSGVrv3rvRfbTwp2MKhulaaAaWmAiqE
NiuZfNuJO/TmLmiAg0gD8NBrW54HrH7aq+1SQVVIhlZG9vcctYnRgKYPOD9JI2Os
l1MJ2l2i3I0xWD/ez2r/AmJKRQ+3glycIpXV4IHQ3fbqLsDtTv5DXIp7nP++5cwe
6YJXKIi2DfpZGq3tsx6dkbxS7NQI5pEdGOmzW4Cz3vJXc15Zp9xatFDlxl506ZAQ
4XkDuTM=
-----END CERTIFICATE-----
