Certificate:
    Data:
        Version: 3 (0x2)
        Serial Number:
            70:08:b0:73:28:4b:4e:d5:aa:37:bd:58:a4:85:fe:c9
    Signature Algorithm: rsassaPss
         Hash Algorithm: sha512
         Mask Algorithm: mgf1 with sha512
         Salt Length: 0x40
         Trailer Field: 0xBC (default)
        Issuer: C = DE, O = D-Trust GmbH, CN = D-TRUST CA 2-2 2019, 2.5.4.97 = NTRDE-HRB74346
        Validity
            Not Before: Jun  3 10:38:57 2021 GMT
            Not After : Jun  7 10:38:57 2023 GMT
        Subject: C = DE, O = Robert Koch-Institut, OU = Elektronischer Impfnachweis, CN = Robert Koch-Institut, L = Berlin, postalCode = 13353, street = Nordufer 20, 2.5.4.97 = DT:DE-3023531445, serialNumber = CSM026382773, ST = Berlin
        Subject Public Key Info:
            Public Key Algorithm: id-ecPublicKey
                Public-Key: (256 bit)
                pub:
                    04:1d:93:39:00:c0:48:99:ca:9d:28:f1:4c:e8:fe:
                    71:c7:42:e6:67:1a:3c:d4:d7:27:bb:27:6b:74:f5:
                    10:69:a6:b4:36:1b:11:72:db:97:e2:a0:7c:61:27:
                    76:a4:6d:76:8a:5c:12:49:f1:1c:82:3b:bc:23:b0:
                    2c:14:94:80:39
                ASN1 OID: prime256v1
                NIST CURVE: P-256
        X509v3 extensions:
            X509v3 Authority Key Identifier: 
                keyid:71:10:32:AE:74:71:7B:54:8E:F1:D6:AB:62:54:AE:FC:3E:C0:BB:16

            qcStatements: 
                0.0......F..0......F..0......F...
            Authority Information Access: 
                OCSP - URI:http://d-trust-ca-2-2-2019.ocsp.d-trust.net
                CA Issuers - URI:http://www.d-trust.net/cgi-bin/D-TRUST_CA_2-2_2019.crt
                CA Issuers - URI:ldap://directory.d-trust.net/CN=D-TRUST%20CA%202-2%202019,O=D-Trust%20GmbH,C=DE?cACertificate?base?

            X509v3 Certificate Policies: 
                Policy: 0.4.0.194112.1.1
                Policy: 1.3.6.1.4.1.4788.2.150.5
                  CPS: http://www.d-trust.net/internet/files/D-TRUST_CSM_PKI_CPS.pdf

            X509v3 CRL Distribution Points: 

                Full Name:
                  URI:ldap://directory.d-trust.net/CN=D-TRUST%20CA%202-2%202019,O=D-Trust%20GmbH,C=DE?certificaterevocationlist
                  URI:http://crl.d-trust.net/crl/d-trust_ca_2-2_2019.crl
                  URI:http://cdn.d-trust-cloudcrl.net/crl/d-trust_ca_2-2_2019.crl

            X509v3 Subject Key Identifier: 
                21:75:D8:CF:6C:C3:08:C3:1E:DA:E7:81:DF:35:EA:D3:59:91:EC:B5
            X509v3 Key Usage: critical
                Digital Signature, Non Repudiation
    Signature Algorithm: rsassaPss
         Hash Algorithm: sha512
         Mask Algorithm: mgf1 with sha512
         Salt Length: 0x40
         Trailer Field: 0xBC (default)

         bf:f3:84:78:bc:20:7a:2b:dd:36:2a:62:cb:9c:cc:b0:e6:10:
         63:af:53:d7:86:ea:1a:db:fa:6e:bf:e8:9c:bb:de:5c:08:dd:
         6d:1b:5f:b2:b3:b8:6a:6f:03:43:7a:ad:7a:90:23:63:02:92:
         b1:1e:f7:4c:29:bb:14:59:7f:96:af:1d:6c:df:73:3e:d4:23:
         ac:a8:a1:da:58:c8:e5:85:22:89:c3:15:75:cc:6d:93:d9:bf:
         9b:45:91:4f:a5:e5:9b:42:30:06:d4:eb:3c:3a:ae:83:7d:29:
         a9:e9:34:ed:6b:bb:b4:5a:db:39:4a:cd:d9:4b:ab:3b:80:f3:
         f9:5f:39:f2:12:b4:95:3e:05:e4:0e:0e:0a:6d:78:10:c7:c2:
         f3:88:07:c1:00:7f:60:f1:a5:b6:dd:4a:0d:13:0f:bd:a4:9b:
         70:ec:6f:0a:2b:0c:8a:a7:25:c4:34:63:42:42:0c:6d:d1:5a:
         ad:9d:70:66:a3:05:55:a2:15:2f:2e:49:de:75:f6:6a:4a:9a:
         a4:b3:a0:00:aa:43:d4:64:db:83:7f:91:44:6a:8a:37:c7:c5:
         48:10:ef:2a:23:12:8e:77:37:9d:c7:f4:8a:4c:96:65:60:be:
         91:57:41:75:12:d3:19:f8:bc:da:36:32:08:ea:74:b9:06:3c:
         c8:db:92:80:a9:ef:2e:91:73:22:4b:d6:26:65:e0:76:c0:c1:
         1c:a3:a6:ca:fc:58:e2:07:db:c4:79:51:a6:0c:c7:87:c3:0b:
         96:b9:37:e2:fb:07:95:c8:df:52:a0:d1:5d:c4:74:d6:c3:90:
         93:3e:fb:5f:3b:30:cd:1d:2e:36:e0:56:e8:80:af:a6:68:7e:
         47:d2:2f:78:6f:bc:e4:05:dc:7b:51:14:bf:28:6c:08:3f:63:
         cd:83:69:a9:d1:69:bf:3a:ab:aa:c8:f6:e2:11:a0:66:96:a7:
         08:21:f2:82:3b:94:06:be:06:9e:52:c0:8f:a1:86:23:68:14:
         76:db:ed:38:71:92:4c:cf:6a:d6:f1:fb:3a:71:48:dc:31:33:
         f2:f5:36:3d:f3:6a:b0:f1:c4:e2:a4:fc:54:b8:b9:e6:97:88:
         25:69:28:19:5c:c9:6c:b5:66:a9:ba:da:0c:21:36:00:0a:84:
         71:d6:37:1a:9a:98:c0:61:1e:6f:e8:4a:0f:78:62:d1:62:77:
         81:49:fe:7d:97:13:dd:15:f6:14:4e:a1:a3:b1:64:1a:13:4d:
         96:45:6c:04:ed:ee:22:dd:8a:75:e6:59:71:cd:af:53:e2:f3:
         f5:18:61:09:d7:8d:69:22:fd:c2:8a:1e:3e:0d:4d:36:61:ed:
         fe:ef:95:6f:f8:53:97:f0
-----BEGIN CERTIFICATE-----
MIIHUTCCBQmgAwIBAgIQcAiwcyhLTtWqN71YpIX+yTA9BgkqhkiG9w0BAQowMKAN
MAsGCWCGSAFlAwQCA6EaMBgGCSqGSIb3DQEBCDALBglghkgBZQMEAgOiAwIBQDBb
MQswCQYDVQQGEwJERTEVMBMGA1UEChMMRC1UcnVzdCBHbWJIMRwwGgYDVQQDExNE
LVRSVVNUIENBIDItMiAyMDE5MRcwFQYDVQRhEw5OVFJERS1IUkI3NDM0NjAeFw0y
MTA2MDMxMDM4NTdaFw0yMzA2MDcxMDM4NTdaMIHrMQswCQYDVQQGEwJERTEdMBsG
A1UEChMUUm9iZXJ0IEtvY2gtSW5zdGl0dXQxJDAiBgNVBAsTG0VsZWt0cm9uaXNj
aGVyIEltcGZuYWNod2VpczEdMBsGA1UEAxMUUm9iZXJ0IEtvY2gtSW5zdGl0dXQx
DzANBgNVBAcTBkJlcmxpbjEOMAwGA1UEEQwFMTMzNTMxFDASBgNVBAkTC05vcmR1
ZmVyIDIwMRkwFwYDVQRhExBEVDpERS0zMDIzNTMxNDQ1MRUwEwYDVQQFEwxDU00w
MjYzODI3NzMxDzANBgNVBAgTBkJlcmxpbjBZMBMGByqGSM49AgEGCCqGSM49AwEH
A0IABB2TOQDASJnKnSjxTOj+ccdC5mcaPNTXJ7sna3T1EGmmtDYbEXLbl+KgfGEn
dqRtdopcEknxHII7vCOwLBSUgDmjggLpMIIC5TAfBgNVHSMEGDAWgBRxEDKudHF7
VI7x1qtiVK78PsC7FjAtBggrBgEFBQcBAwQhMB8wCAYGBACORgEBMBMGBgQAjkYB
BjAJBgcEAI5GAQYCMIH+BggrBgEFBQcBAQSB8TCB7jA3BggrBgEFBQcwAYYraHR0
cDovL2QtdHJ1c3QtY2EtMi0yLTIwMTkub2NzcC5kLXRydXN0Lm5ldDBCBggrBgEF
BQcwAoY2aHR0cDovL3d3dy5kLXRydXN0Lm5ldC9jZ2ktYmluL0QtVFJVU1RfQ0Ff
Mi0yXzIwMTkuY3J0MG8GCCsGAQUFBzAChmNsZGFwOi8vZGlyZWN0b3J5LmQtdHJ1
c3QubmV0L0NOPUQtVFJVU1QlMjBDQSUyMDItMiUyMDIwMTksTz1ELVRydXN0JTIw
R21iSCxDPURFP2NBQ2VydGlmaWNhdGU/YmFzZT8wcAYDVR0gBGkwZzAJBgcEAIvs
QAEBMFoGCysGAQQBpTQCgRYFMEswSQYIKwYBBQUHAgEWPWh0dHA6Ly93d3cuZC10
cnVzdC5uZXQvaW50ZXJuZXQvZmlsZXMvRC1UUlVTVF9DU01fUEtJX0NQUy5wZGYw
gfAGA1UdHwSB6DCB5TCB4qCB36CB3IZpbGRhcDovL2RpcmVjdG9yeS5kLXRydXN0
Lm5ldC9DTj1ELVRSVVNUJTIwQ0ElMjAyLTIlMjAyMDE5LE89RC1UcnVzdCUyMEdt
YkgsQz1ERT9jZXJ0aWZpY2F0ZXJldm9jYXRpb25saXN0hjJodHRwOi8vY3JsLmQt
dHJ1c3QubmV0L2NybC9kLXRydXN0X2NhXzItMl8yMDE5LmNybIY7aHR0cDovL2Nk
bi5kLXRydXN0LWNsb3VkY3JsLm5ldC9jcmwvZC10cnVzdF9jYV8yLTJfMjAxOS5j
cmwwHQYDVR0OBBYEFCF12M9swwjDHtrngd816tNZkey1MA4GA1UdDwEB/wQEAwIG
wDA9BgkqhkiG9w0BAQowMKANMAsGCWCGSAFlAwQCA6EaMBgGCSqGSIb3DQEBCDAL
BglghkgBZQMEAgOiAwIBQAOCAgEAv/OEeLwgeivdNipiy5zMsOYQY69T14bqGtv6
br/onLveXAjdbRtfsrO4am8DQ3qtepAjYwKSsR73TCm7FFl/lq8dbN9zPtQjrKih
2ljI5YUiicMVdcxtk9m/m0WRT6Xlm0IwBtTrPDqug30pqek07Wu7tFrbOUrN2Uur
O4Dz+V858hK0lT4F5A4OCm14EMfC84gHwQB/YPGltt1KDRMPvaSbcOxvCisMiqcl
xDRjQkIMbdFarZ1wZqMFVaIVLy5J3nX2akqapLOgAKpD1GTbg3+RRGqKN8fFSBDv
KiMSjnc3ncf0ikyWZWC+kVdBdRLTGfi82jYyCOp0uQY8yNuSgKnvLpFzIkvWJmXg
dsDBHKOmyvxY4gfbxHlRpgzHh8MLlrk34vsHlcjfUqDRXcR01sOQkz77XzswzR0u
NuBW6ICvpmh+R9IveG+85AXce1EUvyhsCD9jzYNpqdFpvzqrqsj24hGgZpanCCHy
gjuUBr4GnlLAj6GGI2gUdtvtOHGSTM9q1vH7OnFI3DEz8vU2PfNqsPHE4qT8VLi5
5peIJWkoGVzJbLVmqbraDCE2AAqEcdY3GpqYwGEeb+hKD3hi0WJ3gUn+fZcT3RX2
FE6ho7FkGhNNlkVsBO3uIt2KdeZZcc2vU+Lz9RhhCdeNaSL9wooePg1NNmHt/u+V
b/hTl/A=
-----END CERTIFICATE-----
