Certificate:
    Data:
        Version: 3 (0x2)
        Serial Number: 7227155023416644771 (0x644c0333e36dd4a3)
    Signature Algorithm: ecdsa-with-SHA256
        Issuer: C = MT, O = Government of Malta, CN = Malta DCC Signing CA
        Validity
            Not Before: Jun 21 00:00:00 2021 GMT
            Not After : Jun 21 23:59:59 2023 GMT
        Subject: CN = MLT-DSC-VACCINATIONS-001, O = Government of Malta, C = MT
        Subject Public Key Info:
            Public Key Algorithm: id-ecPublicKey
                Public-Key: (256 bit)
                pub:
                    04:d6:ad:67:be:05:cb:18:86:e2:6d:0b:98:41:4f:
                    9f:f9:7b:3e:99:c6:cf:9a:e9:00:73:72:90:03:2c:
                    bf:e4:a6:47:fa:7e:45:e1:b1:b8:57:45:c8:8e:98:
                    57:d3:dd:d8:c4:78:75:25:b1:d6:3b:3b:a1:2a:e6:
                    a7:f4:56:e8:c8
                ASN1 OID: prime256v1
                NIST CURVE: P-256
        X509v3 extensions:
            X509v3 Key Usage: critical
                Digital Signature
            X509v3 Extended Key Usage: critical
                1.3.6.1.4.1.0.1847.2021.1.2
            X509v3 Subject Key Identifier: 
                B8:2A:E3:41:FA:D8:11:D2:61:B9:47:83:71:8C:78:24:A1:05:39:FE
            X509v3 Authority Key Identifier: 
                keyid:10:0A:AD:FA:4C:33:E2:FD:AB:8D:DD:E1:96:6E:FE:8E:BF:1C:70:AD
                DirName:/C=MT/O=Government of Malta/CN=Malta DCC Signing CA
                serial:13:EC:B7:27:9D:3A:2C:D3

            X509v3 Private Key Usage Period: 
                Not Before: Jun 21 00:00:00 2021 GMT, Not After: Dec 21 23:59:59 2021 GMT
    Signature Algorithm: ecdsa-with-SHA256
         30:45:02:20:64:60:5b:d2:c3:6f:d3:a3:3e:b3:c5:29:2f:bc:
         e2:37:f1:54:e3:ee:00:1a:4b:2b:30:1d:81:20:89:19:0c:1c:
         02:21:00:d7:c1:c6:59:40:a6:45:b1:5e:79:1e:94:66:fc:0c:
         57:48:12:d7:bb:8b:cf:15:1d:8b:c7:7a:dd:ab:2d:27:16
-----BEGIN CERTIFICATE-----
MIIChTCCAiugAwIBAgIIZEwDM+Nt1KMwCgYIKoZIzj0EAwIwSjELMAkGA1UEBhMC
TVQxHDAaBgNVBAoME0dvdmVybm1lbnQgb2YgTWFsdGExHTAbBgNVBAMMFE1hbHRh
IERDQyBTaWduaW5nIENBMB4XDTIxMDYyMTAwMDAwMFoXDTIzMDYyMTIzNTk1OVow
TjEhMB8GA1UEAwwYTUxULURTQy1WQUNDSU5BVElPTlMtMDAxMRwwGgYDVQQKDBNH
b3Zlcm5tZW50IG9mIE1hbHRhMQswCQYDVQQGEwJNVDBZMBMGByqGSM49AgEGCCqG
SM49AwEHA0IABNatZ74FyxiG4m0LmEFPn/l7PpnGz5rpAHNykAMsv+SmR/p+ReGx
uFdFyI6YV9Pd2MR4dSWx1js7oSrmp/RW6MijgfYwgfMwDgYDVR0PAQH/BAQDAgeA
MBoGA1UdJQEB/wQQMA4GDCsGAQQBAI43j2UBAjAdBgNVHQ4EFgQUuCrjQfrYEdJh
uUeDcYx4JKEFOf4weQYDVR0jBHIwcIAUEAqt+kwz4v2rjd3hlm7+jr8ccK2hTqRM
MEoxCzAJBgNVBAYTAk1UMRwwGgYDVQQKDBNHb3Zlcm5tZW50IG9mIE1hbHRhMR0w
GwYDVQQDDBRNYWx0YSBEQ0MgU2lnbmluZyBDQYIIE+y3J506LNMwKwYDVR0QBCQw
IoAPMjAyMTA2MjEwMDAwMDBagQ8yMDIxMTIyMTIzNTk1OVowCgYIKoZIzj0EAwID
SAAwRQIgZGBb0sNv06M+s8UpL7ziN/FU4+4AGksrMB2BIIkZDBwCIQDXwcZZQKZF
sV55HpRm/AxXSBLXu4vPFR2Lx3rdqy0nFg==
-----END CERTIFICATE-----
