Certificate:
    Data:
        Version: 3 (0x2)
        Serial Number:
            59:00:00:00:05:6e:ef:20:a7:c3:fb:f8:6a:00:00:00:00:00:05
    Signature Algorithm: ecdsa-with-SHA256
        Issuer: C = NO, O = Norsk helsenett SF, CN = NO NHN CSCA PROD
        Validity
            Not Before: Jun 15 09:30:26 2021 GMT
            Not After : Jun 15 09:40:26 2023 GMT
        Subject: C = NO, O = Norwegian Institute of Public Health, CN = DSC AN EU 4
        Subject Public Key Info:
            Public Key Algorithm: id-ecPublicKey
                Public-Key: (256 bit)
                pub:
                    04:94:7e:3a:25:46:a6:86:f7:e3:da:87:12:4f:1c:
                    3d:12:ae:e7:55:d3:fd:3b:30:4e:c5:0f:f3:69:63:
                    57:37:9b:9c:6a:09:5a:ea:7a:ee:36:a7:c3:89:95:
                    d0:31:cc:f8:82:96:7a:a5:c8:ed:26:5f:b1:ad:ad:
                    80:4f:36:7d:3f
                ASN1 OID: prime256v1
                NIST CURVE: P-256
        X509v3 extensions:
            X509v3 Key Usage: critical
                Digital Signature
            X509v3 Extended Key Usage: 
                1.3.6.1.4.1.0.1847.2021.1.1, 1.3.6.1.4.1.0.1847.2021.1.2, 1.3.6.1.4.1.0.1847.2021.1.3
            X509v3 Subject Key Identifier: 
                8B:B5:6F:F1:C0:14:B0:CC:B9:4E:DE:63:44:CE:EB:9E:07:71:CE:39
            X509v3 Authority Key Identifier: 
                keyid:D7:90:47:A3:2A:E6:B5:B4:24:BB:4C:4F:0E:B2:66:4E:66:D8:F4:37

            X509v3 Basic Constraints: critical
                CA:FALSE
    Signature Algorithm: ecdsa-with-SHA256
         30:46:02:21:00:e1:bb:cc:4f:a7:8a:f2:9b:4d:41:08:89:4b:
         00:f0:78:51:fb:54:fb:2a:cf:8f:19:ec:10:f9:3e:ab:80:64:
         e3:02:21:00:a5:52:80:23:77:f6:1a:52:aa:a6:f9:12:b1:d6:
         25:d4:e9:eb:ec:c9:6a:51:87:83:73:a3:f7:dd:33:35:80:58
-----BEGIN CERTIFICATE-----
MIICMDCCAdWgAwIBAgITWQAAAAVu7yCnw/v4agAAAAAABTAKBggqhkjOPQQDAjBF
MQswCQYDVQQGEwJOTzEbMBkGA1UEChMSTm9yc2sgaGVsc2VuZXR0IFNGMRkwFwYD
VQQDExBOTyBOSE4gQ1NDQSBQUk9EMB4XDTIxMDYxNTA5MzAyNloXDTIzMDYxNTA5
NDAyNlowUjELMAkGA1UEBhMCTk8xLTArBgNVBAoTJE5vcndlZ2lhbiBJbnN0aXR1
dGUgb2YgUHVibGljIEhlYWx0aDEUMBIGA1UEAxMLRFNDIEFOIEVVIDQwWTATBgcq
hkjOPQIBBggqhkjOPQMBBwNCAASUfjolRqaG9+PahxJPHD0SrudV0/07ME7FD/Np
Y1c3m5xqCVrqeu42p8OJldAxzPiClnqlyO0mX7GtrYBPNn0/o4GWMIGTMA4GA1Ud
DwEB/wQEAwIHgDAzBgNVHSUELDAqBgwrBgEEAQCON49lAQEGDCsGAQQBAI43j2UB
AgYMKwYBBAEAjjePZQEDMB0GA1UdDgQWBBSLtW/xwBSwzLlO3mNEzuueB3HOOTAf
BgNVHSMEGDAWgBTXkEejKua1tCS7TE8OsmZOZtj0NzAMBgNVHRMBAf8EAjAAMAoG
CCqGSM49BAMCA0kAMEYCIQDhu8xPp4rym01BCIlLAPB4UftU+yrPjxnsEPk+q4Bk
4wIhAKVSgCN39hpSqqb5ErHWJdTp6+zJalGHg3Oj990zNYBY
-----END CERTIFICATE-----
