Certificate:
    Data:
        Version: 3 (0x2)
        Serial Number:
            14:c4:e2:52:53:ae:19:b4:8f
    Signature Algorithm: ecdsa-with-SHA256
        Issuer: CN = EADTrust ECC 256 SubCA For Qualified Certificates 2019, O = "European Agency of Digital Trust, S.L.", C = ES, 2.5.4.97 = VATES-B85626240, OU = Legal Person
        Validity
            Not Before: May 14 09:30:00 2021 GMT
            Not After : May 14 09:30:00 2023 GMT
        Subject: CN = CEUTA, serialNumber = S6100007A, OU = SELLO ELECTRONICO, OU = CIUDAD AUTONOMA DE CEUTA, 2.5.4.97 = VATES-S6100007A, O = CIUDAD AUTONOMA DE CEUTA, C = ES
        Subject Public Key Info:
            Public Key Algorithm: id-ecPublicKey
                Public-Key: (256 bit)
                pub:
                    04:80:eb:a8:55:f0:6d:7c:a5:98:a5:c7:df:84:d5:
                    9f:88:27:f8:83:8a:19:05:d6:8f:71:da:e7:d0:70:
                    6d:91:0f:fd:c5:8a:7a:16:57:c5:00:fd:59:7b:6f:
                    4b:68:cd:5e:9a:71:71:8f:24:0d:59:5d:ca:78:d9:
                    a8:73:fb:c5:60
                ASN1 OID: prime256v1
                NIST CURVE: P-256
        X509v3 extensions:
            X509v3 Basic Constraints: critical
                CA:FALSE
            X509v3 Authority Key Identifier: 
                keyid:D3:4C:6C:3A:BD:36:FE:70:87:23:87:3A:EE:3D:90:CF:CB:9B:F7:21

            Authority Information Access: 
                CA Issuers - URI:http://ca.eadtrust.eu/eadtrust-subca-ecc256eadlp2019.crt
                OCSP - URI:http://ocsp.eadtrust.eu

            X509v3 Issuer Alternative Name: 
                email:ca@eadtrust.eu, URI:http://www.eadtrust.eu, URI:http://ca.eadtrust.eu, URI:http://policy.eadtrust.eu
            X509v3 Subject Alternative Name: 
                DirName:/2.16.724.1.3.5.6.2.1=SELLO ELECTRONICO DE NIVEL MEDIO/2.16.724.1.3.5.6.2.2=CIUDAD AUTONOMA DE CEUTA/2.16.724.1.3.5.6.2.3=S6100007A
            X509v3 Certificate Policies: 
                Policy: 2.16.724.1.3.5.6.2
                Policy: 0.4.0.194112.1.1
                  User Notice:
                    Explicit Text: European Telecommunications Standards Institute. eIDAS European Regulation Compliant
                Policy: 1.3.6.1.4.1.501.2.1.1.0.41233
                  CPS: http://policy.eadtrust.eu
                  User Notice:
                    Explicit Text: Certificado cualificado de sello electrónico de Administración, órgano o entidad de derecho público, nivel Medio/Sustancial. Consulte las condiciones de uso en http://policy.eadtrust.eu

            X509v3 Extended Key Usage: 
                TLS Web Client Authentication, E-mail Protection
            qcStatements: 
                0..0...+.......0.......I..0......F..0......F.....0......F..0......F...0l.....F..0b00.*https://eadtrust.eu/en/documents-in-force/..en0..(https://eadtrust.eu/documentos-vigentes/..es
            X509v3 CRL Distribution Points: 

                Full Name:
                  URI:http://crl.eadtrust.eu/eadtrust-subca-ecc256eadlp2019.crl

            X509v3 Subject Key Identifier: 
                73:5B:BF:EE:86:08:01:41:6B:A4:6E:0A:39:38:C0:11:2B:38:E9:1C
            X509v3 Key Usage: critical
                Digital Signature, Non Repudiation, Key Encipherment
    Signature Algorithm: ecdsa-with-SHA256
         30:45:02:21:00:a4:c2:a0:e3:96:af:fa:1a:41:e8:e1:58:21:
         42:b7:57:7d:56:9b:ee:2b:2d:85:63:fa:46:23:63:8e:18:5f:
         71:02:20:5c:cc:73:71:9c:a8:22:df:3b:38:34:ac:e8:28:f0:
         41:f2:86:6b:ba:47:80:e7:11:7d:28:a6:1c:4d:22:dd:1a
-----BEGIN CERTIFICATE-----
MIIG6TCCBo+gAwIBAgIJFMTiUlOuGbSPMAoGCCqGSM49BAMCMIGwMT8wPQYDVQQD
DDZFQURUcnVzdCBFQ0MgMjU2IFN1YkNBIEZvciBRdWFsaWZpZWQgQ2VydGlmaWNh
dGVzIDIwMTkxLzAtBgNVBAoMJkV1cm9wZWFuIEFnZW5jeSBvZiBEaWdpdGFsIFRy
dXN0LCBTLkwuMQswCQYDVQQGEwJFUzEYMBYGA1UEYQwPVkFURVMtQjg1NjI2MjQw
MRUwEwYDVQQLDAxMZWdhbCBQZXJzb24wHhcNMjEwNTE0MDkzMDAwWhcNMjMwNTE0
MDkzMDAwWjCBrTEOMAwGA1UEAwwFQ0VVVEExEjAQBgNVBAUTCVM2MTAwMDA3QTEa
MBgGA1UECwwRU0VMTE8gRUxFQ1RST05JQ08xITAfBgNVBAsMGENJVURBRCBBVVRP
Tk9NQSBERSBDRVVUQTEYMBYGA1UEYQwPVkFURVMtUzYxMDAwMDdBMSEwHwYDVQQK
DBhDSVVEQUQgQVVUT05PTUEgREUgQ0VVVEExCzAJBgNVBAYTAkVTMFkwEwYHKoZI
zj0CAQYIKoZIzj0DAQcDQgAEgOuoVfBtfKWYpcffhNWfiCf4g4oZBdaPcdrn0HBt
kQ/9xYp6FlfFAP1Ze29LaM1emnFxjyQNWV3KeNmoc/vFYKOCBJEwggSNMAwGA1Ud
EwEB/wQCMAAwHwYDVR0jBBgwFoAU00xsOr02/nCHI4c67j2Qz8ub9yEweQYIKwYB
BQUHAQEEbTBrMEQGCCsGAQUFBzAChjhodHRwOi8vY2EuZWFkdHJ1c3QuZXUvZWFk
dHJ1c3Qtc3ViY2EtZWNjMjU2ZWFkbHAyMDE5LmNydDAjBggrBgEFBQcwAYYXaHR0
cDovL29jc3AuZWFkdHJ1c3QuZXUwYwYDVR0SBFwwWoEOY2FAZWFkdHJ1c3QuZXWG
Fmh0dHA6Ly93d3cuZWFkdHJ1c3QuZXWGFWh0dHA6Ly9jYS5lYWR0cnVzdC5ldYYZ
aHR0cDovL3BvbGljeS5lYWR0cnVzdC5ldTCBgQYDVR0RBHoweKR2MHQxLzAtBglg
hVQBAwUGAgEMIFNFTExPIEVMRUNUUk9OSUNPIERFIE5JVkVMIE1FRElPMScwJQYJ
YIVUAQMFBgICDBhDSVVEQUQgQVVUT05PTUEgREUgQ0VVVEExGDAWBglghVQBAwUG
AgMMCVM2MTAwMDA3QTCCAZgGA1UdIASCAY8wggGLMAoGCGCFVAEDBQYCMG8GBwQA
i+xAAQEwZDBiBggrBgEFBQcCAjBWDFRFdXJvcGVhbiBUZWxlY29tbXVuaWNhdGlv
bnMgU3RhbmRhcmRzIEluc3RpdHV0ZS4gZUlEQVMgRXVyb3BlYW4gUmVndWxhdGlv
biBDb21wbGlhbnQwggEKBg4rBgEEAYN1AgEBAILCETCB9zAlBggrBgEFBQcCARYZ
aHR0cDovL3BvbGljeS5lYWR0cnVzdC5ldTCBzQYIKwYBBQUHAgIwgcAMgb1DZXJ0
aWZpY2FkbyBjdWFsaWZpY2FkbyBkZSBzZWxsbyBlbGVjdHLDs25pY28gZGUgQWRt
aW5pc3RyYWNpw7NuLCDDs3JnYW5vIG8gZW50aWRhZCBkZSBkZXJlY2hvIHDDumJs
aWNvLCBuaXZlbCBNZWRpby9TdXN0YW5jaWFsLiBDb25zdWx0ZSBsYXMgY29uZGlj
aW9uZXMgZGUgdXNvIGVuIGh0dHA6Ly9wb2xpY3kuZWFkdHJ1c3QuZXUwHQYDVR0l
BBYwFAYIKwYBBQUHAwIGCCsGAQUFBwMEMIHBBggrBgEFBQcBAwSBtDCBsTAVBggr
BgEFBQcLAjAJBgcEAIvsSQECMAgGBgQAjkYBATALBgYEAI5GAQMCAQ8wEwYGBACO
RgEGMAkGBwQAjkYBBgIwbAYGBACORgEFMGIwMBYqaHR0cHM6Ly9lYWR0cnVzdC5l
dS9lbi9kb2N1bWVudHMtaW4tZm9yY2UvEwJlbjAuFihodHRwczovL2VhZHRydXN0
LmV1L2RvY3VtZW50b3MtdmlnZW50ZXMvEwJlczBKBgNVHR8EQzBBMD+gPaA7hjlo
dHRwOi8vY3JsLmVhZHRydXN0LmV1L2VhZHRydXN0LXN1YmNhLWVjYzI1NmVhZGxw
MjAxOS5jcmwwHQYDVR0OBBYEFHNbv+6GCAFBa6RuCjk4wBErOOkcMA4GA1UdDwEB
/wQEAwIF4DAKBggqhkjOPQQDAgNIADBFAiEApMKg45av+hpB6OFYIUK3V31Wm+4r
LYVj+kYjY44YX3ECIFzMc3GcqCLfOzg0rOgo8EHyhmu6R4DnEX0ophxNIt0a
-----END CERTIFICATE-----
