Certificate:
    Data:
        Version: 3 (0x2)
        Serial Number:
            44:5e:c3:fd:6b:18:a3:8c:c0:7c:08:2e:b4:b7:a4:93
    Signature Algorithm: rsassaPss
         Hash Algorithm: sha512
         Mask Algorithm: mgf1 with sha512
         Salt Length: 0x40
         Trailer Field: 0xBC (default)
        Issuer: C = DE, O = D-Trust GmbH, CN = D-TRUST CA 2-2 2019, 2.5.4.97 = NTRDE-HRB74346
        Validity
            Not Before: Jun  7 10:27:27 2021 GMT
            Not After : Jun 11 10:27:27 2023 GMT
        Subject: C = DE, O = Robert Koch-Institut, OU = Elektronischer Impfnachweis, CN = Robert Koch-Institut, L = Berlin, postalCode = 13353, street = Nordufer 20, 2.5.4.97 = DT:DE-3023531445, serialNumber = CSM026414160, ST = Berlin
        Subject Public Key Info:
            Public Key Algorithm: id-ecPublicKey
                Public-Key: (256 bit)
                pub:
                    04:3d:da:e2:55:d1:6c:89:d2:ab:13:49:eb:ed:2f:
                    bb:e6:23:bb:fb:c2:ce:b7:31:69:f7:df:be:e0:12:
                    ea:28:a3:0a:9f:f9:80:5e:f8:24:22:71:0d:e7:1a:
                    ac:89:f4:d8:15:69:3d:2a:62:dc:50:66:c3:f5:db:
                    70:42:56:80:fb
                ASN1 OID: prime256v1
                NIST CURVE: P-256
        X509v3 extensions:
            X509v3 Authority Key Identifier: 
                keyid:71:10:32:AE:74:71:7B:54:8E:F1:D6:AB:62:54:AE:FC:3E:C0:BB:16

            qcStatements: 
                0.0......F..0......F..0......F...
            Authority Information Access: 
                OCSP - URI:http://d-trust-ca-2-2-2019.ocsp.d-trust.net
                CA Issuers - URI:http://www.d-trust.net/cgi-bin/D-TRUST_CA_2-2_2019.crt
                CA Issuers - URI:ldap://directory.d-trust.net/CN=D-TRUST%20CA%202-2%202019,O=D-Trust%20GmbH,C=DE?cACertificate?base?

            X509v3 Certificate Policies: 
                Policy: 0.4.0.194112.1.1
                Policy: 1.3.6.1.4.1.4788.2.150.5
                  CPS: http://www.d-trust.net/internet/files/D-TRUST_CSM_PKI_CPS.pdf

            X509v3 CRL Distribution Points: 

                Full Name:
                  URI:ldap://directory.d-trust.net/CN=D-TRUST%20CA%202-2%202019,O=D-Trust%20GmbH,C=DE?certificaterevocationlist
                  URI:http://crl.d-trust.net/crl/d-trust_ca_2-2_2019.crl
                  URI:http://cdn.d-trust-cloudcrl.net/crl/d-trust_ca_2-2_2019.crl

            X509v3 Subject Key Identifier: 
                0D:EC:C8:D9:50:99:33:11:30:C0:16:04:16:00:24:27:DD:65:31:F4
            X509v3 Key Usage: critical
                Digital Signature, Non Repudiation
    Signature Algorithm: rsassaPss
         Hash Algorithm: sha512
         Mask Algorithm: mgf1 with sha512
         Salt Length: 0x40
         Trailer Field: 0xBC (default)

         59:f6:60:cb:dd:2e:69:e9:8f:d3:15:9f:79:dd:48:8a:36:ab:
         ce:78:11:05:58:ee:d2:c1:04:ff:9f:70:f4:1f:eb:d6:74:a1:
         01:6d:2c:3d:ad:14:04:b0:1b:43:18:e5:b7:43:20:29:bb:3b:
         e2:6f:1d:a9:b2:21:ae:e4:34:c4:7d:88:72:81:38:64:18:b0:
         27:db:31:53:91:d5:20:6d:a4:bf:08:e7:8d:ef:5a:85:70:a8:
         3d:3a:6d:41:1e:d0:a6:45:5d:f6:5e:de:01:58:08:91:ca:6e:
         97:09:de:45:19:d9:8a:20:68:12:62:d6:25:0a:ff:8f:c7:47:
         60:86:ce:8c:e5:39:5c:d6:f0:78:65:7a:ed:19:cc:2f:02:47:
         3e:9e:0b:d2:03:1f:76:30:f8:83:71:ee:96:fc:91:84:40:70:
         72:e3:39:b8:db:7d:36:d5:0d:21:7f:ef:80:71:d0:87:f9:46:
         46:fe:6c:a7:64:13:95:a6:9f:cb:e1:e5:a4:7d:09:1f:fb:8b:
         40:64:e9:50:ef:d5:e7:e9:67:58:28:d2:20:fc:cb:79:69:5b:
         7a:d1:86:95:70:ac:0b:64:e1:53:26:36:74:fa:00:77:94:46:
         3e:b1:8b:9c:44:a7:e9:23:a4:10:47:8e:3a:c9:2d:11:5d:3a:
         9f:f5:62:fb:e8:84:67:cc:e8:eb:f7:c9:f4:9e:21:3a:9f:ae:
         7c:f4:14:57:31:36:3b:01:38:d8:3d:85:0e:40:09:22:00:19:
         55:39:7b:7d:fc:02:0a:5b:10:4f:7b:98:8b:05:38:3a:9b:e9:
         c2:7e:e0:49:20:9c:d2:5d:6b:dc:db:9a:ff:32:13:ad:9e:91:
         0b:c7:38:ec:f1:0c:93:88:5b:03:3c:83:63:f4:4e:f3:1b:a6:
         4a:41:a3:9f:50:c4:aa:e5:8c:c0:5f:65:88:8b:c0:27:b1:89:
         ab:bb:8f:eb:63:56:65:89:77:9e:3a:12:63:3a:61:ae:1d:4a:
         a6:34:b8:8a:ce:05:07:b9:d6:e6:49:33:f4:be:ba:ef:c5:3d:
         4d:15:ed:82:3e:4f:93:d2:89:3e:20:ab:b3:56:c7:2e:a1:12:
         de:a7:17:4d:a4:23:19:c7:23:49:bb:be:79:db:03:86:aa:6a:
         52:e0:62:e8:ff:9f:b6:ce:5b:bb:8c:34:b8:66:91:4f:6e:ff:
         e3:d7:2c:b3:b1:33:5d:7d:cb:bf:81:66:1b:c1:85:4a:ca:ef:
         75:d0:92:19:9c:61:cc:a6:96:b3:74:60:99:f8:46:24:47:a8:
         4a:62:1d:58:3a:37:92:1d:82:10:42:27:a0:5e:f7:73:07:e2:
         db:3c:44:43:3e:b1:ea:1c
-----BEGIN CERTIFICATE-----
MIIHUTCCBQmgAwIBAgIQRF7D/WsYo4zAfAgutLekkzA9BgkqhkiG9w0BAQowMKAN
MAsGCWCGSAFlAwQCA6EaMBgGCSqGSIb3DQEBCDALBglghkgBZQMEAgOiAwIBQDBb
MQswCQYDVQQGEwJERTEVMBMGA1UEChMMRC1UcnVzdCBHbWJIMRwwGgYDVQQDExNE
LVRSVVNUIENBIDItMiAyMDE5MRcwFQYDVQRhEw5OVFJERS1IUkI3NDM0NjAeFw0y
MTA2MDcxMDI3MjdaFw0yMzA2MTExMDI3MjdaMIHrMQswCQYDVQQGEwJERTEdMBsG
A1UEChMUUm9iZXJ0IEtvY2gtSW5zdGl0dXQxJDAiBgNVBAsTG0VsZWt0cm9uaXNj
aGVyIEltcGZuYWNod2VpczEdMBsGA1UEAxMUUm9iZXJ0IEtvY2gtSW5zdGl0dXQx
DzANBgNVBAcTBkJlcmxpbjEOMAwGA1UEEQwFMTMzNTMxFDASBgNVBAkTC05vcmR1
ZmVyIDIwMRkwFwYDVQRhExBEVDpERS0zMDIzNTMxNDQ1MRUwEwYDVQQFEwxDU00w
MjY0MTQxNjAxDzANBgNVBAgTBkJlcmxpbjBZMBMGByqGSM49AgEGCCqGSM49AwEH
A0IABD3a4lXRbInSqxNJ6+0vu+Yju/vCzrcxafffvuAS6iijCp/5gF74JCJxDeca
rIn02BVpPSpi3FBmw/XbcEJWgPujggLpMIIC5TAfBgNVHSMEGDAWgBRxEDKudHF7
VI7x1qtiVK78PsC7FjAtBggrBgEFBQcBAwQhMB8wCAYGBACORgEBMBMGBgQAjkYB
BjAJBgcEAI5GAQYCMIH+BggrBgEFBQcBAQSB8TCB7jA3BggrBgEFBQcwAYYraHR0
cDovL2QtdHJ1c3QtY2EtMi0yLTIwMTkub2NzcC5kLXRydXN0Lm5ldDBCBggrBgEF
BQcwAoY2aHR0cDovL3d3dy5kLXRydXN0Lm5ldC9jZ2ktYmluL0QtVFJVU1RfQ0Ff
Mi0yXzIwMTkuY3J0MG8GCCsGAQUFBzAChmNsZGFwOi8vZGlyZWN0b3J5LmQtdHJ1
c3QubmV0L0NOPUQtVFJVU1QlMjBDQSUyMDItMiUyMDIwMTksTz1ELVRydXN0JTIw
R21iSCxDPURFP2NBQ2VydGlmaWNhdGU/YmFzZT8wcAYDVR0gBGkwZzAJBgcEAIvs
QAEBMFoGCysGAQQBpTQCgRYFMEswSQYIKwYBBQUHAgEWPWh0dHA6Ly93d3cuZC10
cnVzdC5uZXQvaW50ZXJuZXQvZmlsZXMvRC1UUlVTVF9DU01fUEtJX0NQUy5wZGYw
gfAGA1UdHwSB6DCB5TCB4qCB36CB3IZpbGRhcDovL2RpcmVjdG9yeS5kLXRydXN0
Lm5ldC9DTj1ELVRSVVNUJTIwQ0ElMjAyLTIlMjAyMDE5LE89RC1UcnVzdCUyMEdt
YkgsQz1ERT9jZXJ0aWZpY2F0ZXJldm9jYXRpb25saXN0hjJodHRwOi8vY3JsLmQt
dHJ1c3QubmV0L2NybC9kLXRydXN0X2NhXzItMl8yMDE5LmNybIY7aHR0cDovL2Nk
bi5kLXRydXN0LWNsb3VkY3JsLm5ldC9jcmwvZC10cnVzdF9jYV8yLTJfMjAxOS5j
cmwwHQYDVR0OBBYEFA3syNlQmTMRMMAWBBYAJCfdZTH0MA4GA1UdDwEB/wQEAwIG
wDA9BgkqhkiG9w0BAQowMKANMAsGCWCGSAFlAwQCA6EaMBgGCSqGSIb3DQEBCDAL
BglghkgBZQMEAgOiAwIBQAOCAgEAWfZgy90uaemP0xWfed1IijarzngRBVju0sEE
/59w9B/r1nShAW0sPa0UBLAbQxjlt0MgKbs74m8dqbIhruQ0xH2IcoE4ZBiwJ9sx
U5HVIG2kvwjnje9ahXCoPTptQR7QpkVd9l7eAVgIkcpulwneRRnZiiBoEmLWJQr/
j8dHYIbOjOU5XNbweGV67RnMLwJHPp4L0gMfdjD4g3HulvyRhEBwcuM5uNt9NtUN
IX/vgHHQh/lGRv5sp2QTlaafy+HlpH0JH/uLQGTpUO/V5+lnWCjSIPzLeWlbetGG
lXCsC2ThUyY2dPoAd5RGPrGLnESn6SOkEEeOOsktEV06n/Vi++iEZ8zo6/fJ9J4h
Op+ufPQUVzE2OwE42D2FDkAJIgAZVTl7ffwCClsQT3uYiwU4Opvpwn7gSSCc0l1r
3Nua/zITrZ6RC8c47PEMk4hbAzyDY/RO8xumSkGjn1DEquWMwF9liIvAJ7GJq7uP
62NWZYl3njoSYzphrh1KpjS4is4FB7nW5kkz9L6678U9TRXtgj5Pk9KJPiCrs1bH
LqES3qcXTaQjGccjSbu+edsDhqpqUuBi6P+fts5bu4w0uGaRT27/49css7EzXX3L
v4FmG8GFSsrvddCSGZxhzKaWs3RgmfhGJEeoSmIdWDo3kh2CEEInoF73cwfi2zxE
Qz6x6hw=
-----END CERTIFICATE-----
