Certificate:
    Data:
        Version: 3 (0x2)
        Serial Number: 94895612704 (0x1618382320)
    Signature Algorithm: sha256WithRSAEncryption
        Issuer: C = RO, O = Ministerul Sanatatii, CN = AC Ministerul Sanatatii
        Validity
            Not Before: Jun 18 13:35:59 2021 GMT
            Not After : Jun 22 13:35:59 2026 GMT
        Subject: C = RO, O = Ministerul Sanatatii, CN = BSC
        Subject Public Key Info:
            Public Key Algorithm: id-ecPublicKey
                Public-Key: (256 bit)
                pub:
                    04:21:0e:4b:24:68:6b:b3:79:bf:fc:70:ba:d3:ff:
                    f8:37:c5:83:2f:50:e2:1c:94:54:4e:2a:e5:77:85:
                    3d:79:b0:58:62:c4:ed:c5:69:27:18:6d:14:b6:89:
                    f5:db:1f:32:0c:79:bb:c2:6e:da:46:81:61:77:93:
                    31:5b:81:b9:73
                ASN1 OID: prime256v1
                NIST CURVE: P-256
        X509v3 extensions:
            X509v3 Key Usage: critical
                Digital Signature
            X509v3 Subject Key Identifier: 
                57:2C:E7:60:33:D3:48:88:E5:23:A6:C8:E9:6F:A6:81:07:3D:26:3C
            X509v3 Authority Key Identifier: 
                keyid:32:E2:90:0E:E6:C5:E8:FA:46:B8:AB:80:3D:6B:21:97:76:B8:48:21

            X509v3 Subject Alternative Name: 
                DirName:/L=RO
            X509v3 Issuer Alternative Name: 
                DirName:/L=RO
            X509v3 CRL Distribution Points: 

                Full Name:
                  URI:http://ca.stsisp.ro/crl/DGC.crl

            X509v3 Extended Key Usage: 
                1.3.6.1.4.1.0.1847.2021.1.1, 1.3.6.1.4.1.0.1847.2021.1.2, 1.3.6.1.4.1.0.1847.2021.1.3
            Authority Information Access: 
                OCSP - URI:http://ca.stsisp.ro:2560

            X509v3 Private Key Usage Period: 
                Not Before: Apr  1 00:00:00 2021 GMT, Not After: Jul  1 00:00:00 2026 GMT
    Signature Algorithm: sha256WithRSAEncryption
         52:d1:62:4a:ef:d8:9a:7c:5c:d8:45:25:b3:14:be:24:cb:80:
         fb:03:81:c1:43:43:0c:dd:53:84:47:fc:a6:37:be:39:48:ab:
         12:3f:a3:8d:30:72:df:50:ac:de:45:a9:10:d3:54:86:03:e1:
         9e:2f:2f:2f:2f:86:28:21:f8:3a:dd:59:f6:81:2b:e4:86:c3:
         5d:59:c2:28:03:7a:6d:14:9e:3a:6a:cf:46:85:4e:8b:6f:f2:
         1a:f2:e6:7d:a3:63:f8:1f:e9:8a:54:f2:93:1d:de:dd:1d:34:
         5e:49:7b:98:6b:63:56:0b:3c:97:6d:f8:13:16:02:2c:d1:c1:
         20:1a:6b:f3:aa:4c:33:f6:6e:53:6a:79:ba:d4:4e:9b:22:5e:
         7c:4c:5d:18:88:1d:99:79:f7:a4:62:49:5b:22:c0:8f:f8:3e:
         15:3f:1e:17:db:30:28:38:90:ef:18:52:d8:13:07:35:af:04:
         6a:21:1b:46:67:ca:2d:9b:40:58:70:58:46:b5:8d:97:36:61:
         fb:08:a9:6b:b8:87:01:b3:d3:35:8e:28:cc:b1:e5:42:d9:4b:
         7a:a4:43:41:08:1c:7d:97:ac:ec:76:67:11:1c:ff:9b:d9:4f:
         6e:e7:4e:52:96:d0:50:ad:05:67:81:df:aa:cb:cb:ff:5d:61:
         b9:be:c2:30:7c:ea:0b:e3:60:44:0b:02:81:52:63:91:b2:0b:
         15:47:69:01:3f:1c:af:27:16:a3:34:a0:5a:bf:e2:ed:03:ed:
         93:7d:a3:a3:7a:8b:81:1f:1a:14:91:c9:ed:0d:0a:57:77:89:
         a3:3d:25:d2:a6:40:da:02:13:d7:dd:f4:e7:cc:1b:d1:e5:ad:
         06:c8:66:fb:23:67:76:ed:be:d8:82:fd:1f:cb:a3:2b:eb:2b:
         3d:84:55:b7:8f:64:85:63:d3:7f:86:7a:50:88:d3:f8:d6:ab:
         ec:3d:60:ad:c9:20:68:41:7c:c8:ef:08:af:d0:9e:98:4e:9b:
         4a:2d:ba:2b:84:63:ed:10:60:f2:88:c7:f7:3c:cd:4e:47:e1:
         c1:16:a7:83:5a:9a:c2:11:4e:93:f5:dd:86:b3:87:83:55:8c:
         23:40:53:e2:75:ad:b7:30:1a:42:48:45:71:e9:2f:a4:2a:2f:
         55:8d:b7:dc:d9:48:c5:ef:c3:eb:c1:a0:1a:bc:c8:1a:9e:2c:
         69:71:3e:bf:83:14:be:fd:c6:14:41:66:7a:69:e6:69:f6:bd:
         49:91:ef:b9:35:ef:8e:55:c3:01:95:33:0f:ed:f4:ad:bc:cb:
         91:e9:2d:c4:e9:e3:d7:f7:c1:1d:1b:0c:2f:8a:d2:7f:fc:3d:
         d7:2b:84:e5:e1:f8:34:cf
-----BEGIN CERTIFICATE-----
MIIElDCCAnygAwIBAgIFFhg4IyAwDQYJKoZIhvcNAQELBQAwTjELMAkGA1UEBhMC
Uk8xHTAbBgNVBAoMFE1pbmlzdGVydWwgU2FuYXRhdGlpMSAwHgYDVQQDDBdBQyBN
aW5pc3RlcnVsIFNhbmF0YXRpaTAeFw0yMTA2MTgxMzM1NTlaFw0yNjA2MjIxMzM1
NTlaMDoxCzAJBgNVBAYTAlJPMR0wGwYDVQQKDBRNaW5pc3RlcnVsIFNhbmF0YXRp
aTEMMAoGA1UEAwwDQlNDMFkwEwYHKoZIzj0CAQYIKoZIzj0DAQcDQgAEIQ5LJGhr
s3m//HC60//4N8WDL1DiHJRUTirld4U9ebBYYsTtxWknGG0Uton12x8yDHm7wm7a
RoFhd5MxW4G5c6OCAVYwggFSMA4GA1UdDwEB/wQEAwIHgDAdBgNVHQ4EFgQUVyzn
YDPTSIjlI6bI6W+mgQc9JjwwHwYDVR0jBBgwFoAUMuKQDubF6PpGuKuAPWshl3a4
SCEwGgYDVR0RBBMwEaQPMA0xCzAJBgNVBAcMAlJPMBoGA1UdEgQTMBGkDzANMQsw
CQYDVQQHDAJSTzAwBgNVHR8EKTAnMCWgI6Ahhh9odHRwOi8vY2Euc3RzaXNwLnJv
L2NybC9ER0MuY3JsMDMGA1UdJQQsMCoGDCsGAQQBAI43j2UBAQYMKwYBBAEAjjeP
ZQECBgwrBgEEAQCON49lAQMwNAYIKwYBBQUHAQEEKDAmMCQGCCsGAQUFBzABhhho
dHRwOi8vY2Euc3RzaXNwLnJvOjI1NjAwKwYDVR0QBCQwIoAPMjAyMTA0MDEwMDAw
MDBagQ8yMDI2MDcwMTAwMDAwMFowDQYJKoZIhvcNAQELBQADggIBAFLRYkrv2Jp8
XNhFJbMUviTLgPsDgcFDQwzdU4RH/KY3vjlIqxI/o40wct9QrN5FqRDTVIYD4Z4v
Ly8vhigh+DrdWfaBK+SGw11ZwigDem0Unjpqz0aFTotv8hry5n2jY/gf6YpU8pMd
3t0dNF5Je5hrY1YLPJdt+BMWAizRwSAaa/OqTDP2blNqebrUTpsiXnxMXRiIHZl5
96RiSVsiwI/4PhU/HhfbMCg4kO8YUtgTBzWvBGohG0Znyi2bQFhwWEa1jZc2YfsI
qWu4hwGz0zWOKMyx5ULZS3qkQ0EIHH2XrOx2ZxEc/5vZT27nTlKW0FCtBWeB36rL
y/9dYbm+wjB86gvjYEQLAoFSY5GyCxVHaQE/HK8nFqM0oFq/4u0D7ZN9o6N6i4Ef
GhSRye0NCld3iaM9JdKmQNoCE9fd9OfMG9HlrQbIZvsjZ3btvtiC/R/LoyvrKz2E
VbePZIVj03+GelCI0/jWq+w9YK3JIGhBfMjvCK/QnphOm0otuiuEY+0QYPKIx/c8
zU5H4cEWp4NamsIRTpP13Yazh4NVjCNAU+J1rbcwGkJIRXHpL6QqL1WNt9zZSMXv
w+vBoBq8yBqeLGlxPr+DFL79xhRBZnpp5mn2vUmR77k1745VwwGVMw/t9K28y5Hp
LcTp49f3wR0bDC+K0n/8PdcrhOXh+DTP
-----END CERTIFICATE-----
