Certificate:
    Data:
        Version: 3 (0x2)
        Serial Number: 7847954889134587882 (0x6ce9896434283fea)
    Signature Algorithm: rsassaPss
         Hash Algorithm: sha256
         Mask Algorithm: mgf1 with sha256
         Salt Length: 0x20
         Trailer Field: 0xBC (default)
        Issuer: C = LU, O = INCERT public agency, CN = Grand Duchy of Luxembourg CSCA
        Validity
            Not Before: Jun  9 09:51:54 2021 GMT
            Not After : Jun  9 09:51:54 2023 GMT
        Subject: C = LU, O = Ministry of Health, CN = Grand Duchy of Luxembourg DS DCC 4
        Subject Public Key Info:
            Public Key Algorithm: id-ecPublicKey
                Public-Key: (256 bit)
                pub:
                    04:1d:30:49:63:46:7e:4f:92:3c:12:6a:90:9a:b6:
                    d9:02:bf:1e:aa:e2:1c:28:a1:3e:62:b8:88:1b:0f:
                    c0:28:9c:b0:d1:90:23:d4:37:76:31:14:cc:df:e0:
                    04:88:d0:11:c5:72:05:d3:c6:b6:ae:15:2f:14:2c:
                    b2:1c:22:76:0c
                ASN1 OID: prime256v1
                NIST CURVE: P-256
        X509v3 extensions:
            X509v3 Subject Key Identifier: 
                84:73:93:C5:B1:0B:AA:50:3C:27:94:2D:A1:C2:EB:A5:4B:E0:0B:8F
            X509v3 Authority Key Identifier: 
                keyid:1A:CF:47:C7:98:E5:35:4C:8F:9F:55:AB:A8:9A:F9:E3:C7:3C:9D:7B

            X509v3 Issuer Alternative Name: 
                email:csca@incert.lu, DirName:/L=LUX
            X509v3 Private Key Usage Period: 
                Not Before: Jun  9 09:51:54 2021 GMT, Not After: Dec  6 09:51:54 2021 GMT
            X509v3 CRL Distribution Points: 

                Full Name:
                  URI:http://repository.incert.lu/csca.crl

            X509v3 Key Usage: critical
                Digital Signature
            X509v3 Subject Alternative Name: 
                email:csca@incert.lu, DirName:/L=LUX
    Signature Algorithm: rsassaPss
         Hash Algorithm: sha256
         Mask Algorithm: mgf1 with sha256
         Salt Length: 0x20
         Trailer Field: 0xBC (default)

         46:be:82:98:07:b2:ce:fe:21:d3:ce:ae:be:1b:ce:53:12:6a:
         fa:87:ab:26:ed:47:34:87:da:15:41:ad:b6:7d:3a:fd:ef:54:
         39:88:92:c6:d4:34:cd:e7:95:53:cb:e6:01:40:45:e1:c4:26:
         65:e1:1f:1c:2f:a3:1c:82:3b:f3:57:39:2f:a2:b6:61:a4:61:
         13:c7:44:7e:7b:c5:36:bd:5c:81:9c:c1:69:80:9d:bc:31:57:
         2e:35:07:f3:67:38:c7:80:07:64:e8:b9:65:9f:5f:f6:58:cc:
         a8:8d:c8:52:7b:24:42:1d:69:07:19:ff:6f:b9:e5:ce:66:94:
         45:45:31:da:5e:0d:1d:af:98:1f:9c:82:bc:fa:8f:48:85:c6:
         82:75:fd:04:1e:5a:48:df:0f:c9:eb:fc:0b:b2:ef:37:e6:d0:
         c8:10:2f:9c:19:10:8d:3c:03:d2:c0:29:98:c5:6d:ac:07:70:
         9c:76:45:6b:b0:58:57:3c:74:b0:53:33:16:0c:d2:9b:6b:5d:
         83:47:fd:d0:d1:a6:e3:57:32:ea:a1:eb:c3:ac:fd:a7:a2:e6:
         46:e8:94:73:36:e1:b4:81:c9:cb:c8:9d:80:58:c9:54:53:8b:
         60:01:0d:d4:69:22:d9:7d:04:41:aa:3d:29:09:a1:8a:eb:07:
         68:59:de:ba:0d:36:e8:00:34:5d:6b:9b:51:71:ee:19:4a:f3:
         44:22:32:81:0b:a0:cd:51:c8:8a:2f:96:bc:a6:41:be:39:51:
         25:76:f8:eb:84:b6:f6:7a:04:9f:39:97:ba:b8:ee:d6:f0:af:
         4c:71:1e:a2:0b:f6:7f:36:b7:83:32:e0:cd:14:ed:c2:2e:e5:
         23:ef:ea:ab:fe:b9:b2:c6:9d:ba:89:be:0a:13:f5:37:f7:40:
         6a:c7:e6:3d:d7:0f:25:34:57:86:1f:bd:f4:21:70:e0:4b:36:
         57:6e:b8:0d:9c:8a:17:40:87:e3:3a:30:b4:5b:b4:6f:6c:bc:
         ab:2b:03:89:34:3e:dc:81:f5:40:ad:aa:e7:ec:7c:38:64:8c:
         ce:0b:44:68:e6:ca:57:25:82:60:ed:34:7e:83:8b:17:05:c5:
         89:4a:d7:e7:e2:91:94:88:3e:7c:38:ef:a5:a0:4b:cf:f6:6e:
         2c:36:9b:88:00:b3:11:19:e7:fb:e0:f4:bf:ee:d7:58:bc:e7:
         70:0e:4a:c8:7f:b0:5c:63:a7:ad:8a:dc:ee:66:14:0b:dd:98:
         b0:09:9a:ba:1f:39:48:21:a0:d7:00:cc:97:43:6d:25:ad:1f:
         3a:90:60:9f:81:58:88:e8:20:38:89:87:49:bc:4a:5e:7f:85:
         5b:fa:06:1e:97:b6:ba:7f
-----BEGIN CERTIFICATE-----
MIIE3zCCApOgAwIBAgIIbOmJZDQoP+owQQYJKoZIhvcNAQEKMDSgDzANBglghkgB
ZQMEAgEFAKEcMBoGCSqGSIb3DQEBCDANBglghkgBZQMEAgEFAKIDAgEgMFUxCzAJ
BgNVBAYTAkxVMR0wGwYDVQQKDBRJTkNFUlQgcHVibGljIGFnZW5jeTEnMCUGA1UE
AwweR3JhbmQgRHVjaHkgb2YgTHV4ZW1ib3VyZyBDU0NBMB4XDTIxMDYwOTA5NTE1
NFoXDTIzMDYwOTA5NTE1NFowVzELMAkGA1UEBhMCTFUxGzAZBgNVBAoMEk1pbmlz
dHJ5IG9mIEhlYWx0aDErMCkGA1UEAwwiR3JhbmQgRHVjaHkgb2YgTHV4ZW1ib3Vy
ZyBEUyBEQ0MgNDBZMBMGByqGSM49AgEGCCqGSM49AwEHA0IABB0wSWNGfk+SPBJq
kJq22QK/HqriHCihPmK4iBsPwCicsNGQI9Q3djEUzN/gBIjQEcVyBdPGtq4VLxQs
shwidgyjggESMIIBDjAdBgNVHQ4EFgQUhHOTxbELqlA8J5QtocLrpUvgC48wHwYD
VR0jBBgwFoAUGs9Hx5jlNUyPn1WrqJr548c8nXswKwYDVR0SBCQwIoEOY3NjYUBp
bmNlcnQubHWkEDAOMQwwCgYDVQQHDANMVVgwKwYDVR0QBCQwIoAPMjAyMTA2MDkw
OTUxNTRagQ8yMDIxMTIwNjA5NTE1NFowNQYDVR0fBC4wLDAqoCigJoYkaHR0cDov
L3JlcG9zaXRvcnkuaW5jZXJ0Lmx1L2NzY2EuY3JsMA4GA1UdDwEB/wQEAwIHgDAr
BgNVHREEJDAigQ5jc2NhQGluY2VydC5sdaQQMA4xDDAKBgNVBAcMA0xVWDBBBgkq
hkiG9w0BAQowNKAPMA0GCWCGSAFlAwQCAQUAoRwwGgYJKoZIhvcNAQEIMA0GCWCG
SAFlAwQCAQUAogMCASADggIBAEa+gpgHss7+IdPOrr4bzlMSavqHqybtRzSH2hVB
rbZ9Ov3vVDmIksbUNM3nlVPL5gFAReHEJmXhHxwvoxyCO/NXOS+itmGkYRPHRH57
xTa9XIGcwWmAnbwxVy41B/NnOMeAB2TouWWfX/ZYzKiNyFJ7JEIdaQcZ/2+55c5m
lEVFMdpeDR2vmB+cgrz6j0iFxoJ1/QQeWkjfD8nr/Auy7zfm0MgQL5wZEI08A9LA
KZjFbawHcJx2RWuwWFc8dLBTMxYM0ptrXYNH/dDRpuNXMuqh68Os/aei5kbolHM2
4bSBycvInYBYyVRTi2ABDdRpItl9BEGqPSkJoYrrB2hZ3roNNugANF1rm1Fx7hlK
80QiMoELoM1RyIovlrymQb45USV2+OuEtvZ6BJ85l7q47tbwr0xxHqIL9n82t4My
4M0U7cIu5SPv6qv+ubLGnbqJvgoT9Tf3QGrH5j3XDyU0V4YfvfQhcOBLNlduuA2c
ihdAh+M6MLRbtG9svKsrA4k0PtyB9UCtqufsfDhkjM4LRGjmylclgmDtNH6DixcF
xYlK1+fikZSIPnw476WgS8/2biw2m4gAsxEZ5/vg9L/u11i853AOSsh/sFxjp62K
3O5mFAvdmLAJmrofOUghoNcAzJdDbSWtHzqQYJ+BWIjoIDiJh0m8Sl5/hVv6Bh6X
trp/
-----END CERTIFICATE-----
