Certificate:
    Data:
        Version: 3 (0x2)
        Serial Number:
            0c:37:44:91:c9:4f:08:6b:28
    Signature Algorithm: ecdsa-with-SHA256
        Issuer: CN = EADTrust ECC 256 SubCA For Qualified Certificates 2019, O = "European Agency of Digital Trust, S.L.", C = ES, 2.5.4.97 = VATES-B85626240, OU = Legal Person
        Validity
            Not Before: Apr 30 13:30:00 2021 GMT
            Not After : Apr 30 13:30:00 2023 GMT
        Subject: CN = GERENCIA REGIONAL DE SALUD CASTILLA Y LE\C3\93N (SACYL), serialNumber = Q4700608E, OU = SELLO ELECTRONICO, OU = GERENCIA REGIONAL DE SALUD DE CASTILLA Y LEON, 2.5.4.97 = VATES- Q4700608E, O = GERENCIA REGIONAL DE SALUD DE CASTILLA Y LEON, C = ES
        Subject Public Key Info:
            Public Key Algorithm: id-ecPublicKey
                Public-Key: (256 bit)
                pub:
                    04:1b:04:0d:9b:e4:78:82:d6:39:c1:64:13:78:9f:
                    7f:90:7d:53:aa:d9:f3:0b:de:c8:d4:46:50:4c:4e:
                    78:a7:66:c9:85:7b:cb:cf:62:05:91:0e:c2:41:07:
                    9b:4a:4e:dc:c2:08:a4:4c:33:9c:bd:04:a0:e7:42:
                    70:ba:93:0d:7c
                ASN1 OID: prime256v1
                NIST CURVE: P-256
        X509v3 extensions:
            X509v3 Basic Constraints: critical
                CA:FALSE
            X509v3 Authority Key Identifier: 
                keyid:D3:4C:6C:3A:BD:36:FE:70:87:23:87:3A:EE:3D:90:CF:CB:9B:F7:21

            Authority Information Access: 
                CA Issuers - URI:http://ca.eadtrust.eu/eadtrust-subca-ecc256eadlp2019.crt
                OCSP - URI:http://ocsp.eadtrust.eu

            X509v3 Issuer Alternative Name: 
                email:ca@eadtrust.eu, URI:http://www.eadtrust.eu, URI:http://ca.eadtrust.eu, URI:http://policy.eadtrust.eu
            X509v3 Subject Alternative Name: 
                DirName:/2.16.724.1.3.5.6.2.1=SELLO ELECTRONICO DE NIVEL MEDIO/2.16.724.1.3.5.6.2.2=GERENCIA REGIONAL DE SALUD DE CASTILLA Y LEON/2.16.724.1.3.5.6.2.3=Q4700608E
            X509v3 Certificate Policies: 
                Policy: 2.16.724.1.3.5.6.2
                Policy: 0.4.0.194112.1.1
                  User Notice:
                    Explicit Text: European Telecommunications Standards Institute. eIDAS European Regulation Compliant
                Policy: 1.3.6.1.4.1.501.2.1.1.0.41233
                  CPS: http://policy.eadtrust.eu
                  User Notice:
                    Explicit Text: Certificado cualificado de sello electrónico de Administración, órgano o entidad de derecho público, nivel Medio/Sustancial. Consulte las condiciones de uso en http://policy.eadtrust.eu

            X509v3 Extended Key Usage: 
                TLS Web Client Authentication, E-mail Protection
            qcStatements: 
                0..0...+.......0.......I..0......F..0......F.....0......F..0......F...0l.....F..0b00.*https://eadtrust.eu/en/documents-in-force/..en0..(https://eadtrust.eu/documentos-vigentes/..es
            X509v3 CRL Distribution Points: 

                Full Name:
                  URI:http://crl.eadtrust.eu/eadtrust-subca-ecc256eadlp2019.crl

            X509v3 Subject Key Identifier: 
                74:17:98:6C:1C:82:7A:63:B3:0B:39:5E:08:44:96:29:6F:1A:0A:80
            X509v3 Key Usage: critical
                Digital Signature, Non Repudiation, Key Encipherment
    Signature Algorithm: ecdsa-with-SHA256
         30:45:02:21:00:d8:8d:24:0a:ba:ea:18:83:fe:77:ed:a7:48:
         dc:b9:94:09:b6:41:ea:d0:b8:86:17:1a:56:98:a0:a7:08:29:
         5c:02:20:15:2e:fa:0d:c0:02:86:50:e3:cf:27:cf:20:fd:43:
         d3:ca:db:e2:6a:f7:2e:15:f6:8d:f4:5e:48:c3:47:d5:86
-----BEGIN CERTIFICATE-----
MIIHXDCCBwKgAwIBAgIJDDdEkclPCGsoMAoGCCqGSM49BAMCMIGwMT8wPQYDVQQD
DDZFQURUcnVzdCBFQ0MgMjU2IFN1YkNBIEZvciBRdWFsaWZpZWQgQ2VydGlmaWNh
dGVzIDIwMTkxLzAtBgNVBAoMJkV1cm9wZWFuIEFnZW5jeSBvZiBEaWdpdGFsIFRy
dXN0LCBTLkwuMQswCQYDVQQGEwJFUzEYMBYGA1UEYQwPVkFURVMtQjg1NjI2MjQw
MRUwEwYDVQQLDAxMZWdhbCBQZXJzb24wHhcNMjEwNDMwMTMzMDAwWhcNMjMwNDMw
MTMzMDAwWjCCAQYxPDA6BgNVBAMMM0dFUkVOQ0lBIFJFR0lPTkFMIERFIFNBTFVE
IENBU1RJTExBIFkgTEXDk04gKFNBQ1lMKTESMBAGA1UEBRMJUTQ3MDA2MDhFMRow
GAYDVQQLDBFTRUxMTyBFTEVDVFJPTklDTzE2MDQGA1UECwwtR0VSRU5DSUEgUkVH
SU9OQUwgREUgU0FMVUQgREUgQ0FTVElMTEEgWSBMRU9OMRkwFwYDVQRhDBBWQVRF
Uy0gUTQ3MDA2MDhFMTYwNAYDVQQKDC1HRVJFTkNJQSBSRUdJT05BTCBERSBTQUxV
RCBERSBDQVNUSUxMQSBZIExFT04xCzAJBgNVBAYTAkVTMFkwEwYHKoZIzj0CAQYI
KoZIzj0DAQcDQgAEGwQNm+R4gtY5wWQTeJ9/kH1TqtnzC97I1EZQTE54p2bJhXvL
z2IFkQ7CQQebSk7cwgikTDOcvQSg50JwupMNfKOCBKowggSmMAwGA1UdEwEB/wQC
MAAwHwYDVR0jBBgwFoAU00xsOr02/nCHI4c67j2Qz8ub9yEweQYIKwYBBQUHAQEE
bTBrMEQGCCsGAQUFBzAChjhodHRwOi8vY2EuZWFkdHJ1c3QuZXUvZWFkdHJ1c3Qt
c3ViY2EtZWNjMjU2ZWFkbHAyMDE5LmNydDAjBggrBgEFBQcwAYYXaHR0cDovL29j
c3AuZWFkdHJ1c3QuZXUwYwYDVR0SBFwwWoEOY2FAZWFkdHJ1c3QuZXWGFmh0dHA6
Ly93d3cuZWFkdHJ1c3QuZXWGFWh0dHA6Ly9jYS5lYWR0cnVzdC5ldYYZaHR0cDov
L3BvbGljeS5lYWR0cnVzdC5ldTCBmgYDVR0RBIGSMIGPpIGMMIGJMS8wLQYJYIVU
AQMFBgIBDCBTRUxMTyBFTEVDVFJPTklDTyBERSBOSVZFTCBNRURJTzE8MDoGCWCF
VAEDBQYCAgwtR0VSRU5DSUEgUkVHSU9OQUwgREUgU0FMVUQgREUgQ0FTVElMTEEg
WSBMRU9OMRgwFgYJYIVUAQMFBgIDDAlRNDcwMDYwOEUwggGYBgNVHSAEggGPMIIB
izAKBghghVQBAwUGAjBvBgcEAIvsQAEBMGQwYgYIKwYBBQUHAgIwVgxURXVyb3Bl
YW4gVGVsZWNvbW11bmljYXRpb25zIFN0YW5kYXJkcyBJbnN0aXR1dGUuIGVJREFT
IEV1cm9wZWFuIFJlZ3VsYXRpb24gQ29tcGxpYW50MIIBCgYOKwYBBAGDdQIBAQCC
whEwgfcwJQYIKwYBBQUHAgEWGWh0dHA6Ly9wb2xpY3kuZWFkdHJ1c3QuZXUwgc0G
CCsGAQUFBwICMIHADIG9Q2VydGlmaWNhZG8gY3VhbGlmaWNhZG8gZGUgc2VsbG8g
ZWxlY3Ryw7NuaWNvIGRlIEFkbWluaXN0cmFjacOzbiwgw7NyZ2FubyBvIGVudGlk
YWQgZGUgZGVyZWNobyBww7pibGljbywgbml2ZWwgTWVkaW8vU3VzdGFuY2lhbC4g
Q29uc3VsdGUgbGFzIGNvbmRpY2lvbmVzIGRlIHVzbyBlbiBodHRwOi8vcG9saWN5
LmVhZHRydXN0LmV1MB0GA1UdJQQWMBQGCCsGAQUFBwMCBggrBgEFBQcDBDCBwQYI
KwYBBQUHAQMEgbQwgbEwFQYIKwYBBQUHCwIwCQYHBACL7EkBAjAIBgYEAI5GAQEw
CwYGBACORgEDAgEPMBMGBgQAjkYBBjAJBgcEAI5GAQYCMGwGBgQAjkYBBTBiMDAW
Kmh0dHBzOi8vZWFkdHJ1c3QuZXUvZW4vZG9jdW1lbnRzLWluLWZvcmNlLxMCZW4w
LhYoaHR0cHM6Ly9lYWR0cnVzdC5ldS9kb2N1bWVudG9zLXZpZ2VudGVzLxMCZXMw
SgYDVR0fBEMwQTA/oD2gO4Y5aHR0cDovL2NybC5lYWR0cnVzdC5ldS9lYWR0cnVz
dC1zdWJjYS1lY2MyNTZlYWRscDIwMTkuY3JsMB0GA1UdDgQWBBR0F5hsHIJ6Y7ML
OV4IRJYpbxoKgDAOBgNVHQ8BAf8EBAMCBeAwCgYIKoZIzj0EAwIDSAAwRQIhANiN
JAq66hiD/nftp0jcuZQJtkHq0LiGFxpWmKCnCClcAiAVLvoNwAKGUOPPJ88g/UPT
ytviavcuFfaN9F5Iw0fVhg==
-----END CERTIFICATE-----
