Certificate:
    Data:
        Version: 3 (0x2)
        Serial Number:
            59:00:00:00:03:24:17:db:d4:5e:12:ff:bf:00:00:00:00:00:03
    Signature Algorithm: ecdsa-with-SHA256
        Issuer: C = NO, O = Norsk helsenett SF, CN = NO NHN CSCA PROD
        Validity
            Not Before: Jun  7 09:16:13 2021 GMT
            Not After : Jun  7 09:26:13 2023 GMT
        Subject: C = NO, O = Norwegian Institute of Public Health, CN = DSC HN EU 2
        Subject Public Key Info:
            Public Key Algorithm: id-ecPublicKey
                Public-Key: (256 bit)
                pub:
                    04:ad:b5:90:33:98:63:e5:27:91:db:70:f3:09:5d:
                    13:54:aa:c5:85:f6:2c:98:d5:55:49:b3:c5:c7:0c:
                    b0:e1:91:1f:7a:bb:19:dd:ba:76:87:ea:f0:d8:18:
                    5b:2d:bc:d5:1d:92:30:59:f9:e1:68:a6:7b:db:e2:
                    5c:89:49:2c:15
                ASN1 OID: prime256v1
                NIST CURVE: P-256
        X509v3 extensions:
            X509v3 Key Usage: critical
                Digital Signature
            X509v3 Extended Key Usage: 
                1.3.6.1.4.1.0.1847.2021.1.1, 1.3.6.1.4.1.0.1847.2021.1.2, 1.3.6.1.4.1.0.1847.2021.1.3
            X509v3 Subject Key Identifier: 
                E3:8C:BB:3E:A8:E5:7D:11:FD:A2:2B:3B:2C:E2:A2:09:4E:95:72:9A
            X509v3 Authority Key Identifier: 
                keyid:D7:90:47:A3:2A:E6:B5:B4:24:BB:4C:4F:0E:B2:66:4E:66:D8:F4:37

            X509v3 Basic Constraints: critical
                CA:FALSE
    Signature Algorithm: ecdsa-with-SHA256
         30:45:02:20:5a:13:71:2d:37:d3:c1:ed:af:0b:bc:82:db:1c:
         d5:85:f6:eb:bf:6e:ff:e5:23:07:a8:b7:88:6e:01:bd:41:85:
         02:21:00:8a:b1:fa:82:0b:56:c1:7a:97:1f:de:3e:91:fc:10:
         d0:0e:6a:d2:93:c6:09:d8:a4:e0:12:25:9d:89:a7:a4:c9
-----BEGIN CERTIFICATE-----
MIICLzCCAdWgAwIBAgITWQAAAAMkF9vUXhL/vwAAAAAAAzAKBggqhkjOPQQDAjBF
MQswCQYDVQQGEwJOTzEbMBkGA1UEChMSTm9yc2sgaGVsc2VuZXR0IFNGMRkwFwYD
VQQDExBOTyBOSE4gQ1NDQSBQUk9EMB4XDTIxMDYwNzA5MTYxM1oXDTIzMDYwNzA5
MjYxM1owUjELMAkGA1UEBhMCTk8xLTArBgNVBAoTJE5vcndlZ2lhbiBJbnN0aXR1
dGUgb2YgUHVibGljIEhlYWx0aDEUMBIGA1UEAxMLRFNDIEhOIEVVIDIwWTATBgcq
hkjOPQIBBggqhkjOPQMBBwNCAASttZAzmGPlJ5HbcPMJXRNUqsWF9iyY1VVJs8XH
DLDhkR96uxndunaH6vDYGFstvNUdkjBZ+eFopnvb4lyJSSwVo4GWMIGTMA4GA1Ud
DwEB/wQEAwIHgDAzBgNVHSUELDAqBgwrBgEEAQCON49lAQEGDCsGAQQBAI43j2UB
AgYMKwYBBAEAjjePZQEDMB0GA1UdDgQWBBTjjLs+qOV9Ef2iKzss4qIJTpVymjAf
BgNVHSMEGDAWgBTXkEejKua1tCS7TE8OsmZOZtj0NzAMBgNVHRMBAf8EAjAAMAoG
CCqGSM49BAMCA0gAMEUCIFoTcS0308Htrwu8gtsc1YX2679u/+UjB6i3iG4BvUGF
AiEAirH6ggtWwXqXH94+kfwQ0A5q0pPGCdik4BIlnYmnpMk=
-----END CERTIFICATE-----
