Certificate:
    Data:
        Version: 3 (0x2)
        Serial Number:
            49:f0:25:57:94:68:ef:e8:51:a9:16:bd:90:7e:14:9f:de:57:20:64
    Signature Algorithm: ecdsa-with-SHA256
        Issuer: C = SK, ST = SK, L = Bratislava, O = NCZI, OU = DGCOperations, CN = CSCA_DGC_SK_01
        Validity
            Not Before: Sep  2 00:00:00 2020 GMT
            Not After : Sep  1 00:00:00 2024 GMT
        Subject: C = SK, L = Bratislava, O = NCZI, OU = DGCOperations, CN = DGC_01
        Subject Public Key Info:
            Public Key Algorithm: id-ecPublicKey
                Public-Key: (256 bit)
                pub:
                    04:ea:ac:53:ea:c4:8a:dd:30:e1:79:61:47:4c:19:
                    1f:bd:ea:28:46:1b:54:5a:a1:2a:ac:42:c3:f4:1e:
                    da:02:4e:f1:8c:f4:b7:30:11:13:b6:69:d6:6f:89:
                    d1:cc:12:0d:bc:5c:2b:2c:3c:50:0a:a4:d7:f0:97:
                    af:a7:7d:dc:e1
                ASN1 OID: prime256v1
                NIST CURVE: P-256
        X509v3 extensions:
            X509v3 Key Usage: critical
                Digital Signature
            X509v3 Subject Key Identifier: 
                8F:D8:B3:09:3F:F3:F5:C7:10:51:7E:82:79:9D:27:B3:C6:6E:D1:23
            X509v3 Authority Key Identifier: 
                keyid:9B:D2:58:7B:C4:DE:17:B2:75:1A:6F:0B:67:60:DF:70:15:D7:2C:73

            X509v3 Extended Key Usage: 
                1.3.6.1.4.1.0.1847.2021.1.1, 1.3.6.1.4.1.0.1847.2021.1.2, 1.3.6.1.4.1.0.1847.2021.1.3
    Signature Algorithm: ecdsa-with-SHA256
         30:46:02:21:00:d6:30:cd:54:c7:27:3e:82:0e:68:6c:5e:15:
         12:9a:45:9f:0c:af:04:7a:c6:69:af:d0:5d:08:d2:5e:70:2a:
         e5:02:21:00:e7:69:aa:f7:ed:b8:3a:4f:c8:b7:ac:9a:7a:28:
         74:24:26:a2:75:35:29:dc:d1:09:6d:c3:5a:a0:84:22:42:d2
-----BEGIN CERTIFICATE-----
MIICVTCCAfqgAwIBAgIUSfAlV5Ro7+hRqRa9kH4Un95XIGQwCgYIKoZIzj0EAwIw
bzELMAkGA1UEBhMCU0sxCzAJBgNVBAgMAlNLMRMwEQYDVQQHDApCcmF0aXNsYXZh
MQ0wCwYDVQQKDAROQ1pJMRYwFAYDVQQLDA1ER0NPcGVyYXRpb25zMRcwFQYDVQQD
DA5DU0NBX0RHQ19TS18wMTAeFw0yMDA5MDIwMDAwMDBaFw0yNDA5MDEwMDAwMDBa
MFoxCzAJBgNVBAYTAlNLMRMwEQYDVQQHDApCcmF0aXNsYXZhMQ0wCwYDVQQKDARO
Q1pJMRYwFAYDVQQLDA1ER0NPcGVyYXRpb25zMQ8wDQYDVQQDDAZER0NfMDEwWTAT
BgcqhkjOPQIBBggqhkjOPQMBBwNCAATqrFPqxIrdMOF5YUdMGR+96ihGG1RaoSqs
QsP0HtoCTvGM9LcwERO2adZvidHMEg28XCssPFAKpNfwl6+nfdzho4GIMIGFMA4G
A1UdDwEB/wQEAwIHgDAdBgNVHQ4EFgQUj9izCT/z9ccQUX6CeZ0ns8Zu0SMwHwYD
VR0jBBgwFoAUm9JYe8TeF7J1Gm8LZ2DfcBXXLHMwMwYDVR0lBCwwKgYMKwYBBAEA
jjePZQEBBgwrBgEEAQCON49lAQIGDCsGAQQBAI43j2UBAzAKBggqhkjOPQQDAgNJ
ADBGAiEA1jDNVMcnPoIOaGxeFRKaRZ8MrwR6xmmv0F0I0l5wKuUCIQDnaar37bg6
T8i3rJp6KHQkJqJ1NSnc0Qltw1qghCJC0g==
-----END CERTIFICATE-----
