Certificate:
    Data:
        Version: 3 (0x2)
        Serial Number:
            65:71:25:89:0e:39:0c:38:60:42:89:ef:52:29:1c:e7
    Signature Algorithm: rsassaPss
         Hash Algorithm: sha512
         Mask Algorithm: mgf1 with sha512
         Salt Length: 0x40
         Trailer Field: 0xBC (default)
        Issuer: C = DE, O = D-Trust GmbH, CN = D-TRUST CA 2-2 2019, 2.5.4.97 = NTRDE-HRB74346
        Validity
            Not Before: Jun  7 10:21:15 2021 GMT
            Not After : Jun 11 10:21:15 2023 GMT
        Subject: C = DE, O = Robert Koch-Institut, OU = Elektronischer Impfnachweis, CN = Robert Koch-Institut, L = Berlin, postalCode = 13353, street = Nordufer 20, 2.5.4.97 = DT:DE-3023531445, serialNumber = CSM026413994, ST = Berlin
        Subject Public Key Info:
            Public Key Algorithm: id-ecPublicKey
                Public-Key: (256 bit)
                pub:
                    04:33:bc:d8:3d:19:35:af:8b:e2:03:fa:06:e8:1c:
                    4b:79:cd:6c:86:16:f4:26:80:c6:8c:b0:14:b8:fc:
                    66:19:23:30:f9:a0:90:65:47:18:e4:cb:54:aa:75:
                    43:df:1f:ff:92:f8:ae:15:90:ee:99:fe:b9:8b:45:
                    75:a3:b1:ac:7b
                ASN1 OID: prime256v1
                NIST CURVE: P-256
        X509v3 extensions:
            X509v3 Authority Key Identifier: 
                keyid:71:10:32:AE:74:71:7B:54:8E:F1:D6:AB:62:54:AE:FC:3E:C0:BB:16

            qcStatements: 
                0.0......F..0......F..0......F...
            Authority Information Access: 
                OCSP - URI:http://d-trust-ca-2-2-2019.ocsp.d-trust.net
                CA Issuers - URI:http://www.d-trust.net/cgi-bin/D-TRUST_CA_2-2_2019.crt
                CA Issuers - URI:ldap://directory.d-trust.net/CN=D-TRUST%20CA%202-2%202019,O=D-Trust%20GmbH,C=DE?cACertificate?base?

            X509v3 Certificate Policies: 
                Policy: 0.4.0.194112.1.1
                Policy: 1.3.6.1.4.1.4788.2.150.5
                  CPS: http://www.d-trust.net/internet/files/D-TRUST_CSM_PKI_CPS.pdf

            X509v3 CRL Distribution Points: 

                Full Name:
                  URI:ldap://directory.d-trust.net/CN=D-TRUST%20CA%202-2%202019,O=D-Trust%20GmbH,C=DE?certificaterevocationlist
                  URI:http://crl.d-trust.net/crl/d-trust_ca_2-2_2019.crl
                  URI:http://cdn.d-trust-cloudcrl.net/crl/d-trust_ca_2-2_2019.crl

            X509v3 Subject Key Identifier: 
                06:5F:3D:23:78:2F:41:B2:6B:0E:B1:4A:51:AA:76:64:09:D4:90:38
            X509v3 Key Usage: critical
                Digital Signature, Non Repudiation
    Signature Algorithm: rsassaPss
         Hash Algorithm: sha512
         Mask Algorithm: mgf1 with sha512
         Salt Length: 0x40
         Trailer Field: 0xBC (default)

         6d:91:56:e7:e2:be:39:f4:75:b7:18:6f:6d:8b:bc:81:81:53:
         2c:00:b4:b9:16:80:48:1c:48:b6:77:39:4b:a1:60:8a:55:5b:
         69:3c:8f:10:f4:5b:31:64:f7:13:a0:42:4b:94:f3:c0:c5:8e:
         60:11:22:f2:78:d9:97:ff:ec:c2:f4:7a:d7:d5:5a:0c:66:54:
         10:4b:04:5b:d4:db:55:95:e5:41:7d:29:63:7a:bc:de:56:89:
         d4:39:1d:01:e8:e2:4b:96:88:30:c8:b2:ac:63:c0:52:ce:d1:
         62:bb:b3:1c:98:8a:00:c4:15:1d:10:2b:29:30:1a:de:c4:68:
         fa:7f:71:70:bd:19:e6:05:cd:cf:4e:b7:d4:31:c6:20:fa:4b:
         b3:a5:2d:36:99:4d:c4:12:e9:29:fb:91:61:64:7f:55:30:d2:
         bb:b3:8e:74:40:aa:1b:b6:91:ae:ff:0e:21:f9:d0:a2:47:f0:
         bd:16:32:34:72:87:d9:e4:02:60:bc:36:7e:98:f8:35:d3:1b:
         bf:09:2b:bd:d4:35:9b:50:11:f1:57:8c:6b:e1:88:05:2c:36:
         f3:4c:54:ff:13:d2:7a:24:97:e6:9a:d0:53:12:86:88:29:07:
         11:4f:ad:6b:e5:29:ff:55:c2:31:74:9e:3a:e0:bf:27:b4:4c:
         74:5c:04:33:03:5b:9d:03:9f:b9:2e:06:e1:f5:e2:2c:c4:01:
         30:d7:71:88:f4:4d:cc:7c:ef:00:46:b0:4f:d3:8b:33:8e:14:
         e9:cb:80:ce:e9:57:4a:bf:50:eb:f6:b8:13:75:1b:6f:0a:0e:
         0a:0f:8c:64:70:6d:ce:42:f9:ba:65:9f:25:09:8f:8c:51:90:
         bc:08:94:f9:01:57:b7:12:ba:a9:bc:24:21:60:02:85:0a:b2:
         26:8b:f6:78:5d:b2:2c:fe:7d:63:fb:de:e7:72:9c:87:6c:8c:
         a0:ec:b0:ef:90:a2:bb:72:ac:84:90:7b:eb:7b:30:be:8a:e3:
         3c:82:eb:80:62:37:04:90:ea:c9:be:27:77:30:28:24:f9:5e:
         b7:cb:b7:8b:2c:0a:80:93:a5:08:c8:4f:0e:b3:9c:85:ae:80:
         a5:dd:fc:dd:41:8c:a7:15:da:c7:e6:c1:c5:e6:73:44:94:5a:
         fa:c4:cd:8d:3b:e7:61:73:54:1a:38:bb:09:5d:20:76:4a:dc:
         df:f1:28:69:87:9c:b1:05:2f:2c:9b:b4:b0:04:b5:b3:73:b4:
         82:c6:b6:cf:7d:50:e2:97:01:6f:9e:5b:a2:84:10:89:cb:30:
         01:a5:0c:73:5a:bb:20:b1:b6:9d:b9:df:ea:35:30:e3:4b:62:
         e5:aa:fd:01:51:b9:69:32
-----BEGIN CERTIFICATE-----
MIIHUTCCBQmgAwIBAgIQZXEliQ45DDhgQonvUikc5zA9BgkqhkiG9w0BAQowMKAN
MAsGCWCGSAFlAwQCA6EaMBgGCSqGSIb3DQEBCDALBglghkgBZQMEAgOiAwIBQDBb
MQswCQYDVQQGEwJERTEVMBMGA1UEChMMRC1UcnVzdCBHbWJIMRwwGgYDVQQDExNE
LVRSVVNUIENBIDItMiAyMDE5MRcwFQYDVQRhEw5OVFJERS1IUkI3NDM0NjAeFw0y
MTA2MDcxMDIxMTVaFw0yMzA2MTExMDIxMTVaMIHrMQswCQYDVQQGEwJERTEdMBsG
A1UEChMUUm9iZXJ0IEtvY2gtSW5zdGl0dXQxJDAiBgNVBAsTG0VsZWt0cm9uaXNj
aGVyIEltcGZuYWNod2VpczEdMBsGA1UEAxMUUm9iZXJ0IEtvY2gtSW5zdGl0dXQx
DzANBgNVBAcTBkJlcmxpbjEOMAwGA1UEEQwFMTMzNTMxFDASBgNVBAkTC05vcmR1
ZmVyIDIwMRkwFwYDVQRhExBEVDpERS0zMDIzNTMxNDQ1MRUwEwYDVQQFEwxDU00w
MjY0MTM5OTQxDzANBgNVBAgTBkJlcmxpbjBZMBMGByqGSM49AgEGCCqGSM49AwEH
A0IABDO82D0ZNa+L4gP6BugcS3nNbIYW9CaAxoywFLj8ZhkjMPmgkGVHGOTLVKp1
Q98f/5L4rhWQ7pn+uYtFdaOxrHujggLpMIIC5TAfBgNVHSMEGDAWgBRxEDKudHF7
VI7x1qtiVK78PsC7FjAtBggrBgEFBQcBAwQhMB8wCAYGBACORgEBMBMGBgQAjkYB
BjAJBgcEAI5GAQYCMIH+BggrBgEFBQcBAQSB8TCB7jA3BggrBgEFBQcwAYYraHR0
cDovL2QtdHJ1c3QtY2EtMi0yLTIwMTkub2NzcC5kLXRydXN0Lm5ldDBCBggrBgEF
BQcwAoY2aHR0cDovL3d3dy5kLXRydXN0Lm5ldC9jZ2ktYmluL0QtVFJVU1RfQ0Ff
Mi0yXzIwMTkuY3J0MG8GCCsGAQUFBzAChmNsZGFwOi8vZGlyZWN0b3J5LmQtdHJ1
c3QubmV0L0NOPUQtVFJVU1QlMjBDQSUyMDItMiUyMDIwMTksTz1ELVRydXN0JTIw
R21iSCxDPURFP2NBQ2VydGlmaWNhdGU/YmFzZT8wcAYDVR0gBGkwZzAJBgcEAIvs
QAEBMFoGCysGAQQBpTQCgRYFMEswSQYIKwYBBQUHAgEWPWh0dHA6Ly93d3cuZC10
cnVzdC5uZXQvaW50ZXJuZXQvZmlsZXMvRC1UUlVTVF9DU01fUEtJX0NQUy5wZGYw
gfAGA1UdHwSB6DCB5TCB4qCB36CB3IZpbGRhcDovL2RpcmVjdG9yeS5kLXRydXN0
Lm5ldC9DTj1ELVRSVVNUJTIwQ0ElMjAyLTIlMjAyMDE5LE89RC1UcnVzdCUyMEdt
YkgsQz1ERT9jZXJ0aWZpY2F0ZXJldm9jYXRpb25saXN0hjJodHRwOi8vY3JsLmQt
dHJ1c3QubmV0L2NybC9kLXRydXN0X2NhXzItMl8yMDE5LmNybIY7aHR0cDovL2Nk
bi5kLXRydXN0LWNsb3VkY3JsLm5ldC9jcmwvZC10cnVzdF9jYV8yLTJfMjAxOS5j
cmwwHQYDVR0OBBYEFAZfPSN4L0Gyaw6xSlGqdmQJ1JA4MA4GA1UdDwEB/wQEAwIG
wDA9BgkqhkiG9w0BAQowMKANMAsGCWCGSAFlAwQCA6EaMBgGCSqGSIb3DQEBCDAL
BglghkgBZQMEAgOiAwIBQAOCAgEAbZFW5+K+OfR1txhvbYu8gYFTLAC0uRaASBxI
tnc5S6FgilVbaTyPEPRbMWT3E6BCS5TzwMWOYBEi8njZl//swvR619VaDGZUEEsE
W9TbVZXlQX0pY3q83laJ1DkdAejiS5aIMMiyrGPAUs7RYruzHJiKAMQVHRArKTAa
3sRo+n9xcL0Z5gXNz0631DHGIPpLs6UtNplNxBLpKfuRYWR/VTDSu7OOdECqG7aR
rv8OIfnQokfwvRYyNHKH2eQCYLw2fpj4NdMbvwkrvdQ1m1AR8VeMa+GIBSw280xU
/xPSeiSX5prQUxKGiCkHEU+ta+Up/1XCMXSeOuC/J7RMdFwEMwNbnQOfuS4G4fXi
LMQBMNdxiPRNzHzvAEawT9OLM44U6cuAzulXSr9Q6/a4E3UbbwoOCg+MZHBtzkL5
umWfJQmPjFGQvAiU+QFXtxK6qbwkIWAChQqyJov2eF2yLP59Y/ve53Kch2yMoOyw
75Ciu3KshJB763swvorjPILrgGI3BJDqyb4ndzAoJPlet8u3iywKgJOlCMhPDrOc
ha6Apd383UGMpxXax+bBxeZzRJRa+sTNjTvnYXNUGji7CV0gdkrc3/EoaYecsQUv
LJu0sAS1s3O0gsa2z31Q4pcBb55booQQicswAaUMc1q7ILG2nbnf6jUw40ti5ar9
AVG5aTI=
-----END CERTIFICATE-----
