Certificate:
    Data:
        Version: 3 (0x2)
        Serial Number:
            40:64:fa:ea:2d:63:ef:66:1d:f8:25:d5:67:18:1a:24:58:4b:18:a7
    Signature Algorithm: sha256WithRSAEncryption
        Issuer: C = FR, O = Gouv, CN = CSCA-FRANCE
        Validity
            Not Before: Nov 14 23:00:00 2021 GMT
            Not After : Nov 14 23:00:00 2023 GMT
        Subject: C = FR, O = CNAM, OU = 180035024, CN = DSC_FR_024
        Subject Public Key Info:
            Public Key Algorithm: id-ecPublicKey
                Public-Key: (256 bit)
                pub:
                    04:ec:1e:08:97:e6:98:05:99:3c:86:cd:4c:23:6f:
                    07:e1:9e:06:17:61:d9:09:78:17:fc:34:93:c6:f5:
                    28:08:c5:73:7b:8c:69:e3:8f:56:24:b6:e5:48:22:
                    97:ad:e1:9d:89:3d:0c:c9:c8:1e:be:8e:2b:59:85:
                    46:6f:0b:54:c6
                ASN1 OID: prime256v1
                NIST CURVE: P-256
        X509v3 extensions:
            X509v3 Subject Key Identifier: 
                E9:22:86:20:FA:B2:B7:19:FB:A8:07:F4:B8:90:35:57:3A:43:04:3C
            X509v3 Authority Key Identifier: 
                keyid:BE:8A:2E:D6:C9:F9:20:4E:3A:27:03:08:97:4D:EC:FD:D9:7D:C5:E6

            X509v3 Basic Constraints: critical
                CA:FALSE
            X509v3 Key Usage: critical
                Digital Signature
            X509v3 CRL Distribution Points: 

                Full Name:
                  URI:http://ants.gouv.fr/csca_crl

            X509v3 Certificate Policies: 
                Policy: 1.2.250.1.200.31.3.9.1.1

            Authority Information Access: 
                CA Issuers - URI:https://ant.gouv.fr/csca

    Signature Algorithm: sha256WithRSAEncryption
         83:55:6b:b3:1b:63:93:8f:50:6b:14:3f:2d:61:4b:0b:55:a6:
         45:33:4e:ff:c5:de:2f:20:12:54:78:cf:65:75:9f:be:b9:7d:
         7e:df:92:94:aa:a5:84:8a:26:ee:c6:1b:c6:26:05:e7:e8:34:
         a9:18:f0:05:63:15:a9:f1:64:60:fa:49:91:eb:ab:8b:66:b0:
         2d:0a:3d:1e:bf:28:88:f3:55:48:7a:45:8b:7c:e3:af:88:0c:
         2c:4b:f6:6e:e4:3a:2d:46:ef:01:3d:94:e9:e3:96:d7:b0:22:
         36:14:ff:dd:7c:cd:0f:cb:48:2e:cf:be:ec:92:94:eb:be:69:
         e3:a6:2d:28:d8:2e:26:12:55:3c:43:be:f5:c3:1d:05:d7:89:
         50:cf:1d:d1:14:55:e3:40:25:91:8f:d3:85:52:3a:07:3a:b1:
         9a:20:fa:8c:09:1a:e1:b5:89:17:3b:51:f3:19:01:b3:74:41:
         c5:cb:a6:19:73:c8:24:8a:42:f1:c2:7d:76:a9:e7:b0:17:4b:
         25:f0:e5:58:b7:ef:a6:7f:64:d3:74:08:53:df:d7:39:b9:f0:
         df:02:c6:c0:55:a7:c5:da:fa:b1:03:0d:c4:90:8c:a6:4d:d4:
         da:d4:fa:a2:0e:83:1b:29:43:e0:e4:1b:19:0b:ea:17:39:b5:
         c7:ee:57:d7:50:d0:21:d8:50:84:16:db:cf:ec:a6:54:18:55:
         8d:54:e6:e8:3e:49:b0:41:d8:39:c5:e2:d3:46:88:b3:9c:ee:
         0e:cd:00:60:98:56:65:6f:de:8a:60:60:91:1c:b6:58:4f:fa:
         78:7e:3d:a4:14:a5:f3:43:a6:34:07:31:6e:8a:99:1d:04:b5:
         8e:62:ea:67:dc:a9:b4:9d:e9:6d:23:97:65:2d:40:06:0b:06:
         39:85:c2:c8:74:cf:cb:93:90:03:9c:c7:22:df:b3:6a:48:32:
         bd:c1:49:9b:86:1c:20:e0:fd:80:ac:eb:a7:28:81:ee:a2:4b:
         6f:39:62:4c:77:22:9a:e2:28:31:f2:9f:cc:c8:bc:d8:ad:ab:
         b0:56:75:f2:09:60:46:79:b4:fc:6d:48:f0:28:27:a2:5d:aa:
         5e:39:09:4c:9a:b7:06:02:38:eb:e6:80:d9:a7:7c:b0:c5:81:
         fb:72:fb:27:d7:63:fe:74:09:ac:d6:99:71:86:79:20:c8:72:
         1f:17:99:47:1a:68:f5:ba:d4:46:0c:ed:f4:9f:d0:8f:68:45:
         e6:0b:f6:a2:f2:57:a3:e1:60:8c:c8:8b:ba:c5:69:b2:2d:c7:
         29:c6:32:51:2d:fa:74:a8:fe:7f:8b:72:d2:43:dd:52:49:5c:
         77:1e:76:a2:04:3b:2b:8e
-----BEGIN CERTIFICATE-----
MIIEGzCCAgOgAwIBAgIUQGT66i1j72Yd+CXVZxgaJFhLGKcwDQYJKoZIhvcNAQEL
BQAwMjELMAkGA1UEBhMCRlIxDTALBgNVBAoMBEdvdXYxFDASBgNVBAMMC0NTQ0Et
RlJBTkNFMB4XDTIxMTExNDIzMDAwMFoXDTIzMTExNDIzMDAwMFowRTELMAkGA1UE
BhMCRlIxDTALBgNVBAoMBENOQU0xEjAQBgNVBAsMCTE4MDAzNTAyNDETMBEGA1UE
AwwKRFNDX0ZSXzAyNDBZMBMGByqGSM49AgEGCCqGSM49AwEHA0IABOweCJfmmAWZ
PIbNTCNvB+GeBhdh2Ql4F/w0k8b1KAjFc3uMaeOPViS25Ugil63hnYk9DMnIHr6O
K1mFRm8LVMajgeAwgd0wHQYDVR0OBBYEFOkihiD6srcZ+6gH9LiQNVc6QwQ8MB8G
A1UdIwQYMBaAFL6KLtbJ+SBOOicDCJdN7P3ZfcXmMAwGA1UdEwEB/wQCMAAwDgYD
VR0PAQH/BAQDAgeAMC0GA1UdHwQmMCQwIqAgoB6GHGh0dHA6Ly9hbnRzLmdvdXYu
ZnIvY3NjYV9jcmwwGAYDVR0gBBEwDzANBgsqgXoBgUgfAwkBATA0BggrBgEFBQcB
AQQoMCYwJAYIKwYBBQUHMAKGGGh0dHBzOi8vYW50LmdvdXYuZnIvY3NjYTANBgkq
hkiG9w0BAQsFAAOCAgEAg1Vrsxtjk49QaxQ/LWFLC1WmRTNO/8XeLyASVHjPZXWf
vrl9ft+SlKqlhIom7sYbxiYF5+g0qRjwBWMVqfFkYPpJkeuri2awLQo9Hr8oiPNV
SHpFi3zjr4gMLEv2buQ6LUbvAT2U6eOW17AiNhT/3XzND8tILs++7JKU675p46Yt
KNguJhJVPEO+9cMdBdeJUM8d0RRV40AlkY/ThVI6BzqxmiD6jAka4bWJFztR8xkB
s3RBxcumGXPIJIpC8cJ9dqnnsBdLJfDlWLfvpn9k03QIU9/XObnw3wLGwFWnxdr6
sQMNxJCMpk3U2tT6og6DGylD4OQbGQvqFzm1x+5X11DQIdhQhBbbz+ymVBhVjVTm
6D5JsEHYOcXi00aIs5zuDs0AYJhWZW/eimBgkRy2WE/6eH49pBSl80OmNAcxboqZ
HQS1jmLqZ9yptJ3pbSOXZS1ABgsGOYXCyHTPy5OQA5zHIt+zakgyvcFJm4YcIOD9
gKzrpyiB7qJLbzliTHcimuIoMfKfzMi82K2rsFZ18glgRnm0/G1I8Cgnol2qXjkJ
TJq3BgI46+aA2ad8sMWB+3L7J9dj/nQJrNaZcYZ5IMhyHxeZRxpo9brURgzt9J/Q
j2hF5gv2ovJXo+FgjMiLusVpsi3HKcYyUS36dKj+f4ty0kPdUklcdx52ogQ7K44=
-----END CERTIFICATE-----
