Certificate:
    Data:
        Version: 3 (0x2)
        Serial Number: 8805869293319577089 (0x7a34bb777ed55e01)
    Signature Algorithm: ecdsa-with-SHA256
        Issuer: C = MT, O = Government of Malta, CN = Malta DCC Signing CA
        Validity
            Not Before: Jun 21 00:00:00 2021 GMT
            Not After : Jun 21 23:59:59 2023 GMT
        Subject: CN = MLT-DSC-TEST-001, O = Government of Malta, C = MT
        Subject Public Key Info:
            Public Key Algorithm: id-ecPublicKey
                Public-Key: (256 bit)
                pub:
                    04:7d:aa:4f:f3:e4:1e:c8:58:17:56:f6:38:d5:89:
                    10:b9:d9:54:52:1e:c8:64:10:69:21:d3:89:df:8c:
                    58:9b:10:84:b8:75:db:55:41:6a:b7:f2:52:9d:ba:
                    55:b0:6b:1d:ed:90:4f:52:32:f6:bb:92:ac:f6:6a:
                    01:30:31:0f:2e
                ASN1 OID: prime256v1
                NIST CURVE: P-256
        X509v3 extensions:
            X509v3 Key Usage: critical
                Digital Signature
            X509v3 Extended Key Usage: critical
                1.3.6.1.4.1.0.1847.2021.1.1
            X509v3 Subject Key Identifier: 
                14:7E:28:51:17:BA:E9:97:80:27:39:19:67:B6:E7:C8:AA:56:B9:DF
            X509v3 Authority Key Identifier: 
                keyid:10:0A:AD:FA:4C:33:E2:FD:AB:8D:DD:E1:96:6E:FE:8E:BF:1C:70:AD
                DirName:/C=MT/O=Government of Malta/CN=Malta DCC Signing CA
                serial:13:EC:B7:27:9D:3A:2C:D3

            X509v3 Private Key Usage Period: 
                Not Before: Jun 21 00:00:00 2021 GMT, Not After: Dec 21 23:59:59 2021 GMT
    Signature Algorithm: ecdsa-with-SHA256
         30:46:02:21:00:c1:9c:6f:ae:2d:f7:21:ca:96:b9:c2:79:87:
         31:48:b6:69:61:33:5a:46:e3:a0:68:27:e5:6b:16:99:77:df:
         70:02:21:00:a3:2e:b0:16:aa:ef:1c:d6:55:13:2b:78:d1:6f:
         42:c8:ad:ac:26:92:6a:a0:e8:40:fb:d0:b9:4e:f6:f9:28:cd
-----BEGIN CERTIFICATE-----
MIICfjCCAiOgAwIBAgIIejS7d37VXgEwCgYIKoZIzj0EAwIwSjELMAkGA1UEBhMC
TVQxHDAaBgNVBAoME0dvdmVybm1lbnQgb2YgTWFsdGExHTAbBgNVBAMMFE1hbHRh
IERDQyBTaWduaW5nIENBMB4XDTIxMDYyMTAwMDAwMFoXDTIzMDYyMTIzNTk1OVow
RjEZMBcGA1UEAwwQTUxULURTQy1URVNULTAwMTEcMBoGA1UECgwTR292ZXJubWVu
dCBvZiBNYWx0YTELMAkGA1UEBhMCTVQwWTATBgcqhkjOPQIBBggqhkjOPQMBBwNC
AAR9qk/z5B7IWBdW9jjViRC52VRSHshkEGkh04nfjFibEIS4ddtVQWq38lKdulWw
ax3tkE9SMva7kqz2agEwMQ8uo4H2MIHzMA4GA1UdDwEB/wQEAwIHgDAaBgNVHSUB
Af8EEDAOBgwrBgEEAQCON49lAQEwHQYDVR0OBBYEFBR+KFEXuumXgCc5GWe258iq
VrnfMHkGA1UdIwRyMHCAFBAKrfpMM+L9q43d4ZZu/o6/HHCtoU6kTDBKMQswCQYD
VQQGEwJNVDEcMBoGA1UECgwTR292ZXJubWVudCBvZiBNYWx0YTEdMBsGA1UEAwwU
TWFsdGEgRENDIFNpZ25pbmcgQ0GCCBPstyedOizTMCsGA1UdEAQkMCKADzIwMjEw
NjIxMDAwMDAwWoEPMjAyMTEyMjEyMzU5NTlaMAoGCCqGSM49BAMCA0kAMEYCIQDB
nG+uLfchypa5wnmHMUi2aWEzWkbjoGgn5WsWmXffcAIhAKMusBaq7xzWVRMreNFv
QsitrCaSaqDoQPvQuU72+SjN
-----END CERTIFICATE-----
