Certificate:
    Data:
        Version: 3 (0x2)
        Serial Number:
            2a:19:41:ee:3f:f3:9d:46:c7:6e:a1:10:7c:91:2b:b9:df:00:c8:f3
    Signature Algorithm: ecdsa-with-SHA256
        Issuer: C = GR, CN = grnet.gr
        Validity
            Not Before: May 24 18:35:25 2021 GMT
            Not After : May 24 18:35:25 2023 GMT
        Subject: C = GR, CN = grnet.gr
        Subject Public Key Info:
            Public Key Algorithm: id-ecPublicKey
                Public-Key: (256 bit)
                pub:
                    04:68:8e:d8:fa:5a:58:f5:cb:f9:87:98:0a:0e:b0:
                    33:a6:48:65:e5:b1:4f:7a:7f:e8:84:03:2e:25:75:
                    38:b8:57:d0:bb:45:27:48:30:85:b7:f6:c7:4d:67:
                    2a:2b:16:1c:8a:4f:18:7e:71:7e:51:94:96:38:a1:
                    37:32:c9:65:11
                ASN1 OID: prime256v1
                NIST CURVE: P-256
        X509v3 extensions:
            X509v3 Key Usage: critical
                Digital Signature
            X509v3 Subject Key Identifier: 
                A7:D1:22:B8:D3:05:53:76:FE:D9:93:B7:C2:37:DB:2A:D5:97:70:D1
            X509v3 Authority Key Identifier: 
                keyid:70:16:9B:D2:BF:27:16:C4:5E:47:FB:5D:CA:A1:28:F1:A6:A4:32:BD

            X509v3 CRL Distribution Points: 

                Full Name:
                  URI:https://crl.dgc.services.gov.gr/CSCA.crl

            X509v3 Extended Key Usage: 
                1.3.6.1.4.1.0.1847.2021.1.1, 1.3.6.1.4.1.0.1847.2021.1.2, 1.3.6.1.4.1.0.1847.2021.1.3
    Signature Algorithm: ecdsa-with-SHA256
         30:45:02:20:5d:59:b1:a1:3d:46:66:1f:13:15:f5:e5:e5:54:
         49:0b:45:8f:b3:19:d0:ac:29:5c:60:00:c9:36:25:8a:94:f0:
         02:21:00:d9:17:66:18:83:54:f0:f9:20:38:84:c3:76:77:af:
         43:1d:07:1c:7b:8f:2e:ab:43:30:63:fc:ae:0e:4a:00:a5
-----BEGIN CERTIFICATE-----
MIICBjCCAaygAwIBAgIUKhlB7j/znUbHbqEQfJErud8AyPMwCgYIKoZIzj0EAwIw
IDELMAkGA1UEBhMCR1IxETAPBgNVBAMMCGdybmV0LmdyMB4XDTIxMDUyNDE4MzUy
NVoXDTIzMDUyNDE4MzUyNVowIDELMAkGA1UEBhMCR1IxETAPBgNVBAMMCGdybmV0
LmdyMFkwEwYHKoZIzj0CAQYIKoZIzj0DAQcDQgAEaI7Y+lpY9cv5h5gKDrAzpkhl
5bFPen/ohAMuJXU4uFfQu0UnSDCFt/bHTWcqKxYcik8YfnF+UZSWOKE3MsllEaOB
wzCBwDAOBgNVHQ8BAf8EBAMCB4AwHQYDVR0OBBYEFKfRIrjTBVN2/tmTt8I32yrV
l3DRMB8GA1UdIwQYMBaAFHAWm9K/JxbEXkf7XcqhKPGmpDK9MDkGA1UdHwQyMDAw
LqAsoCqGKGh0dHBzOi8vY3JsLmRnYy5zZXJ2aWNlcy5nb3YuZ3IvQ1NDQS5jcmww
MwYDVR0lBCwwKgYMKwYBBAEAjjePZQEBBgwrBgEEAQCON49lAQIGDCsGAQQBAI43
j2UBAzAKBggqhkjOPQQDAgNIADBFAiBdWbGhPUZmHxMV9eXlVEkLRY+zGdCsKVxg
AMk2JYqU8AIhANkXZhiDVPD5IDiEw3Z3r0MdBxx7jy6rQzBj/K4OSgCl
-----END CERTIFICATE-----
