Certificate:
    Data:
        Version: 3 (0x2)
        Serial Number: 5256202099015749317 (0x48f1c7f5e37f0ec5)
    Signature Algorithm: ecdsa-with-SHA256
        Issuer: CN = Poland DGC RootCSCA 1, O = Ministry of Health, C = PL
        Validity
            Not Before: May 26 11:50:25 2021 GMT
            Not After : May 26 11:50:25 2023 GMT
        Subject: CN = Poland Test DGC Service 1, OU = eHealth Centre, O = Ministry of Health, C = PL
        Subject Public Key Info:
            Public Key Algorithm: id-ecPublicKey
                Public-Key: (256 bit)
                pub:
                    04:44:6e:32:23:f4:92:bf:bd:33:12:d5:63:cc:8a:
                    e7:fc:2c:a9:47:57:b4:05:93:b9:bb:c6:c8:82:5b:
                    59:89:ca:e0:fb:df:76:9f:66:bb:1a:e7:31:2b:ac:
                    f2:f7:5c:6a:f0:5f:17:1f:b0:74:48:95:3b:e6:a9:
                    2b:f1:9d:5d:f4
                ASN1 OID: prime256v1
                NIST CURVE: P-256
        X509v3 extensions:
            X509v3 Authority Key Identifier: 
                keyid:91:79:A2:DA:68:81:12:C0:A3:74:1A:A4:BA:DD:EB:0F:99:EC:8B:01

            X509v3 Extended Key Usage: 
                1.3.6.1.4.1.1847.2021.1.1
            X509v3 CRL Distribution Points: 

                Full Name:
                  URI:http://p1.ezdrowie.gov.pl/ccp1/crl/DGCRootCSCA1.crl

            X509v3 Subject Key Identifier: 
                26:D7:28:FB:80:F0:8D:05:DE:EE:D6:00:D9:7D:2C:BC:15:9C:F1:AA
            X509v3 Private Key Usage Period: 
                Not Before: May 26 11:50:25 2021 GMT, Not After: May 26 11:50:25 2022 GMT
            X509v3 Key Usage: critical
                Digital Signature
    Signature Algorithm: ecdsa-with-SHA256
         30:45:02:21:00:f4:68:cd:a8:ba:2f:5a:81:d8:ef:b3:75:b7:
         08:19:c9:cc:d8:f5:41:39:fc:ea:dc:43:4f:cc:f8:7f:dd:94:
         fd:02:20:75:f0:35:f9:ce:7a:ef:10:38:cb:fd:75:be:0b:b1:
         c5:ef:67:0c:70:2d:00:01:29:5d:ef:05:92:ea:72:15:39
-----BEGIN CERTIFICATE-----
MIIChjCCAiygAwIBAgIISPHH9eN/DsUwCgYIKoZIzj0EAwIwSjEeMBwGA1UEAwwV
UG9sYW5kIERHQyBSb290Q1NDQSAxMRswGQYDVQQKDBJNaW5pc3RyeSBvZiBIZWFs
dGgxCzAJBgNVBAYTAlBMMB4XDTIxMDUyNjExNTAyNVoXDTIzMDUyNjExNTAyNVow
ZzEiMCAGA1UEAwwZUG9sYW5kIFRlc3QgREdDIFNlcnZpY2UgMTEXMBUGA1UECwwO
ZUhlYWx0aCBDZW50cmUxGzAZBgNVBAoMEk1pbmlzdHJ5IG9mIEhlYWx0aDELMAkG
A1UEBhMCUEwwWTATBgcqhkjOPQIBBggqhkjOPQMBBwNCAAREbjIj9JK/vTMS1WPM
iuf8LKlHV7QFk7m7xsiCW1mJyuD733afZrsa5zErrPL3XGrwXxcfsHRIlTvmqSvx
nV30o4HeMIHbMB8GA1UdIwQYMBaAFJF5otpogRLAo3QapLrd6w+Z7IsBMBYGA1Ud
JQQPMA0GCysGAQQBjjePZQEBMEQGA1UdHwQ9MDswOaA3oDWGM2h0dHA6Ly9wMS5l
emRyb3dpZS5nb3YucGwvY2NwMS9jcmwvREdDUm9vdENTQ0ExLmNybDAdBgNVHQ4E
FgQUJtco+4DwjQXe7tYA2X0svBWc8aowKwYDVR0QBCQwIoAPMjAyMTA1MjYxMTUw
MjVagQ8yMDIyMDUyNjExNTAyNVowDgYDVR0PAQH/BAQDAgeAMAoGCCqGSM49BAMC
A0gAMEUCIQD0aM2oui9agdjvs3W3CBnJzNj1QTn86txDT8z4f92U/QIgdfA1+c56
7xA4y/11vguxxe9nDHAtAAEpXe8FkupyFTk=
-----END CERTIFICATE-----
