Certificate:
    Data:
        Version: 3 (0x2)
        Serial Number: 4602565760344528260 (0x3fdf992c70b61584)
    Signature Algorithm: ecdsa-with-SHA256
        Issuer: C = LI, L = Vaduz, O = Liechtensteinische Landesverwaltung, CN = DGC-NB-CSCA-PROD-20210608, emailAddress = webmaster@llv.li
        Validity
            Not Before: Jun  8 07:42:00 2021 GMT
            Not After : Jun  8 07:42:00 2023 GMT
        Subject: C = LI, L = Vaduz, O = Liechtensteinische Landesverwaltung, CN = DGC-NB-DSC-TEST-PROD-20210608, emailAddress = webmaster@llv.li
        Subject Public Key Info:
            Public Key Algorithm: id-ecPublicKey
                Public-Key: (256 bit)
                pub:
                    04:06:71:54:8e:bf:05:a5:fa:55:69:51:6d:09:45:
                    bb:62:0e:89:06:4f:e7:d5:39:49:28:42:a9:9b:fa:
                    d9:3a:f0:04:cc:aa:70:a1:30:a9:5e:95:cf:3f:54:
                    8f:1a:1b:d0:5f:32:7e:8b:87:41:40:78:1b:77:0d:
                    92:0e:97:19:99
                ASN1 OID: prime256v1
                NIST CURVE: P-256
        X509v3 extensions:
            X509v3 Basic Constraints: critical
                CA:FALSE
            X509v3 Subject Key Identifier: 
                A7:44:8D:52:E9:4B:F6:DD:28:23:10:76:FA:4C:BE:2B:A4:A3:EA:C4
            X509v3 Authority Key Identifier: 
                keyid:F4:9E:78:7C:16:DF:0E:7B:04:53:0C:D6:9A:78:34:28:1C:4D:DF:85

            X509v3 Key Usage: critical
                Digital Signature
            X509v3 CRL Distribution Points: 

                Full Name:
                  URI:http://crl.llv.li/DGC-NB-CSCA-PROD-20210608

            Netscape Comment: 
                xca certificate
            X509v3 Extended Key Usage: 
                1.3.6.1.4.1.1847.2021.1.1
    Signature Algorithm: ecdsa-with-SHA256
         30:44:02:20:4e:f1:a0:60:ad:e2:8f:d6:d9:bf:22:ac:86:8c:
         83:95:8a:d0:c1:74:7b:06:d8:f4:24:87:29:76:ae:8d:16:a1:
         02:20:77:7a:00:11:91:af:e3:72:28:98:e7:94:1e:d9:95:88:
         89:0d:fa:c4:45:53:f2:17:fa:bf:12:c9:a1:bf:9e:8f
-----BEGIN CERTIFICATE-----
MIIC8zCCApqgAwIBAgIIP9+ZLHC2FYQwCgYIKoZIzj0EAwIwgZAxCzAJBgNVBAYT
AkxJMQ4wDAYDVQQHEwVWYWR1ejEsMCoGA1UEChMjTGllY2h0ZW5zdGVpbmlzY2hl
IExhbmRlc3ZlcndhbHR1bmcxIjAgBgNVBAMTGURHQy1OQi1DU0NBLVBST0QtMjAy
MTA2MDgxHzAdBgkqhkiG9w0BCQEWEHdlYm1hc3RlckBsbHYubGkwHhcNMjEwNjA4
MDc0MjAwWhcNMjMwNjA4MDc0MjAwWjCBlDELMAkGA1UEBhMCTEkxDjAMBgNVBAcT
BVZhZHV6MSwwKgYDVQQKEyNMaWVjaHRlbnN0ZWluaXNjaGUgTGFuZGVzdmVyd2Fs
dHVuZzEmMCQGA1UEAxMdREdDLU5CLURTQy1URVNULVBST0QtMjAyMTA2MDgxHzAd
BgkqhkiG9w0BCQEWEHdlYm1hc3RlckBsbHYubGkwWTATBgcqhkjOPQIBBggqhkjO
PQMBBwNCAAQGcVSOvwWl+lVpUW0JRbtiDokGT+fVOUkoQqmb+tk68ATMqnChMKle
lc8/VI8aG9BfMn6Lh0FAeBt3DZIOlxmZo4HXMIHUMAwGA1UdEwEB/wQCMAAwHQYD
VR0OBBYEFKdEjVLpS/bdKCMQdvpMviuko+rEMB8GA1UdIwQYMBaAFPSeeHwW3w57
BFMM1pp4NCgcTd+FMA4GA1UdDwEB/wQEAwIHgDA8BgNVHR8ENTAzMDGgL6Athito
dHRwOi8vY3JsLmxsdi5saS9ER0MtTkItQ1NDQS1QUk9ELTIwMjEwNjA4MB4GCWCG
SAGG+EIBDQQRFg94Y2EgY2VydGlmaWNhdGUwFgYDVR0lBA8wDQYLKwYBBAGON49l
AQEwCgYIKoZIzj0EAwIDRwAwRAIgTvGgYK3ij9bZvyKshoyDlYrQwXR7Btj0JIcp
dq6NFqECIHd6ABGRr+NyKJjnlB7ZlYiJDfrERVPyF/q/Esmhv56P
-----END CERTIFICATE-----
