Certificate:
    Data:
        Version: 3 (0x2)
        Serial Number:
            60:53:39:e8:88:d8:c0:07:f3:34:fc:f8:6c:77:be:ef
    Signature Algorithm: rsassaPss
         Hash Algorithm: sha512
         Mask Algorithm: mgf1 with sha512
         Salt Length: 0x40
         Trailer Field: 0xBC (default)
        Issuer: C = DE, O = D-Trust GmbH, CN = D-TRUST CA 2-2 2019, 2.5.4.97 = NTRDE-HRB74346
        Validity
            Not Before: Jun  3 11:01:08 2021 GMT
            Not After : Jun  7 11:01:08 2023 GMT
        Subject: C = DE, O = Robert Koch-Institut, OU = Elektronischer Impfnachweis, CN = Robert Koch-Institut, L = Berlin, postalCode = 13353, street = Nordufer 20, 2.5.4.97 = DT:DE-3023531445, serialNumber = CSM026383107, ST = Berlin
        Subject Public Key Info:
            Public Key Algorithm: id-ecPublicKey
                Public-Key: (256 bit)
                pub:
                    04:b4:b6:75:37:66:3b:51:01:e0:44:ed:f2:28:6c:
                    91:4e:c2:56:75:81:46:0e:57:79:91:b8:25:14:61:
                    eb:32:f6:50:c1:ae:57:a0:17:25:1f:dc:53:ac:fd:
                    dd:5d:c4:ec:82:39:e6:97:b1:f1:e5:86:4e:9c:61:
                    e1:24:ca:de:9f
                ASN1 OID: prime256v1
                NIST CURVE: P-256
        X509v3 extensions:
            X509v3 Authority Key Identifier: 
                keyid:71:10:32:AE:74:71:7B:54:8E:F1:D6:AB:62:54:AE:FC:3E:C0:BB:16

            qcStatements: 
                0.0......F..0......F..0......F...
            Authority Information Access: 
                OCSP - URI:http://d-trust-ca-2-2-2019.ocsp.d-trust.net
                CA Issuers - URI:http://www.d-trust.net/cgi-bin/D-TRUST_CA_2-2_2019.crt
                CA Issuers - URI:ldap://directory.d-trust.net/CN=D-TRUST%20CA%202-2%202019,O=D-Trust%20GmbH,C=DE?cACertificate?base?

            X509v3 Certificate Policies: 
                Policy: 0.4.0.194112.1.1
                Policy: 1.3.6.1.4.1.4788.2.150.5
                  CPS: http://www.d-trust.net/internet/files/D-TRUST_CSM_PKI_CPS.pdf

            X509v3 CRL Distribution Points: 

                Full Name:
                  URI:ldap://directory.d-trust.net/CN=D-TRUST%20CA%202-2%202019,O=D-Trust%20GmbH,C=DE?certificaterevocationlist
                  URI:http://crl.d-trust.net/crl/d-trust_ca_2-2_2019.crl
                  URI:http://cdn.d-trust-cloudcrl.net/crl/d-trust_ca_2-2_2019.crl

            X509v3 Subject Key Identifier: 
                68:CA:C3:A1:0B:EC:D6:E0:73:BA:DB:E4:05:95:80:08:25:AC:E6:F5
            X509v3 Key Usage: critical
                Digital Signature, Non Repudiation
    Signature Algorithm: rsassaPss
         Hash Algorithm: sha512
         Mask Algorithm: mgf1 with sha512
         Salt Length: 0x40
         Trailer Field: 0xBC (default)

         c9:85:3b:bd:45:4e:e1:88:a8:12:a5:2d:d3:2f:4d:d8:36:75:
         b9:11:b2:b3:41:d6:cb:3d:d6:ed:f7:1c:41:77:28:e2:b9:8d:
         ab:23:86:3b:1e:4b:85:9c:8b:b0:39:51:2d:38:b3:63:90:f8:
         9d:7c:ac:fb:b1:a8:f3:62:c2:21:a0:c4:60:4c:26:87:87:6b:
         a0:45:7d:6b:7b:ba:e6:04:01:ff:c2:94:b2:89:4d:cd:4a:b1:
         6f:76:bc:57:da:e3:bb:32:fa:53:ee:dc:fd:05:c1:ec:9b:c3:
         00:25:8a:44:39:0c:b6:37:36:1a:b0:31:23:1d:86:cb:27:34:
         8e:75:8e:8d:72:9a:e9:af:87:21:d1:6d:3c:d8:fb:31:02:80:
         38:6c:8b:08:29:a1:3f:ed:6b:d8:29:61:98:2a:e8:eb:cd:77:
         23:00:fd:52:a3:5f:4b:1b:61:78:0a:a7:8a:a8:57:7f:4c:3d:
         09:ac:9e:d9:75:04:ed:66:a2:24:6e:fd:ad:ca:b0:ac:2c:d8:
         3f:20:c7:59:2e:d3:cb:1c:67:36:42:b6:5a:70:2b:8d:80:ce:
         6e:20:97:f4:13:79:fe:23:3c:fa:b6:88:92:f9:79:be:ca:a8:
         21:9b:38:e1:c7:fb:91:4f:24:c2:6b:49:71:36:d0:33:7d:d5:
         1b:b4:64:64:b8:a0:f5:4d:00:95:3f:15:51:42:02:5c:aa:26:
         eb:d2:b6:bb:f2:86:ed:5d:d0:84:c8:64:8c:30:7e:62:5b:c8:
         66:63:86:85:2e:34:36:b0:0b:20:96:1f:a0:77:33:65:4e:66:
         21:4d:56:31:89:64:47:44:6c:ff:a3:61:4e:6c:7f:1b:4e:26:
         6b:40:9d:d4:fb:36:a1:6d:3f:5e:94:66:57:e1:1f:9b:53:21:
         64:96:c8:fe:2f:46:d2:f4:1c:05:da:68:a1:d9:09:df:0a:ff:
         1c:07:27:1e:3b:ab:ea:f2:ec:c9:08:9d:b3:0c:70:48:c3:44:
         ed:a2:4d:22:53:03:d5:a4:9c:0f:59:4b:1f:4d:e8:dc:c2:9d:
         8e:80:c4:c7:69:e3:5a:9c:a7:56:0e:b4:9a:89:18:8c:5f:e1:
         37:4c:66:b8:32:a6:71:76:32:50:21:fc:79:5e:c7:98:5f:a2:
         f5:e9:29:fc:5d:32:5d:05:0d:e9:e1:c5:43:f6:19:f0:5f:4e:
         c4:c8:50:64:aa:1c:94:8e:32:21:25:46:b8:4b:4c:4c:53:d2:
         b0:d9:3d:e0:e6:e0:d6:25:07:88:2c:6a:14:37:cc:de:b3:16:
         0e:84:5b:7e:d8:2b:41:25:28:e8:9c:6d:3b:ab:c7:f7:47:d3:
         62:57:b8:5c:65:e7:3c:f5
-----BEGIN CERTIFICATE-----
MIIHUTCCBQmgAwIBAgIQYFM56IjYwAfzNPz4bHe+7zA9BgkqhkiG9w0BAQowMKAN
MAsGCWCGSAFlAwQCA6EaMBgGCSqGSIb3DQEBCDALBglghkgBZQMEAgOiAwIBQDBb
MQswCQYDVQQGEwJERTEVMBMGA1UEChMMRC1UcnVzdCBHbWJIMRwwGgYDVQQDExNE
LVRSVVNUIENBIDItMiAyMDE5MRcwFQYDVQRhEw5OVFJERS1IUkI3NDM0NjAeFw0y
MTA2MDMxMTAxMDhaFw0yMzA2MDcxMTAxMDhaMIHrMQswCQYDVQQGEwJERTEdMBsG
A1UEChMUUm9iZXJ0IEtvY2gtSW5zdGl0dXQxJDAiBgNVBAsTG0VsZWt0cm9uaXNj
aGVyIEltcGZuYWNod2VpczEdMBsGA1UEAxMUUm9iZXJ0IEtvY2gtSW5zdGl0dXQx
DzANBgNVBAcTBkJlcmxpbjEOMAwGA1UEEQwFMTMzNTMxFDASBgNVBAkTC05vcmR1
ZmVyIDIwMRkwFwYDVQRhExBEVDpERS0zMDIzNTMxNDQ1MRUwEwYDVQQFEwxDU00w
MjYzODMxMDcxDzANBgNVBAgTBkJlcmxpbjBZMBMGByqGSM49AgEGCCqGSM49AwEH
A0IABLS2dTdmO1EB4ETt8ihskU7CVnWBRg5XeZG4JRRh6zL2UMGuV6AXJR/cU6z9
3V3E7II55pex8eWGTpxh4STK3p+jggLpMIIC5TAfBgNVHSMEGDAWgBRxEDKudHF7
VI7x1qtiVK78PsC7FjAtBggrBgEFBQcBAwQhMB8wCAYGBACORgEBMBMGBgQAjkYB
BjAJBgcEAI5GAQYCMIH+BggrBgEFBQcBAQSB8TCB7jA3BggrBgEFBQcwAYYraHR0
cDovL2QtdHJ1c3QtY2EtMi0yLTIwMTkub2NzcC5kLXRydXN0Lm5ldDBCBggrBgEF
BQcwAoY2aHR0cDovL3d3dy5kLXRydXN0Lm5ldC9jZ2ktYmluL0QtVFJVU1RfQ0Ff
Mi0yXzIwMTkuY3J0MG8GCCsGAQUFBzAChmNsZGFwOi8vZGlyZWN0b3J5LmQtdHJ1
c3QubmV0L0NOPUQtVFJVU1QlMjBDQSUyMDItMiUyMDIwMTksTz1ELVRydXN0JTIw
R21iSCxDPURFP2NBQ2VydGlmaWNhdGU/YmFzZT8wcAYDVR0gBGkwZzAJBgcEAIvs
QAEBMFoGCysGAQQBpTQCgRYFMEswSQYIKwYBBQUHAgEWPWh0dHA6Ly93d3cuZC10
cnVzdC5uZXQvaW50ZXJuZXQvZmlsZXMvRC1UUlVTVF9DU01fUEtJX0NQUy5wZGYw
gfAGA1UdHwSB6DCB5TCB4qCB36CB3IZpbGRhcDovL2RpcmVjdG9yeS5kLXRydXN0
Lm5ldC9DTj1ELVRSVVNUJTIwQ0ElMjAyLTIlMjAyMDE5LE89RC1UcnVzdCUyMEdt
YkgsQz1ERT9jZXJ0aWZpY2F0ZXJldm9jYXRpb25saXN0hjJodHRwOi8vY3JsLmQt
dHJ1c3QubmV0L2NybC9kLXRydXN0X2NhXzItMl8yMDE5LmNybIY7aHR0cDovL2Nk
bi5kLXRydXN0LWNsb3VkY3JsLm5ldC9jcmwvZC10cnVzdF9jYV8yLTJfMjAxOS5j
cmwwHQYDVR0OBBYEFGjKw6EL7Nbgc7rb5AWVgAglrOb1MA4GA1UdDwEB/wQEAwIG
wDA9BgkqhkiG9w0BAQowMKANMAsGCWCGSAFlAwQCA6EaMBgGCSqGSIb3DQEBCDAL
BglghkgBZQMEAgOiAwIBQAOCAgEAyYU7vUVO4YioEqUt0y9N2DZ1uRGys0HWyz3W
7fccQXco4rmNqyOGOx5LhZyLsDlRLTizY5D4nXys+7Go82LCIaDEYEwmh4droEV9
a3u65gQB/8KUsolNzUqxb3a8V9rjuzL6U+7c/QXB7JvDACWKRDkMtjc2GrAxIx2G
yyc0jnWOjXKa6a+HIdFtPNj7MQKAOGyLCCmhP+1r2ClhmCro6813IwD9UqNfSxth
eAqniqhXf0w9Caye2XUE7WaiJG79rcqwrCzYPyDHWS7TyxxnNkK2WnArjYDObiCX
9BN5/iM8+raIkvl5vsqoIZs44cf7kU8kwmtJcTbQM33VG7RkZLig9U0AlT8VUUIC
XKom69K2u/KG7V3QhMhkjDB+YlvIZmOGhS40NrALIJYfoHczZU5mIU1WMYlkR0Rs
/6NhTmx/G04ma0Cd1Ps2oW0/XpRmV+Efm1MhZJbI/i9G0vQcBdpoodkJ3wr/HAcn
Hjur6vLsyQidswxwSMNE7aJNIlMD1aScD1lLH03o3MKdjoDEx2njWpynVg60mokY
jF/hN0xmuDKmcXYyUCH8eV7HmF+i9ekp/F0yXQUN6eHFQ/YZ8F9OxMhQZKoclI4y
ISVGuEtMTFPSsNk94Obg1iUHiCxqFDfM3rMWDoRbftgrQSUo6JxtO6vH90fTYle4
XGXnPPU=
-----END CERTIFICATE-----
