Certificate:
    Data:
        Version: 3 (0x2)
        Serial Number:
            42:9a:2b:62:ff:0c:b7:7c:e2:47:5a:fa:1b:8b:39:e0:7c:d1:56:97
    Signature Algorithm: sha256WithRSAEncryption
        Issuer: C = FR, O = Gouv, CN = CSCA-FRANCE
        Validity
            Not Before: Jun 10 22:00:00 2021 GMT
            Not After : Jun 10 22:00:00 2023 GMT
        Subject: C = FR, O = APHP, OU = 26750045200011, CN = DSC_FR_002
        Subject Public Key Info:
            Public Key Algorithm: id-ecPublicKey
                Public-Key: (256 bit)
                pub:
                    04:c7:6b:10:ee:c9:70:43:e2:10:ad:22:d9:c2:02:
                    1f:69:f4:da:da:0d:78:e2:f0:7c:39:79:c8:e5:65:
                    3a:ec:11:df:4d:ac:ec:3d:c7:cd:6d:65:23:e6:ea:
                    bf:7c:50:79:10:46:e5:69:21:29:44:0e:58:c2:1c:
                    9f:00:42:2d:e2
                ASN1 OID: prime256v1
                NIST CURVE: P-256
        X509v3 extensions:
            X509v3 Subject Key Identifier: 
                C6:19:6A:56:0F:F6:13:22:56:A0:37:55:1A:4C:89:AE:C6:38:09:79
            X509v3 Authority Key Identifier: 
                keyid:BE:8A:2E:D6:C9:F9:20:4E:3A:27:03:08:97:4D:EC:FD:D9:7D:C5:E6

            X509v3 Basic Constraints: critical
                CA:FALSE
            X509v3 Key Usage: critical
                Digital Signature
            X509v3 CRL Distribution Points: 

                Full Name:
                  URI:http://ants.gouv.fr/csca_crl

            X509v3 Certificate Policies: 
                Policy: 1.2.250.1.200.31.3.9.1.1

            Authority Information Access: 
                CA Issuers - URI:https://ant.gouv.fr/csca

    Signature Algorithm: sha256WithRSAEncryption
         9b:03:ed:9e:42:73:c9:58:c9:a1:d9:e2:07:d6:03:09:86:08:
         25:e4:64:a6:38:11:4a:79:7c:82:e2:37:98:41:20:d1:63:de:
         ff:ae:c0:d6:45:70:18:b4:4e:03:81:94:0e:d5:c6:5c:c2:c3:
         38:c9:b6:d9:fa:48:66:6f:48:82:78:ef:f4:a2:22:88:bb:1f:
         05:53:5e:01:ef:31:64:b1:91:71:66:96:d4:48:02:46:0f:d9:
         44:d7:14:45:9d:f5:08:ca:83:cb:de:5c:da:ee:55:aa:67:c9:
         52:7c:bb:a8:aa:83:78:98:e0:e4:1a:93:d8:c1:6b:bf:18:2f:
         2c:47:7c:a7:0e:dd:a3:86:b7:41:70:b9:e8:b3:79:38:ef:ee:
         19:47:2a:70:0e:7b:fd:15:15:38:ff:d7:c4:9e:5d:d8:e2:22:
         be:85:4b:6a:f3:7b:48:e6:87:df:40:44:ec:5c:8a:be:54:c9:
         9c:c3:ac:e6:79:44:da:31:c1:d1:9e:73:28:e1:69:27:ad:21:
         db:7b:dc:75:30:ec:10:98:00:e7:ed:98:d8:cc:ca:28:23:84:
         f2:33:f7:73:a3:52:0e:1f:c8:a8:be:03:1b:24:fe:f3:c5:6a:
         a9:f3:38:2d:a9:93:e9:0e:da:79:d3:45:7d:c8:20:63:18:24:
         16:81:1a:1f:ac:18:54:a2:32:a3:e0:19:06:b2:50:99:68:71:
         e4:46:aa:74:03:b5:8e:21:e8:c2:a4:26:30:35:18:68:9b:71:
         ee:f2:80:a5:27:47:c6:70:81:08:ad:dc:9b:60:84:98:7a:60:
         a5:9d:b4:a5:33:eb:57:b7:db:c0:4d:fe:e8:31:16:60:5d:21:
         91:ff:d1:eb:63:de:67:68:6e:54:ef:ff:9e:1d:18:26:de:a1:
         c0:25:b6:db:4c:31:c4:4f:b6:da:f9:68:aa:f6:b9:d8:49:c0:
         a1:48:7f:db:30:dd:b2:2e:cb:81:72:95:68:ce:89:1c:5f:a9:
         36:97:af:4a:57:30:2c:56:d2:82:8c:f4:bf:21:20:56:1c:38:
         84:69:5c:7e:f9:1c:8f:07:96:1f:6d:55:fb:ca:42:78:49:a5:
         97:d4:40:fa:0c:b7:ac:cc:27:5c:2c:d6:f9:ee:2d:57:bb:7e:
         64:6f:54:86:87:e0:94:78:02:d4:12:a0:6d:25:47:04:85:e2:
         e2:c6:74:f1:24:81:c6:db:1a:b9:f5:ae:7a:d1:2b:19:05:d3:
         1f:f2:bf:ea:61:3c:fd:0e:a1:20:05:73:d2:94:d7:87:9f:96:
         88:1b:fd:ae:d1:b2:eb:33:74:3d:1a:f0:64:e3:30:63:dc:2e:
         33:59:92:55:51:36:41:34
-----BEGIN CERTIFICATE-----
MIIEIDCCAgigAwIBAgIUQporYv8Mt3ziR1r6G4s54HzRVpcwDQYJKoZIhvcNAQEL
BQAwMjELMAkGA1UEBhMCRlIxDTALBgNVBAoMBEdvdXYxFDASBgNVBAMMC0NTQ0Et
RlJBTkNFMB4XDTIxMDYxMDIyMDAwMFoXDTIzMDYxMDIyMDAwMFowSjELMAkGA1UE
BhMCRlIxDTALBgNVBAoMBEFQSFAxFzAVBgNVBAsMDjI2NzUwMDQ1MjAwMDExMRMw
EQYDVQQDDApEU0NfRlJfMDAyMFkwEwYHKoZIzj0CAQYIKoZIzj0DAQcDQgAEx2sQ
7slwQ+IQrSLZwgIfafTa2g144vB8OXnI5WU67BHfTazsPcfNbWUj5uq/fFB5EEbl
aSEpRA5YwhyfAEIt4qOB4DCB3TAdBgNVHQ4EFgQUxhlqVg/2EyJWoDdVGkyJrsY4
CXkwHwYDVR0jBBgwFoAUvoou1sn5IE46JwMIl03s/dl9xeYwDAYDVR0TAQH/BAIw
ADAOBgNVHQ8BAf8EBAMCB4AwLQYDVR0fBCYwJDAioCCgHoYcaHR0cDovL2FudHMu
Z291di5mci9jc2NhX2NybDAYBgNVHSAEETAPMA0GCyqBegGBSB8DCQEBMDQGCCsG
AQUFBwEBBCgwJjAkBggrBgEFBQcwAoYYaHR0cHM6Ly9hbnQuZ291di5mci9jc2Nh
MA0GCSqGSIb3DQEBCwUAA4ICAQCbA+2eQnPJWMmh2eIH1gMJhggl5GSmOBFKeXyC
4jeYQSDRY97/rsDWRXAYtE4DgZQO1cZcwsM4ybbZ+khmb0iCeO/0oiKIux8FU14B
7zFksZFxZpbUSAJGD9lE1xRFnfUIyoPL3lza7lWqZ8lSfLuoqoN4mODkGpPYwWu/
GC8sR3ynDt2jhrdBcLnos3k47+4ZRypwDnv9FRU4/9fEnl3Y4iK+hUtq83tI5off
QETsXIq+VMmcw6zmeUTaMcHRnnMo4WknrSHbe9x1MOwQmADn7ZjYzMooI4TyM/dz
o1IOH8iovgMbJP7zxWqp8zgtqZPpDtp500V9yCBjGCQWgRofrBhUojKj4BkGslCZ
aHHkRqp0A7WOIejCpCYwNRhom3Hu8oClJ0fGcIEIrdybYISYemClnbSlM+tXt9vA
Tf7oMRZgXSGR/9HrY95naG5U7/+eHRgm3qHAJbbbTDHET7ba+Wiq9rnYScChSH/b
MN2yLsuBcpVozokcX6k2l69KVzAsVtKCjPS/ISBWHDiEaVx++RyPB5YfbVX7ykJ4
SaWX1ED6DLeszCdcLNb57i1Xu35kb1SGh+CUeALUEqBtJUcEheLixnTxJIHG2xq5
9a560SsZBdMf8r/qYTz9DqEgBXPSlNeHn5aIG/2u0bLrM3Q9GvBk4zBj3C4zWZJV
UTZBNA==
-----END CERTIFICATE-----
