Certificate:
    Data:
        Version: 3 (0x2)
        Serial Number:
            3d:cf:9e:86:6b:a2:b4:6e:74
    Signature Algorithm: ecdsa-with-SHA256
        Issuer: CN = EADTrust ECC 256 SubCA For Qualified Certificates 2019, O = "European Agency of Digital Trust, S.L.", C = ES, 2.5.4.97 = VATES-B85626240, OU = Legal Person
        Validity
            Not Before: May 27 06:43:00 2021 GMT
            Not After : May 27 06:43:00 2023 GMT
        Subject: CN = Servicio Extreme\C3\B1o de Salud, serialNumber = Q0600413I, OU = SELLO ELECTRONICO, OU = SSII, 2.5.4.97 = VATES-Q0600413I, O = Servicio Extreme\C3\B1o de Salud, C = ES
        Subject Public Key Info:
            Public Key Algorithm: id-ecPublicKey
                Public-Key: (256 bit)
                pub:
                    04:31:a9:e5:3c:87:0e:f4:9f:14:06:91:c2:01:b9:
                    2e:fc:a9:00:7e:20:6b:18:b2:2b:7b:56:ee:4c:8c:
                    e1:86:89:dc:2f:46:08:3b:e0:d0:f6:e3:ec:e9:47:
                    f3:3c:a5:f3:42:ae:fd:d5:5e:48:e5:ab:e1:9a:94:
                    3a:8f:6c:c5:b1
                ASN1 OID: prime256v1
                NIST CURVE: P-256
        X509v3 extensions:
            X509v3 Basic Constraints: critical
                CA:FALSE
            X509v3 Authority Key Identifier: 
                keyid:D3:4C:6C:3A:BD:36:FE:70:87:23:87:3A:EE:3D:90:CF:CB:9B:F7:21

            Authority Information Access: 
                CA Issuers - URI:http://ca.eadtrust.eu/eadtrust-subca-ecc256eadlp2019.crt
                OCSP - URI:http://ocsp.eadtrust.eu

            X509v3 Issuer Alternative Name: 
                email:ca@eadtrust.eu, URI:http://www.eadtrust.eu, URI:http://ca.eadtrust.eu, URI:http://policy.eadtrust.eu
            X509v3 Subject Alternative Name: 
                DirName:/2.16.724.1.3.5.6.2.1=SELLO ELECTRONICO DE NIVEL MEDIO/2.16.724.1.3.5.6.2.2=Servicio Extreme\xC3\xB1o de Salud/2.16.724.1.3.5.6.2.3=Q0600413I
            X509v3 Certificate Policies: 
                Policy: 2.16.724.1.3.5.6.2
                Policy: 0.4.0.194112.1.1
                  User Notice:
                    Explicit Text: European Telecommunications Standards Institute. eIDAS European Regulation Compliant
                Policy: 1.3.6.1.4.1.501.2.1.1.0.41233
                  CPS: http://policy.eadtrust.eu
                  User Notice:
                    Explicit Text: Certificado cualificado de sello electrónico de Administración, órgano o entidad de derecho público, nivel Medio/Sustancial. Consulte las condiciones de uso en http://policy.eadtrust.eu

            X509v3 Extended Key Usage: 
                TLS Web Client Authentication, E-mail Protection
            qcStatements: 
                0..0...+.......0.......I..0......F..0......F.....0......F..0......F...0l.....F..0b00.*https://eadtrust.eu/en/documents-in-force/..en0..(https://eadtrust.eu/documentos-vigentes/..es
            X509v3 CRL Distribution Points: 

                Full Name:
                  URI:http://crl.eadtrust.eu/eadtrust-subca-ecc256eadlp2019.crl

            X509v3 Subject Key Identifier: 
                C5:D3:CD:CC:2F:C8:97:55:D6:0C:DD:B4:9E:0D:68:F7:A9:B4:56:C6
            X509v3 Key Usage: critical
                Digital Signature, Non Repudiation, Key Encipherment
    Signature Algorithm: ecdsa-with-SHA256
         30:45:02:21:00:de:18:dd:9d:f9:04:11:c1:b5:77:a5:d3:41:
         71:ed:90:02:43:cf:31:68:1d:0e:11:7f:a1:0a:45:6e:b4:69:
         0d:02:20:38:f3:66:e9:42:ef:47:3e:5e:1a:96:db:66:67:8d:
         13:10:6e:99:31:7f:53:72:00:1a:1b:6a:f9:57:c2:8d:e9
-----BEGIN CERTIFICATE-----
MIIG9DCCBpqgAwIBAgIJPc+ehmuitG50MAoGCCqGSM49BAMCMIGwMT8wPQYDVQQD
DDZFQURUcnVzdCBFQ0MgMjU2IFN1YkNBIEZvciBRdWFsaWZpZWQgQ2VydGlmaWNh
dGVzIDIwMTkxLzAtBgNVBAoMJkV1cm9wZWFuIEFnZW5jeSBvZiBEaWdpdGFsIFRy
dXN0LCBTLkwuMQswCQYDVQQGEwJFUzEYMBYGA1UEYQwPVkFURVMtQjg1NjI2MjQw
MRUwEwYDVQQLDAxMZWdhbCBQZXJzb24wHhcNMjEwNTI3MDY0MzAwWhcNMjMwNTI3
MDY0MzAwWjCBtDElMCMGA1UEAwwcU2VydmljaW8gRXh0cmVtZcOxbyBkZSBTYWx1
ZDESMBAGA1UEBRMJUTA2MDA0MTNJMRowGAYDVQQLDBFTRUxMTyBFTEVDVFJPTklD
TzENMAsGA1UECwwEU1NJSTEYMBYGA1UEYQwPVkFURVMtUTA2MDA0MTNJMSUwIwYD
VQQKDBxTZXJ2aWNpbyBFeHRyZW1lw7FvIGRlIFNhbHVkMQswCQYDVQQGEwJFUzBZ
MBMGByqGSM49AgEGCCqGSM49AwEHA0IABDGp5TyHDvSfFAaRwgG5LvypAH4gaxiy
K3tW7kyM4YaJ3C9GCDvg0Pbj7OlH8zyl80Ku/dVeSOWr4ZqUOo9sxbGjggSVMIIE
kTAMBgNVHRMBAf8EAjAAMB8GA1UdIwQYMBaAFNNMbDq9Nv5whyOHOu49kM/Lm/ch
MHkGCCsGAQUFBwEBBG0wazBEBggrBgEFBQcwAoY4aHR0cDovL2NhLmVhZHRydXN0
LmV1L2VhZHRydXN0LXN1YmNhLWVjYzI1NmVhZGxwMjAxOS5jcnQwIwYIKwYBBQUH
MAGGF2h0dHA6Ly9vY3NwLmVhZHRydXN0LmV1MGMGA1UdEgRcMFqBDmNhQGVhZHRy
dXN0LmV1hhZodHRwOi8vd3d3LmVhZHRydXN0LmV1hhVodHRwOi8vY2EuZWFkdHJ1
c3QuZXWGGWh0dHA6Ly9wb2xpY3kuZWFkdHJ1c3QuZXUwgYUGA1UdEQR+MHykejB4
MS8wLQYJYIVUAQMFBgIBDCBTRUxMTyBFTEVDVFJPTklDTyBERSBOSVZFTCBNRURJ
TzErMCkGCWCFVAEDBQYCAgwcU2VydmljaW8gRXh0cmVtZcOxbyBkZSBTYWx1ZDEY
MBYGCWCFVAEDBQYCAwwJUTA2MDA0MTNJMIIBmAYDVR0gBIIBjzCCAYswCgYIYIVU
AQMFBgIwbwYHBACL7EABATBkMGIGCCsGAQUFBwICMFYMVEV1cm9wZWFuIFRlbGVj
b21tdW5pY2F0aW9ucyBTdGFuZGFyZHMgSW5zdGl0dXRlLiBlSURBUyBFdXJvcGVh
biBSZWd1bGF0aW9uIENvbXBsaWFudDCCAQoGDisGAQQBg3UCAQEAgsIRMIH3MCUG
CCsGAQUFBwIBFhlodHRwOi8vcG9saWN5LmVhZHRydXN0LmV1MIHNBggrBgEFBQcC
AjCBwAyBvUNlcnRpZmljYWRvIGN1YWxpZmljYWRvIGRlIHNlbGxvIGVsZWN0csOz
bmljbyBkZSBBZG1pbmlzdHJhY2nDs24sIMOzcmdhbm8gbyBlbnRpZGFkIGRlIGRl
cmVjaG8gcMO6YmxpY28sIG5pdmVsIE1lZGlvL1N1c3RhbmNpYWwuIENvbnN1bHRl
IGxhcyBjb25kaWNpb25lcyBkZSB1c28gZW4gaHR0cDovL3BvbGljeS5lYWR0cnVz
dC5ldTAdBgNVHSUEFjAUBggrBgEFBQcDAgYIKwYBBQUHAwQwgcEGCCsGAQUFBwED
BIG0MIGxMBUGCCsGAQUFBwsCMAkGBwQAi+xJAQIwCAYGBACORgEBMAsGBgQAjkYB
AwIBDzATBgYEAI5GAQYwCQYHBACORgEGAjBsBgYEAI5GAQUwYjAwFipodHRwczov
L2VhZHRydXN0LmV1L2VuL2RvY3VtZW50cy1pbi1mb3JjZS8TAmVuMC4WKGh0dHBz
Oi8vZWFkdHJ1c3QuZXUvZG9jdW1lbnRvcy12aWdlbnRlcy8TAmVzMEoGA1UdHwRD
MEEwP6A9oDuGOWh0dHA6Ly9jcmwuZWFkdHJ1c3QuZXUvZWFkdHJ1c3Qtc3ViY2Et
ZWNjMjU2ZWFkbHAyMDE5LmNybDAdBgNVHQ4EFgQUxdPNzC/Il1XWDN20ng1o96m0
VsYwDgYDVR0PAQH/BAQDAgXgMAoGCCqGSM49BAMCA0gAMEUCIQDeGN2d+QQRwbV3
pdNBce2QAkPPMWgdDhF/oQpFbrRpDQIgOPNm6ULvRz5eGpbbZmeNExBumTF/U3IA
Ghtq+VfCjek=
-----END CERTIFICATE-----
