Certificate:
    Data:
        Version: 3 (0x2)
        Serial Number:
            5c:a9:b0:32:71:c5:30:07:9d:09:ea:c1:c2:38:fc:10
    Signature Algorithm: rsassaPss
         Hash Algorithm: sha512
         Mask Algorithm: mgf1 with sha512
         Salt Length: 0x40
         Trailer Field: 0xBC (default)
        Issuer: C = DE, O = D-Trust GmbH, CN = D-TRUST CA 2-2 2019, 2.5.4.97 = NTRDE-HRB74346
        Validity
            Not Before: Jun  3 10:49:49 2021 GMT
            Not After : Jun  7 10:49:49 2023 GMT
        Subject: C = DE, O = Robert Koch-Institut, OU = Elektronischer Impfnachweis, CN = Robert Koch-Institut, L = Berlin, postalCode = 13353, street = Nordufer 20, 2.5.4.97 = DT:DE-3023531445, serialNumber = CSM026382931, ST = Berlin
        Subject Public Key Info:
            Public Key Algorithm: id-ecPublicKey
                Public-Key: (256 bit)
                pub:
                    04:e4:3e:1c:75:8d:c6:f7:59:07:6a:02:f2:00:6a:
                    27:d2:e7:c2:da:3a:b3:43:5e:d5:d7:08:ef:60:73:
                    8b:c5:94:98:d5:eb:e6:41:58:68:bc:85:54:4b:d0:
                    14:e5:9e:f7:69:e5:be:fb:66:72:35:41:60:ec:bf:
                    fd:66:4d:44:ee
                ASN1 OID: prime256v1
                NIST CURVE: P-256
        X509v3 extensions:
            X509v3 Authority Key Identifier: 
                keyid:71:10:32:AE:74:71:7B:54:8E:F1:D6:AB:62:54:AE:FC:3E:C0:BB:16

            qcStatements: 
                0.0......F..0......F..0......F...
            Authority Information Access: 
                OCSP - URI:http://d-trust-ca-2-2-2019.ocsp.d-trust.net
                CA Issuers - URI:http://www.d-trust.net/cgi-bin/D-TRUST_CA_2-2_2019.crt
                CA Issuers - URI:ldap://directory.d-trust.net/CN=D-TRUST%20CA%202-2%202019,O=D-Trust%20GmbH,C=DE?cACertificate?base?

            X509v3 Certificate Policies: 
                Policy: 0.4.0.194112.1.1
                Policy: 1.3.6.1.4.1.4788.2.150.5
                  CPS: http://www.d-trust.net/internet/files/D-TRUST_CSM_PKI_CPS.pdf

            X509v3 CRL Distribution Points: 

                Full Name:
                  URI:ldap://directory.d-trust.net/CN=D-TRUST%20CA%202-2%202019,O=D-Trust%20GmbH,C=DE?certificaterevocationlist
                  URI:http://crl.d-trust.net/crl/d-trust_ca_2-2_2019.crl
                  URI:http://cdn.d-trust-cloudcrl.net/crl/d-trust_ca_2-2_2019.crl

            X509v3 Subject Key Identifier: 
                66:65:C9:89:52:1E:9E:EE:A9:BF:3E:38:EC:45:24:12:F4:41:04:EE
            X509v3 Key Usage: critical
                Digital Signature, Non Repudiation
    Signature Algorithm: rsassaPss
         Hash Algorithm: sha512
         Mask Algorithm: mgf1 with sha512
         Salt Length: 0x40
         Trailer Field: 0xBC (default)

         6e:a7:c4:8b:03:58:7e:87:3f:b0:ca:6c:f3:cb:ba:1d:77:14:
         12:0a:51:5d:21:5b:8b:07:a9:9b:f6:7e:09:e0:0a:92:a5:15:
         bd:bc:b5:cb:39:0c:48:d9:dd:81:2a:f1:dc:7c:5d:f0:cb:ae:
         78:30:8e:ee:a7:64:d5:5a:f2:81:35:62:fe:78:d6:d5:62:00:
         75:b9:05:64:8b:4f:ed:a7:43:79:5f:1e:50:23:a8:e5:74:90:
         7a:72:48:9f:1a:06:75:d0:4f:f3:9b:d5:f8:50:36:f6:2d:0a:
         61:c2:6b:47:95:1f:d7:28:3c:dc:b9:51:25:03:c1:77:bf:0e:
         6b:c8:c0:0b:f2:1c:19:d5:cb:f0:75:09:e8:6c:41:be:56:52:
         80:1c:15:84:2c:bb:9b:a9:cb:6c:3d:a7:95:a0:e4:bd:32:a8:
         3d:43:52:ab:c0:3d:60:80:a3:53:0f:3e:7a:93:51:44:fd:58:
         dc:b1:b7:1a:6e:0a:cb:b8:41:b4:28:bf:54:de:6a:f4:32:56:
         35:d8:e2:61:70:f1:1f:8a:fe:be:58:fd:87:5a:2c:8c:9d:26:
         c6:e6:64:8d:c3:67:83:37:b2:d7:76:1d:d1:c6:4a:20:92:ad:
         d0:99:30:5e:b7:ac:7c:ee:ad:a3:03:3e:d9:b2:bf:ab:c2:19:
         90:6c:de:7a:a3:e6:46:4c:49:37:41:03:c8:55:4a:c7:fb:2c:
         88:9b:4f:2a:b0:29:25:bd:3d:49:63:89:90:64:ec:3f:43:ac:
         8b:d2:94:8d:30:38:3c:ee:13:11:a0:28:19:44:ec:3d:f2:01:
         ff:e6:f2:e4:6f:12:88:e3:9b:51:e1:e4:d3:b0:72:ff:d0:7e:
         74:60:c3:2f:f7:c2:e6:a3:7c:86:63:79:2d:7a:75:75:4f:0c:
         c3:d1:e9:a4:64:6f:8f:14:46:1a:5b:b6:59:9d:3e:b5:c3:43:
         a7:8f:00:6f:f2:ab:b0:6f:6c:02:71:f9:06:25:8f:3f:74:44:
         48:ad:ba:e1:6f:c5:35:e0:78:d5:1d:c8:be:49:5a:05:b7:64:
         8b:41:e2:34:08:66:83:10:ba:47:59:dc:3f:5c:e2:9c:56:a4:
         73:09:c1:08:8d:32:4e:e8:08:8e:75:74:02:dd:c2:60:64:ba:
         c0:10:e6:23:56:66:be:17:be:ff:7f:14:6f:31:5e:02:c5:54:
         57:61:91:72:2f:94:bd:60:ba:68:02:c5:72:74:ca:dc:19:a0:
         ce:06:a7:d3:2f:cc:46:a2:d4:b4:f6:c5:ca:ac:1c:3c:e7:f0:
         9c:7a:bb:bb:97:5c:45:27:b9:0b:58:21:bb:ad:bb:c1:5c:b2:
         34:b7:67:ac:d2:6f:2c:b1
-----BEGIN CERTIFICATE-----
MIIHUTCCBQmgAwIBAgIQXKmwMnHFMAedCerBwjj8EDA9BgkqhkiG9w0BAQowMKAN
MAsGCWCGSAFlAwQCA6EaMBgGCSqGSIb3DQEBCDALBglghkgBZQMEAgOiAwIBQDBb
MQswCQYDVQQGEwJERTEVMBMGA1UEChMMRC1UcnVzdCBHbWJIMRwwGgYDVQQDExNE
LVRSVVNUIENBIDItMiAyMDE5MRcwFQYDVQRhEw5OVFJERS1IUkI3NDM0NjAeFw0y
MTA2MDMxMDQ5NDlaFw0yMzA2MDcxMDQ5NDlaMIHrMQswCQYDVQQGEwJERTEdMBsG
A1UEChMUUm9iZXJ0IEtvY2gtSW5zdGl0dXQxJDAiBgNVBAsTG0VsZWt0cm9uaXNj
aGVyIEltcGZuYWNod2VpczEdMBsGA1UEAxMUUm9iZXJ0IEtvY2gtSW5zdGl0dXQx
DzANBgNVBAcTBkJlcmxpbjEOMAwGA1UEEQwFMTMzNTMxFDASBgNVBAkTC05vcmR1
ZmVyIDIwMRkwFwYDVQRhExBEVDpERS0zMDIzNTMxNDQ1MRUwEwYDVQQFEwxDU00w
MjYzODI5MzExDzANBgNVBAgTBkJlcmxpbjBZMBMGByqGSM49AgEGCCqGSM49AwEH
A0IABOQ+HHWNxvdZB2oC8gBqJ9Lnwto6s0Ne1dcI72Bzi8WUmNXr5kFYaLyFVEvQ
FOWe92nlvvtmcjVBYOy//WZNRO6jggLpMIIC5TAfBgNVHSMEGDAWgBRxEDKudHF7
VI7x1qtiVK78PsC7FjAtBggrBgEFBQcBAwQhMB8wCAYGBACORgEBMBMGBgQAjkYB
BjAJBgcEAI5GAQYCMIH+BggrBgEFBQcBAQSB8TCB7jA3BggrBgEFBQcwAYYraHR0
cDovL2QtdHJ1c3QtY2EtMi0yLTIwMTkub2NzcC5kLXRydXN0Lm5ldDBCBggrBgEF
BQcwAoY2aHR0cDovL3d3dy5kLXRydXN0Lm5ldC9jZ2ktYmluL0QtVFJVU1RfQ0Ff
Mi0yXzIwMTkuY3J0MG8GCCsGAQUFBzAChmNsZGFwOi8vZGlyZWN0b3J5LmQtdHJ1
c3QubmV0L0NOPUQtVFJVU1QlMjBDQSUyMDItMiUyMDIwMTksTz1ELVRydXN0JTIw
R21iSCxDPURFP2NBQ2VydGlmaWNhdGU/YmFzZT8wcAYDVR0gBGkwZzAJBgcEAIvs
QAEBMFoGCysGAQQBpTQCgRYFMEswSQYIKwYBBQUHAgEWPWh0dHA6Ly93d3cuZC10
cnVzdC5uZXQvaW50ZXJuZXQvZmlsZXMvRC1UUlVTVF9DU01fUEtJX0NQUy5wZGYw
gfAGA1UdHwSB6DCB5TCB4qCB36CB3IZpbGRhcDovL2RpcmVjdG9yeS5kLXRydXN0
Lm5ldC9DTj1ELVRSVVNUJTIwQ0ElMjAyLTIlMjAyMDE5LE89RC1UcnVzdCUyMEdt
YkgsQz1ERT9jZXJ0aWZpY2F0ZXJldm9jYXRpb25saXN0hjJodHRwOi8vY3JsLmQt
dHJ1c3QubmV0L2NybC9kLXRydXN0X2NhXzItMl8yMDE5LmNybIY7aHR0cDovL2Nk
bi5kLXRydXN0LWNsb3VkY3JsLm5ldC9jcmwvZC10cnVzdF9jYV8yLTJfMjAxOS5j
cmwwHQYDVR0OBBYEFGZlyYlSHp7uqb8+OOxFJBL0QQTuMA4GA1UdDwEB/wQEAwIG
wDA9BgkqhkiG9w0BAQowMKANMAsGCWCGSAFlAwQCA6EaMBgGCSqGSIb3DQEBCDAL
BglghkgBZQMEAgOiAwIBQAOCAgEAbqfEiwNYfoc/sMps88u6HXcUEgpRXSFbiwep
m/Z+CeAKkqUVvby1yzkMSNndgSrx3Hxd8MuueDCO7qdk1VrygTVi/njW1WIAdbkF
ZItP7adDeV8eUCOo5XSQenJInxoGddBP85vV+FA29i0KYcJrR5Uf1yg83LlRJQPB
d78Oa8jAC/IcGdXL8HUJ6GxBvlZSgBwVhCy7m6nLbD2nlaDkvTKoPUNSq8A9YICj
Uw8+epNRRP1Y3LG3Gm4Ky7hBtCi/VN5q9DJWNdjiYXDxH4r+vlj9h1osjJ0mxuZk
jcNngzey13Yd0cZKIJKt0JkwXresfO6towM+2bK/q8IZkGzeeqPmRkxJN0EDyFVK
x/ssiJtPKrApJb09SWOJkGTsP0Osi9KUjTA4PO4TEaAoGUTsPfIB/+by5G8SiOOb
UeHk07By/9B+dGDDL/fC5qN8hmN5LXp1dU8Mw9HppGRvjxRGGlu2WZ0+tcNDp48A
b/KrsG9sAnH5BiWPP3RESK264W/FNeB41R3IvklaBbdki0HiNAhmgxC6R1ncP1zi
nFakcwnBCI0yTugIjnV0At3CYGS6wBDmI1Zmvhe+/38UbzFeAsVUV2GRci+UvWC6
aALFcnTK3Bmgzgan0y/MRqLUtPbFyqwcPOfwnHq7u5dcRSe5C1ghu627wVyyNLdn
rNJvLLE=
-----END CERTIFICATE-----
