Certificate:
    Data:
        Version: 3 (0x2)
        Serial Number: 1 (0x1)
    Signature Algorithm: ecdsa-with-SHA256
        Issuer: C = DK, O = The Danish Health Data Authority, OU = The Danish Health Data Authority, CN = PROD_CSCA_DGC_DK_01, emailAddress = kontakt@sundhedsdata.dk
        Validity
            Not Before: May 19 09:47:25 2021 GMT
            Not After : May 20 09:47:25 2023 GMT
        Subject: C = DK, O = The Danish Health Data Authority, OU = The Danish Health Data Authority, CN = PROD_DSC_DGC_DK_01, emailAddress = kontakt@sundhedsdata.dk
        Subject Public Key Info:
            Public Key Algorithm: id-ecPublicKey
                Public-Key: (256 bit)
                pub:
                    04:06:67:60:63:f5:4e:46:c7:9c:5f:16:3f:d3:13:
                    4d:3b:3a:09:35:16:95:9c:c3:26:1e:ce:63:89:7a:
                    c6:bd:a0:ce:cb:58:f3:0d:43:b2:bd:1f:be:27:18:
                    1f:d3:e6:2e:1b:2a:79:fd:40:18:d1:02:21:ef:96:
                    fe:25:09:e5:1c
                ASN1 OID: prime256v1
                NIST CURVE: P-256
        X509v3 extensions:
            X509v3 Key Usage: critical
                Digital Signature
            X509v3 Subject Key Identifier: 
                57:9B:64:C4:7D:57:36:0C:F8:70:47:F7:68:EB:B5:EB:1C:3C:F8:17
            X509v3 Authority Key Identifier: 
                keyid:9B:F0:35:D1:57:54:BC:44:91:08:E7:9C:FC:7A:D3:3E:D9:95:ED:4A

            X509v3 Extended Key Usage: 
                1.3.6.1.4.1.0.1847.2021.1.1, 1.3.6.1.4.1.0.1847.2021.1.2, 1.3.6.1.4.1.0.1847.2021.1.3
    Signature Algorithm: ecdsa-with-SHA256
         30:45:02:20:1f:88:26:7f:bc:b8:80:84:7c:49:ce:35:7b:9f:
         ca:c1:6b:9a:d6:01:71:3a:69:1a:89:a3:d4:fa:fc:59:91:7c:
         02:21:00:d1:cd:cb:67:73:92:85:c9:96:7e:29:f4:93:05:b3:
         6d:fd:fd:8a:b1:0c:bc:99:45:d6:27:68:b6:1a:5b:d0:48
-----BEGIN CERTIFICATE-----
MIICyzCCAnGgAwIBAgIBATAKBggqhkjOPQQDAjCBqTELMAkGA1UEBhMCREsxKTAn
BgNVBAoMIFRoZSBEYW5pc2ggSGVhbHRoIERhdGEgQXV0aG9yaXR5MSkwJwYDVQQL
DCBUaGUgRGFuaXNoIEhlYWx0aCBEYXRhIEF1dGhvcml0eTEcMBoGA1UEAwwTUFJP
RF9DU0NBX0RHQ19ES18wMTEmMCQGCSqGSIb3DQEJARYXa29udGFrdEBzdW5kaGVk
c2RhdGEuZGswHhcNMjEwNTE5MDk0NzI1WhcNMjMwNTIwMDk0NzI1WjCBqDELMAkG
A1UEBhMCREsxKTAnBgNVBAoMIFRoZSBEYW5pc2ggSGVhbHRoIERhdGEgQXV0aG9y
aXR5MSkwJwYDVQQLDCBUaGUgRGFuaXNoIEhlYWx0aCBEYXRhIEF1dGhvcml0eTEb
MBkGA1UEAwwSUFJPRF9EU0NfREdDX0RLXzAxMSYwJAYJKoZIhvcNAQkBFhdrb250
YWt0QHN1bmRoZWRzZGF0YS5kazBZMBMGByqGSM49AgEGCCqGSM49AwEHA0IABAZn
YGP1TkbHnF8WP9MTTTs6CTUWlZzDJh7OY4l6xr2gzstY8w1Dsr0fvicYH9PmLhsq
ef1AGNECIe+W/iUJ5RyjgYgwgYUwDgYDVR0PAQH/BAQDAgeAMB0GA1UdDgQWBBRX
m2TEfVc2DPhwR/do67XrHDz4FzAfBgNVHSMEGDAWgBSb8DXRV1S8RJEI55z8etM+
2ZXtSjAzBgNVHSUELDAqBgwrBgEEAQCON49lAQEGDCsGAQQBAI43j2UBAgYMKwYB
BAEAjjePZQEDMAoGCCqGSM49BAMCA0gAMEUCIB+IJn+8uICEfEnONXufysFrmtYB
cTppGomj1Pr8WZF8AiEA0c3LZ3OShcmWfin0kwWzbf39irEMvJlF1idothpb0Eg=
-----END CERTIFICATE-----
