Certificate:
    Data:
        Version: 3 (0x2)
        Serial Number:
            40:59:d6:ce:0d:24:90:5d:77:35:41:77:17:aa:8b:c4
    Signature Algorithm: rsassaPss
         Hash Algorithm: sha512
         Mask Algorithm: mgf1 with sha512
         Salt Length: 0x40
         Trailer Field: 0xBC (default)
        Issuer: C = DE, O = D-Trust GmbH, CN = D-TRUST CA 2-2 2019, 2.5.4.97 = NTRDE-HRB74346
        Validity
            Not Before: Jun  7 09:52:01 2021 GMT
            Not After : Jun 11 09:52:01 2023 GMT
        Subject: C = DE, O = Robert Koch-Institut, OU = Elektronischer Impfnachweis, CN = Robert Koch-Institut, L = Berlin, postalCode = 13353, street = Nordufer 20, 2.5.4.97 = DT:DE-3023531445, serialNumber = CSM026413286, ST = Berlin
        Subject Public Key Info:
            Public Key Algorithm: id-ecPublicKey
                Public-Key: (256 bit)
                pub:
                    04:83:12:e9:8c:c0:d7:d7:fb:4c:46:08:58:2d:02:
                    8c:23:49:ca:e1:49:19:b8:af:69:9c:00:09:4c:2e:
                    c1:79:05:1a:1d:81:69:e2:92:64:0b:cc:ff:54:77:
                    16:ef:80:a9:c1:37:93:44:84:f3:b3:83:19:7e:59:
                    0d:fd:61:ed:a9
                ASN1 OID: prime256v1
                NIST CURVE: P-256
        X509v3 extensions:
            X509v3 Authority Key Identifier: 
                keyid:71:10:32:AE:74:71:7B:54:8E:F1:D6:AB:62:54:AE:FC:3E:C0:BB:16

            qcStatements: 
                0.0......F..0......F..0......F...
            Authority Information Access: 
                OCSP - URI:http://d-trust-ca-2-2-2019.ocsp.d-trust.net
                CA Issuers - URI:http://www.d-trust.net/cgi-bin/D-TRUST_CA_2-2_2019.crt
                CA Issuers - URI:ldap://directory.d-trust.net/CN=D-TRUST%20CA%202-2%202019,O=D-Trust%20GmbH,C=DE?cACertificate?base?

            X509v3 Certificate Policies: 
                Policy: 0.4.0.194112.1.1
                Policy: 1.3.6.1.4.1.4788.2.150.5
                  CPS: http://www.d-trust.net/internet/files/D-TRUST_CSM_PKI_CPS.pdf

            X509v3 CRL Distribution Points: 

                Full Name:
                  URI:ldap://directory.d-trust.net/CN=D-TRUST%20CA%202-2%202019,O=D-Trust%20GmbH,C=DE?certificaterevocationlist
                  URI:http://crl.d-trust.net/crl/d-trust_ca_2-2_2019.crl
                  URI:http://cdn.d-trust-cloudcrl.net/crl/d-trust_ca_2-2_2019.crl

            X509v3 Subject Key Identifier: 
                17:CE:29:F1:C6:AE:40:5E:B2:81:48:EC:E6:92:1A:C3:BD:79:A6:43
            X509v3 Key Usage: critical
                Digital Signature, Non Repudiation
    Signature Algorithm: rsassaPss
         Hash Algorithm: sha512
         Mask Algorithm: mgf1 with sha512
         Salt Length: 0x40
         Trailer Field: 0xBC (default)

         c3:31:11:2c:43:b2:4a:0d:18:ad:2b:f0:4c:0e:77:ea:fe:76:
         90:1d:7b:2c:42:8e:9c:72:78:47:51:dd:b7:1c:0f:92:30:87:
         c4:e1:2e:f4:cc:bf:2f:e5:e9:cc:bc:6a:dc:3a:6f:2f:78:fa:
         ef:3a:a1:92:61:b7:47:ca:86:86:b4:82:e4:bd:ab:5a:1a:23:
         06:c6:6a:e8:4f:5b:1f:78:1f:ef:2f:93:37:74:af:c0:f6:22:
         1e:e1:d5:d0:52:d4:d0:8c:e6:09:74:86:f7:18:78:94:3e:8d:
         0b:6b:d4:51:62:b1:a9:9d:a9:47:71:1d:0f:8d:99:b7:29:9f:
         c9:10:8c:9a:13:1f:90:6b:9e:3c:33:aa:47:e9:25:f2:b5:34:
         6e:d6:97:3a:6a:46:69:77:dc:45:56:3a:31:9f:84:a4:1b:95:
         bc:b9:3d:52:96:69:c2:e6:f5:c4:cd:19:d3:9d:ce:f6:b4:be:
         40:e2:18:a4:95:45:1f:96:90:c2:74:39:26:f2:da:ee:2a:75:
         e6:5b:34:17:57:a0:34:0d:75:5b:1a:f9:00:ae:1a:5a:9e:43:
         05:53:d3:a9:2e:6d:11:2b:7e:f8:54:06:79:aa:9f:ef:0f:ec:
         13:b4:8a:4b:cf:42:2b:ec:92:a4:2f:8c:85:9b:0e:8c:59:ef:
         9f:ef:b9:df:2f:3c:13:86:e9:85:a3:5b:5a:34:e6:be:dd:f0:
         bc:3c:5c:ff:df:d8:a3:5d:ce:bd:54:aa:d7:bd:c7:0b:b4:d5:
         64:8d:6b:ba:78:d1:9d:f2:b0:d7:6e:b4:37:fd:c7:cf:c7:25:
         5a:73:53:98:2c:e4:56:18:6c:bd:1a:c1:95:08:30:a4:a8:5f:
         80:80:09:fd:77:cc:44:c1:13:c4:e0:77:94:0a:21:41:2a:d5:
         e3:89:96:a3:58:1a:b4:5f:c1:32:8b:22:7e:f1:4a:21:17:f6:
         a3:40:4d:cb:f7:87:ed:00:50:6e:d7:90:78:15:17:34:6e:5e:
         3f:96:58:0f:88:ab:28:8b:d4:38:7e:2d:f7:ef:6d:a3:ac:22:
         5c:0e:fd:39:60:75:8f:0b:9e:ef:5f:f6:a3:6f:03:ed:72:12:
         d0:4c:1a:7e:01:6c:e2:2d:64:04:05:46:cc:22:d5:f4:62:3e:
         9f:52:18:25:ce:b9:4d:9e:a1:11:7d:59:ff:ef:c9:05:1e:a9:
         24:35:5d:a5:b1:f3:18:27:83:08:73:38:20:83:8f:0b:04:e6:
         63:20:33:68:63:97:b2:c3:47:77:70:7c:2c:4f:15:16:94:b2:
         64:cb:43:33:bc:92:8c:55:aa:bc:53:ae:79:05:0e:f3:9c:48:
         c5:e1:65:f8:9f:e1:3b:c9
-----BEGIN CERTIFICATE-----
MIIHUTCCBQmgAwIBAgIQQFnWzg0kkF13NUF3F6qLxDA9BgkqhkiG9w0BAQowMKAN
MAsGCWCGSAFlAwQCA6EaMBgGCSqGSIb3DQEBCDALBglghkgBZQMEAgOiAwIBQDBb
MQswCQYDVQQGEwJERTEVMBMGA1UEChMMRC1UcnVzdCBHbWJIMRwwGgYDVQQDExNE
LVRSVVNUIENBIDItMiAyMDE5MRcwFQYDVQRhEw5OVFJERS1IUkI3NDM0NjAeFw0y
MTA2MDcwOTUyMDFaFw0yMzA2MTEwOTUyMDFaMIHrMQswCQYDVQQGEwJERTEdMBsG
A1UEChMUUm9iZXJ0IEtvY2gtSW5zdGl0dXQxJDAiBgNVBAsTG0VsZWt0cm9uaXNj
aGVyIEltcGZuYWNod2VpczEdMBsGA1UEAxMUUm9iZXJ0IEtvY2gtSW5zdGl0dXQx
DzANBgNVBAcTBkJlcmxpbjEOMAwGA1UEEQwFMTMzNTMxFDASBgNVBAkTC05vcmR1
ZmVyIDIwMRkwFwYDVQRhExBEVDpERS0zMDIzNTMxNDQ1MRUwEwYDVQQFEwxDU00w
MjY0MTMyODYxDzANBgNVBAgTBkJlcmxpbjBZMBMGByqGSM49AgEGCCqGSM49AwEH
A0IABIMS6YzA19f7TEYIWC0CjCNJyuFJGbivaZwACUwuwXkFGh2BaeKSZAvM/1R3
Fu+AqcE3k0SE87ODGX5ZDf1h7amjggLpMIIC5TAfBgNVHSMEGDAWgBRxEDKudHF7
VI7x1qtiVK78PsC7FjAtBggrBgEFBQcBAwQhMB8wCAYGBACORgEBMBMGBgQAjkYB
BjAJBgcEAI5GAQYCMIH+BggrBgEFBQcBAQSB8TCB7jA3BggrBgEFBQcwAYYraHR0
cDovL2QtdHJ1c3QtY2EtMi0yLTIwMTkub2NzcC5kLXRydXN0Lm5ldDBCBggrBgEF
BQcwAoY2aHR0cDovL3d3dy5kLXRydXN0Lm5ldC9jZ2ktYmluL0QtVFJVU1RfQ0Ff
Mi0yXzIwMTkuY3J0MG8GCCsGAQUFBzAChmNsZGFwOi8vZGlyZWN0b3J5LmQtdHJ1
c3QubmV0L0NOPUQtVFJVU1QlMjBDQSUyMDItMiUyMDIwMTksTz1ELVRydXN0JTIw
R21iSCxDPURFP2NBQ2VydGlmaWNhdGU/YmFzZT8wcAYDVR0gBGkwZzAJBgcEAIvs
QAEBMFoGCysGAQQBpTQCgRYFMEswSQYIKwYBBQUHAgEWPWh0dHA6Ly93d3cuZC10
cnVzdC5uZXQvaW50ZXJuZXQvZmlsZXMvRC1UUlVTVF9DU01fUEtJX0NQUy5wZGYw
gfAGA1UdHwSB6DCB5TCB4qCB36CB3IZpbGRhcDovL2RpcmVjdG9yeS5kLXRydXN0
Lm5ldC9DTj1ELVRSVVNUJTIwQ0ElMjAyLTIlMjAyMDE5LE89RC1UcnVzdCUyMEdt
YkgsQz1ERT9jZXJ0aWZpY2F0ZXJldm9jYXRpb25saXN0hjJodHRwOi8vY3JsLmQt
dHJ1c3QubmV0L2NybC9kLXRydXN0X2NhXzItMl8yMDE5LmNybIY7aHR0cDovL2Nk
bi5kLXRydXN0LWNsb3VkY3JsLm5ldC9jcmwvZC10cnVzdF9jYV8yLTJfMjAxOS5j
cmwwHQYDVR0OBBYEFBfOKfHGrkBesoFI7OaSGsO9eaZDMA4GA1UdDwEB/wQEAwIG
wDA9BgkqhkiG9w0BAQowMKANMAsGCWCGSAFlAwQCA6EaMBgGCSqGSIb3DQEBCDAL
BglghkgBZQMEAgOiAwIBQAOCAgEAwzERLEOySg0YrSvwTA536v52kB17LEKOnHJ4
R1HdtxwPkjCHxOEu9My/L+XpzLxq3DpvL3j67zqhkmG3R8qGhrSC5L2rWhojBsZq
6E9bH3gf7y+TN3SvwPYiHuHV0FLU0IzmCXSG9xh4lD6NC2vUUWKxqZ2pR3EdD42Z
tymfyRCMmhMfkGuePDOqR+kl8rU0btaXOmpGaXfcRVY6MZ+EpBuVvLk9UpZpwub1
xM0Z053O9rS+QOIYpJVFH5aQwnQ5JvLa7ip15ls0F1egNA11Wxr5AK4aWp5DBVPT
qS5tESt++FQGeaqf7w/sE7SKS89CK+ySpC+MhZsOjFnvn++53y88E4bphaNbWjTm
vt3wvDxc/9/Yo13OvVSq173HC7TVZI1runjRnfKw1260N/3Hz8clWnNTmCzkVhhs
vRrBlQgwpKhfgIAJ/XfMRMETxOB3lAohQSrV44mWo1gatF/BMosifvFKIRf2o0BN
y/eH7QBQbteQeBUXNG5eP5ZYD4irKIvUOH4t9+9to6wiXA79OWB1jwue71/2o28D
7XIS0EwafgFs4i1kBAVGzCLV9GI+n1IYJc65TZ6hEX1Z/+/JBR6pJDVdpbHzGCeD
CHM4IIOPCwTmYyAzaGOXssNHd3B8LE8VFpSyZMtDM7ySjFWqvFOueQUO85xIxeFl
+J/hO8k=
-----END CERTIFICATE-----
