Certificate:
    Data:
        Version: 3 (0x2)
        Serial Number:
            47:c5:d7:a1:d8:65:50:95:b0:92:c0:97:7b:5f:85:50
    Signature Algorithm: rsassaPss
         Hash Algorithm: sha512
         Mask Algorithm: mgf1 with sha512
         Salt Length: 0x40
         Trailer Field: 0xBC (default)
        Issuer: C = DE, O = D-Trust GmbH, CN = D-TRUST CA 2-2 2019, 2.5.4.97 = NTRDE-HRB74346
        Validity
            Not Before: Jun 24 13:19:50 2021 GMT
            Not After : Jun 28 13:19:50 2023 GMT
        Subject: C = DE, O = Robert Koch-Institut, OU = Elektronischer Impfnachweis, CN = Robert Koch-Institut, L = Berlin, postalCode = 13353, street = Nordufer 20, 2.5.4.97 = DT:DE-3023531445, serialNumber = CSM026571270, ST = Berlin
        Subject Public Key Info:
            Public Key Algorithm: id-ecPublicKey
                Public-Key: (256 bit)
                pub:
                    04:52:d3:24:b6:56:4a:a6:f3:9f:c2:1b:a6:22:fb:
                    2f:a4:a3:16:13:52:f2:32:ad:f6:46:44:42:6d:53:
                    39:4c:10:71:1e:c0:94:61:d5:d2:8d:ba:8f:2b:77:
                    19:f2:d6:24:0a:47:18:97:29:6e:29:b4:0e:fb:e1:
                    da:4a:c1:a3:49
                ASN1 OID: prime256v1
                NIST CURVE: P-256
        X509v3 extensions:
            X509v3 Authority Key Identifier: 
                keyid:71:10:32:AE:74:71:7B:54:8E:F1:D6:AB:62:54:AE:FC:3E:C0:BB:16

            qcStatements: 
                0.0......F..0......F..0......F...
            Authority Information Access: 
                OCSP - URI:http://d-trust-ca-2-2-2019.ocsp.d-trust.net
                CA Issuers - URI:http://www.d-trust.net/cgi-bin/D-TRUST_CA_2-2_2019.crt
                CA Issuers - URI:ldap://directory.d-trust.net/CN=D-TRUST%20CA%202-2%202019,O=D-Trust%20GmbH,C=DE?cACertificate?base?

            X509v3 Certificate Policies: 
                Policy: 0.4.0.194112.1.1
                Policy: 1.3.6.1.4.1.4788.2.150.5
                  CPS: http://www.d-trust.net/internet/files/D-TRUST_CSM_PKI_CPS.pdf

            X509v3 CRL Distribution Points: 

                Full Name:
                  URI:http://crl.d-trust.net/crl/d-trust_ca_2-2_2019.crl
                  URI:http://cdn.d-trust-cloudcrl.net/crl/d-trust_ca_2-2_2019.crl
                  URI:ldap://directory.d-trust.net/CN=D-TRUST%20CA%202-2%202019,O=D-Trust%20GmbH,C=DE?certificaterevocationlist

            X509v3 Subject Key Identifier: 
                B8:B9:34:AA:AB:11:B5:2B:65:5C:E6:C5:2D:D2:23:75:1A:38:E9:D2
            X509v3 Key Usage: critical
                Digital Signature, Non Repudiation
    Signature Algorithm: rsassaPss
         Hash Algorithm: sha512
         Mask Algorithm: mgf1 with sha512
         Salt Length: 0x40
         Trailer Field: 0xBC (default)

         13:6c:b9:36:01:10:68:3a:09:f0:5a:a2:40:f9:5c:cd:f9:4d:
         07:ce:a4:ca:6c:1b:d0:7a:50:84:04:d5:dd:62:09:d3:95:13:
         e5:2e:52:57:1b:e2:8b:cd:76:4a:6b:a2:71:e3:4b:06:c1:48:
         78:93:e2:0c:f5:72:df:d1:10:65:aa:d2:45:17:5b:35:f7:5f:
         e4:f0:7a:20:f1:20:f7:c4:65:f6:65:28:83:05:00:8e:af:d8:
         d3:a1:62:88:fd:f1:f5:fb:bf:75:0a:99:97:8b:91:1f:fa:31:
         e5:6b:2d:74:90:38:c4:17:f2:22:fd:77:cd:76:21:8d:74:42:
         b8:9c:db:94:07:2c:02:00:d3:aa:75:1f:96:6b:5b:1e:f6:7f:
         81:fd:29:13:06:29:a6:1a:c5:93:b3:f0:0e:8a:04:eb:95:ac:
         7f:3d:a4:bc:ee:f7:d8:15:af:b2:47:da:1b:f6:89:06:0b:e9:
         bb:ff:8a:ec:d9:63:a7:a5:eb:8d:8f:e7:98:bf:a8:7a:d5:5e:
         d8:02:7d:49:c2:b6:fe:ed:19:f4:b8:fd:74:2f:f0:03:a6:6c:
         d5:27:a4:cb:2c:dc:e7:fc:68:85:47:5a:19:8c:2a:7e:b4:11:
         d0:2e:ed:27:4e:19:c8:35:96:a5:62:3b:14:58:53:de:a6:0e:
         51:6f:ed:26:51:85:d9:77:ac:69:26:8e:55:dd:0f:48:83:bf:
         fb:8f:78:ea:80:dd:b1:a7:29:c0:e3:13:bd:06:b9:3f:91:cd:
         cc:37:80:75:65:4a:47:fa:c5:86:61:f0:74:29:9a:cb:fe:37:
         6c:e1:f2:cb:19:9b:a7:5c:53:eb:49:df:fc:c9:f4:08:26:ec:
         33:08:90:0f:b0:5d:2e:03:ca:48:a9:15:7c:df:60:12:d3:42:
         80:01:19:29:86:1b:d6:14:0b:27:a4:48:0e:f3:98:cc:b7:50:
         bd:f5:c5:42:99:0a:b1:e4:f4:69:85:bb:25:63:3e:70:4a:56:
         bd:76:ef:90:21:b8:e0:1c:75:a0:03:04:29:54:71:9a:ba:93:
         e0:9e:24:1c:3b:08:89:10:c7:90:fa:8d:ad:e4:89:44:3f:f3:
         68:d0:17:d2:a9:79:ff:13:2b:a2:59:e0:4f:48:9c:b0:91:55:
         ca:ba:0f:6f:ef:8e:c7:8e:d1:26:9b:4d:cf:1c:09:d0:ff:e6:
         33:17:ed:51:08:b8:fa:19:29:68:d2:ae:d3:a9:c9:ad:f0:51:
         b3:de:10:9b:14:cb:5e:91:28:d4:3e:19:2c:d5:c4:84:2c:e3:
         6b:21:ad:dc:7a:52:fd:14:da:af:b4:70:29:e8:c3:3c:ba:ac:
         f7:92:02:c8:e8:43:db:2a
-----BEGIN CERTIFICATE-----
MIIHUTCCBQmgAwIBAgIQR8XXodhlUJWwksCXe1+FUDA9BgkqhkiG9w0BAQowMKAN
MAsGCWCGSAFlAwQCA6EaMBgGCSqGSIb3DQEBCDALBglghkgBZQMEAgOiAwIBQDBb
MQswCQYDVQQGEwJERTEVMBMGA1UEChMMRC1UcnVzdCBHbWJIMRwwGgYDVQQDExNE
LVRSVVNUIENBIDItMiAyMDE5MRcwFQYDVQRhEw5OVFJERS1IUkI3NDM0NjAeFw0y
MTA2MjQxMzE5NTBaFw0yMzA2MjgxMzE5NTBaMIHrMQswCQYDVQQGEwJERTEdMBsG
A1UEChMUUm9iZXJ0IEtvY2gtSW5zdGl0dXQxJDAiBgNVBAsTG0VsZWt0cm9uaXNj
aGVyIEltcGZuYWNod2VpczEdMBsGA1UEAxMUUm9iZXJ0IEtvY2gtSW5zdGl0dXQx
DzANBgNVBAcTBkJlcmxpbjEOMAwGA1UEEQwFMTMzNTMxFDASBgNVBAkTC05vcmR1
ZmVyIDIwMRkwFwYDVQRhExBEVDpERS0zMDIzNTMxNDQ1MRUwEwYDVQQFEwxDU00w
MjY1NzEyNzAxDzANBgNVBAgTBkJlcmxpbjBZMBMGByqGSM49AgEGCCqGSM49AwEH
A0IABFLTJLZWSqbzn8IbpiL7L6SjFhNS8jKt9kZEQm1TOUwQcR7AlGHV0o26jyt3
GfLWJApHGJcpbim0Dvvh2krBo0mjggLpMIIC5TAfBgNVHSMEGDAWgBRxEDKudHF7
VI7x1qtiVK78PsC7FjAtBggrBgEFBQcBAwQhMB8wCAYGBACORgEBMBMGBgQAjkYB
BjAJBgcEAI5GAQYCMIH+BggrBgEFBQcBAQSB8TCB7jA3BggrBgEFBQcwAYYraHR0
cDovL2QtdHJ1c3QtY2EtMi0yLTIwMTkub2NzcC5kLXRydXN0Lm5ldDBCBggrBgEF
BQcwAoY2aHR0cDovL3d3dy5kLXRydXN0Lm5ldC9jZ2ktYmluL0QtVFJVU1RfQ0Ff
Mi0yXzIwMTkuY3J0MG8GCCsGAQUFBzAChmNsZGFwOi8vZGlyZWN0b3J5LmQtdHJ1
c3QubmV0L0NOPUQtVFJVU1QlMjBDQSUyMDItMiUyMDIwMTksTz1ELVRydXN0JTIw
R21iSCxDPURFP2NBQ2VydGlmaWNhdGU/YmFzZT8wcAYDVR0gBGkwZzAJBgcEAIvs
QAEBMFoGCysGAQQBpTQCgRYFMEswSQYIKwYBBQUHAgEWPWh0dHA6Ly93d3cuZC10
cnVzdC5uZXQvaW50ZXJuZXQvZmlsZXMvRC1UUlVTVF9DU01fUEtJX0NQUy5wZGYw
gfAGA1UdHwSB6DCB5TCB4qCB36CB3IYyaHR0cDovL2NybC5kLXRydXN0Lm5ldC9j
cmwvZC10cnVzdF9jYV8yLTJfMjAxOS5jcmyGO2h0dHA6Ly9jZG4uZC10cnVzdC1j
bG91ZGNybC5uZXQvY3JsL2QtdHJ1c3RfY2FfMi0yXzIwMTkuY3JshmlsZGFwOi8v
ZGlyZWN0b3J5LmQtdHJ1c3QubmV0L0NOPUQtVFJVU1QlMjBDQSUyMDItMiUyMDIw
MTksTz1ELVRydXN0JTIwR21iSCxDPURFP2NlcnRpZmljYXRlcmV2b2NhdGlvbmxp
c3QwHQYDVR0OBBYEFLi5NKqrEbUrZVzmxS3SI3UaOOnSMA4GA1UdDwEB/wQEAwIG
wDA9BgkqhkiG9w0BAQowMKANMAsGCWCGSAFlAwQCA6EaMBgGCSqGSIb3DQEBCDAL
BglghkgBZQMEAgOiAwIBQAOCAgEAE2y5NgEQaDoJ8FqiQPlczflNB86kymwb0HpQ
hATV3WIJ05UT5S5SVxvii812SmuiceNLBsFIeJPiDPVy39EQZarSRRdbNfdf5PB6
IPEg98Rl9mUogwUAjq/Y06FiiP3x9fu/dQqZl4uRH/ox5WstdJA4xBfyIv13zXYh
jXRCuJzblAcsAgDTqnUflmtbHvZ/gf0pEwYpphrFk7PwDooE65Wsfz2kvO732BWv
skfaG/aJBgvpu/+K7Nljp6XrjY/nmL+oetVe2AJ9ScK2/u0Z9Lj9dC/wA6Zs1Sek
yyzc5/xohUdaGYwqfrQR0C7tJ04ZyDWWpWI7FFhT3qYOUW/tJlGF2XesaSaOVd0P
SIO/+4946oDdsacpwOMTvQa5P5HNzDeAdWVKR/rFhmHwdCmay/43bOHyyxmbp1xT
60nf/Mn0CCbsMwiQD7BdLgPKSKkVfN9gEtNCgAEZKYYb1hQLJ6RIDvOYzLdQvfXF
QpkKseT0aYW7JWM+cEpWvXbvkCG44Bx1oAMEKVRxmrqT4J4kHDsIiRDHkPqNreSJ
RD/zaNAX0ql5/xMrolngT0icsJFVyroPb++Ox47RJptNzxwJ0P/mMxftUQi4+hkp
aNKu06nJrfBRs94QmxTLXpEo1D4ZLNXEhCzjayGt3HpS/RTar7RwKejDPLqs95IC
yOhD2yo=
-----END CERTIFICATE-----
