Certificate:
    Data:
        Version: 3 (0x2)
        Serial Number:
            f4:b4:55:b9:b7:2f:73:13
    Signature Algorithm: ecdsa-with-SHA256
        Issuer: C = CY, ST = Nicosia, L = Nicosia, O = Ministry of Health, OU = IT Department, CN = CSCA_EUDCC_CY_01
        Validity
            Not Before: Jun 24 11:23:22 2021 GMT
            Not After : Jun 14 11:23:22 2023 GMT
        Subject: C = CY, ST = Nicosia, L = Nicosia, O = Ministry of Health, OU = IT Department, CN = DSC_EUDCC_CY_01
        Subject Public Key Info:
            Public Key Algorithm: id-ecPublicKey
                Public-Key: (256 bit)
                pub:
                    04:ed:2f:d1:d3:ae:f4:ec:69:6e:ef:6d:6a:26:ab:
                    f1:20:5c:d0:d8:b4:9b:ab:d3:f6:ba:ee:a7:44:a0:
                    81:2e:c1:f9:af:23:f7:c1:7a:60:80:be:a1:1a:1d:
                    3c:d0:5e:3a:d9:b1:8b:4e:e2:3f:85:7a:f1:10:1d:
                    a4:47:65:63:c3
                ASN1 OID: prime256v1
                NIST CURVE: P-256
        X509v3 extensions:
            X509v3 CRL Distribution Points: 

                Full Name:
                  URI:http://crl.eudcc.gov.cy/dsc.crl

            X509v3 Extended Key Usage: 
                1.3.6.1.4.1.1847.2021.1.1, 1.3.6.1.4.1.1847.2021.1.2, 1.3.6.1.4.1.1847.2021.1.3
            X509v3 Private Key Usage Period: 
                Not Before: Jun 23 00:00:00 2021 GMT, Not After: Jun 23 00:00:00 2023 GMT
    Signature Algorithm: ecdsa-with-SHA256
         30:45:02:21:00:8b:da:93:c2:30:db:a0:cf:3d:ec:18:f0:ce:
         d3:60:ba:a0:c6:2f:96:48:fa:95:fc:4f:6d:c9:20:99:e8:2f:
         e9:02:20:00:d3:d6:13:2a:6d:75:69:ca:f3:2d:16:a5:4f:39:
         55:13:ab:e1:c8:e8:6c:09:11:36:2a:2a:bb:20:a5:9f:4d
-----BEGIN CERTIFICATE-----
MIICjzCCAjWgAwIBAgIJAPS0Vbm3L3MTMAoGCCqGSM49BAMCMIGBMQswCQYDVQQG
EwJDWTEQMA4GA1UECAwHTmljb3NpYTEQMA4GA1UEBwwHTmljb3NpYTEbMBkGA1UE
CgwSTWluaXN0cnkgb2YgSGVhbHRoMRYwFAYDVQQLDA1JVCBEZXBhcnRtZW50MRkw
FwYDVQQDDBBDU0NBX0VVRENDX0NZXzAxMB4XDTIxMDYyNDExMjMyMloXDTIzMDYx
NDExMjMyMlowgYAxCzAJBgNVBAYTAkNZMRAwDgYDVQQIDAdOaWNvc2lhMRAwDgYD
VQQHDAdOaWNvc2lhMRswGQYDVQQKDBJNaW5pc3RyeSBvZiBIZWFsdGgxFjAUBgNV
BAsMDUlUIERlcGFydG1lbnQxGDAWBgNVBAMMD0RTQ19FVURDQ19DWV8wMTBZMBMG
ByqGSM49AgEGCCqGSM49AwEHA0IABO0v0dOu9Oxpbu9taiar8SBc0Ni0m6vT9rru
p0SggS7B+a8j98F6YIC+oRodPNBeOtmxi07iP4V68RAdpEdlY8OjgZQwgZEwMAYD
VR0fBCkwJzAloCOgIYYfaHR0cDovL2NybC5ldWRjYy5nb3YuY3kvZHNjLmNybDAw
BgNVHSUEKTAnBgsrBgEEAY43j2UBAQYLKwYBBAGON49lAQIGCysGAQQBjjePZQED
MCsGA1UdEAQkMCKADzIwMjEwNjIzMDAwMDAwWoEPMjAyMzA2MjMwMDAwMDBaMAoG
CCqGSM49BAMCA0gAMEUCIQCL2pPCMNugzz3sGPDO02C6oMYvlkj6lfxPbckgmegv
6QIgANPWEyptdWnK8y0WpU85VROr4cjobAkRNioquyCln00=
-----END CERTIFICATE-----
