Certificate:
    Data:
        Version: 3 (0x2)
        Serial Number: 4519383627554369486 (0x3eb81376ec182fce)
    Signature Algorithm: ecdsa-with-SHA256
        Issuer: CN = Poland DGC RootCSCA 1, O = Ministry of Health, C = PL
        Validity
            Not Before: May 26 11:53:10 2021 GMT
            Not After : May 26 11:53:10 2023 GMT
        Subject: CN = Poland Vaccination DGC Service 1, OU = eHealth Centre, O = Ministry of Health, C = PL
        Subject Public Key Info:
            Public Key Algorithm: id-ecPublicKey
                Public-Key: (256 bit)
                pub:
                    04:81:47:ac:8a:11:bc:10:22:03:9e:ac:44:a1:4f:
                    51:a2:e3:91:f7:2d:cd:54:b0:54:96:96:7e:ae:2f:
                    94:af:b4:d0:2c:e4:50:0c:4d:ec:fc:ce:4a:18:49:
                    65:c0:26:ec:81:3e:9c:5d:40:13:f2:4b:a7:d7:69:
                    8e:70:9b:7b:f2
                ASN1 OID: prime256v1
                NIST CURVE: P-256
        X509v3 extensions:
            X509v3 Authority Key Identifier: 
                keyid:91:79:A2:DA:68:81:12:C0:A3:74:1A:A4:BA:DD:EB:0F:99:EC:8B:01

            X509v3 Extended Key Usage: 
                1.3.6.1.4.1.1847.2021.1.2
            X509v3 CRL Distribution Points: 

                Full Name:
                  URI:http://p1.ezdrowie.gov.pl/ccp1/crl/DGCRootCSCA1.crl

            X509v3 Subject Key Identifier: 
                47:E4:04:01:C2:9D:34:7A:02:BE:BA:AE:0D:25:C1:A7:14:90:3F:5A
            X509v3 Private Key Usage Period: 
                Not Before: May 26 11:53:10 2021 GMT, Not After: May 26 11:53:10 2022 GMT
            X509v3 Key Usage: 
                Digital Signature
    Signature Algorithm: ecdsa-with-SHA256
         30:44:02:20:6b:c0:4d:c8:1e:3d:95:8e:ae:f5:7c:0d:e3:34:
         1c:ff:1e:ca:37:c5:78:55:b4:f5:da:e3:62:5c:7c:32:6b:be:
         02:20:2e:c8:9b:d1:90:31:9b:71:11:5d:e3:dd:e0:d9:60:be:
         df:a5:21:2a:1f:10:79:48:8b:e0:84:06:92:5d:e6:c1
-----BEGIN CERTIFICATE-----
MIICiTCCAjCgAwIBAgIIPrgTduwYL84wCgYIKoZIzj0EAwIwSjEeMBwGA1UEAwwV
UG9sYW5kIERHQyBSb290Q1NDQSAxMRswGQYDVQQKDBJNaW5pc3RyeSBvZiBIZWFs
dGgxCzAJBgNVBAYTAlBMMB4XDTIxMDUyNjExNTMxMFoXDTIzMDUyNjExNTMxMFow
bjEpMCcGA1UEAwwgUG9sYW5kIFZhY2NpbmF0aW9uIERHQyBTZXJ2aWNlIDExFzAV
BgNVBAsMDmVIZWFsdGggQ2VudHJlMRswGQYDVQQKDBJNaW5pc3RyeSBvZiBIZWFs
dGgxCzAJBgNVBAYTAlBMMFkwEwYHKoZIzj0CAQYIKoZIzj0DAQcDQgAEgUesihG8
ECIDnqxEoU9RouOR9y3NVLBUlpZ+ri+Ur7TQLORQDE3s/M5KGEllwCbsgT6cXUAT
8kun12mOcJt78qOB2zCB2DAfBgNVHSMEGDAWgBSReaLaaIESwKN0GqS63esPmeyL
ATAWBgNVHSUEDzANBgsrBgEEAY43j2UBAjBEBgNVHR8EPTA7MDmgN6A1hjNodHRw
Oi8vcDEuZXpkcm93aWUuZ292LnBsL2NjcDEvY3JsL0RHQ1Jvb3RDU0NBMS5jcmww
HQYDVR0OBBYEFEfkBAHCnTR6Ar66rg0lwacUkD9aMCsGA1UdEAQkMCKADzIwMjEw
NTI2MTE1MzEwWoEPMjAyMjA1MjYxMTUzMTBaMAsGA1UdDwQEAwIHgDAKBggqhkjO
PQQDAgNHADBEAiBrwE3IHj2Vjq71fA3jNBz/Hso3xXhVtPXa42JcfDJrvgIgLsib
0ZAxm3ERXePd4Nlgvt+lISofEHlIi+CEBpJd5sE=
-----END CERTIFICATE-----
