Certificate:
    Data:
        Version: 3 (0x2)
        Serial Number:
            59:00:00:00:06:3e:06:19:c0:b9:b6:6c:cb:00:00:00:00:00:06
    Signature Algorithm: ecdsa-with-SHA256
        Issuer: C = NO, O = Norsk helsenett SF, CN = NO NHN CSCA PROD
        Validity
            Not Before: Jun 15 09:30:41 2021 GMT
            Not After : Jun 15 09:40:41 2023 GMT
        Subject: C = NO, O = Norwegian Institute of Public Health, CN = DSC AN EU 5
        Subject Public Key Info:
            Public Key Algorithm: id-ecPublicKey
                Public-Key: (256 bit)
                pub:
                    04:7c:17:90:05:00:63:c8:aa:6f:8e:c0:ae:8e:a8:
                    b5:e7:19:f2:81:13:32:86:33:6c:13:2d:7d:f0:bc:
                    d3:62:e0:7e:32:37:b5:97:12:2f:3d:89:1f:3b:f3:
                    c4:1d:01:60:03:9d:a0:9f:6e:9b:1c:25:c4:ef:91:
                    96:aa:ae:94:33
                ASN1 OID: prime256v1
                NIST CURVE: P-256
        X509v3 extensions:
            X509v3 Key Usage: critical
                Digital Signature
            X509v3 Extended Key Usage: 
                1.3.6.1.4.1.0.1847.2021.1.1, 1.3.6.1.4.1.0.1847.2021.1.2, 1.3.6.1.4.1.0.1847.2021.1.3
            X509v3 Subject Key Identifier: 
                50:FB:70:D2:88:D6:22:2B:BC:7E:46:6E:3C:48:FC:55:53:AE:88:2F
            X509v3 Authority Key Identifier: 
                keyid:D7:90:47:A3:2A:E6:B5:B4:24:BB:4C:4F:0E:B2:66:4E:66:D8:F4:37

            X509v3 Basic Constraints: critical
                CA:FALSE
    Signature Algorithm: ecdsa-with-SHA256
         30:45:02:21:00:a9:8a:90:c0:3d:c4:4c:b8:56:0b:91:52:00:
         da:ac:56:dd:b8:a4:63:32:73:37:17:6f:9e:ac:c3:30:c8:ad:
         14:02:20:16:df:2a:fb:81:4c:e7:7a:e5:e1:b7:c1:cf:09:d0:
         46:95:c3:2d:a1:9c:e1:b7:4a:0b:4c:1c:8c:15:07:2b:24
-----BEGIN CERTIFICATE-----
MIICLzCCAdWgAwIBAgITWQAAAAY+BhnAubZsywAAAAAABjAKBggqhkjOPQQDAjBF
MQswCQYDVQQGEwJOTzEbMBkGA1UEChMSTm9yc2sgaGVsc2VuZXR0IFNGMRkwFwYD
VQQDExBOTyBOSE4gQ1NDQSBQUk9EMB4XDTIxMDYxNTA5MzA0MVoXDTIzMDYxNTA5
NDA0MVowUjELMAkGA1UEBhMCTk8xLTArBgNVBAoTJE5vcndlZ2lhbiBJbnN0aXR1
dGUgb2YgUHVibGljIEhlYWx0aDEUMBIGA1UEAxMLRFNDIEFOIEVVIDUwWTATBgcq
hkjOPQIBBggqhkjOPQMBBwNCAAR8F5AFAGPIqm+OwK6OqLXnGfKBEzKGM2wTLX3w
vNNi4H4yN7WXEi89iR8788QdAWADnaCfbpscJcTvkZaqrpQzo4GWMIGTMA4GA1Ud
DwEB/wQEAwIHgDAzBgNVHSUELDAqBgwrBgEEAQCON49lAQEGDCsGAQQBAI43j2UB
AgYMKwYBBAEAjjePZQEDMB0GA1UdDgQWBBRQ+3DSiNYiK7x+Rm48SPxVU66ILzAf
BgNVHSMEGDAWgBTXkEejKua1tCS7TE8OsmZOZtj0NzAMBgNVHRMBAf8EAjAAMAoG
CCqGSM49BAMCA0gAMEUCIQCpipDAPcRMuFYLkVIA2qxW3bikYzJzNxdvnqzDMMit
FAIgFt8q+4FM53rl4bfBzwnQRpXDLaGc4bdKC0wcjBUHKyQ=
-----END CERTIFICATE-----
