Certificate:
    Data:
        Version: 3 (0x2)
        Serial Number:
            72:19:d7:1a:ae:22:ea:d2:e8
    Signature Algorithm: ecdsa-with-SHA256
        Issuer: CN = EADTrust ECC 256 SubCA For Qualified Certificates 2019, O = "European Agency of Digital Trust, S.L.", C = ES, 2.5.4.97 = VATES-B85626240, OU = Legal Person
        Validity
            Not Before: May 21 12:15:00 2021 GMT
            Not After : May 21 12:15:00 2023 GMT
        Subject: CN = SELLO SAS PARA CERTIFICADO COVID DE LA UE, serialNumber = Q9150013B, OU = SELLO ELECTRONICO, OU = SERVICIO ANDALUZ DE SALUD, 2.5.4.97 = VATES-Q9150013B, O = SERVICIO ANDALUZ DE SALUD, C = ES
        Subject Public Key Info:
            Public Key Algorithm: id-ecPublicKey
                Public-Key: (256 bit)
                pub:
                    04:b7:73:97:f9:71:7f:2d:99:47:7d:fe:99:5a:21:
                    d1:a9:0b:b8:58:1a:e0:cc:d6:58:cf:8c:05:26:4c:
                    24:06:69:3f:cf:44:4e:b0:b2:78:16:5c:0e:2c:fb:
                    36:71:41:08:21:5d:0f:bb:57:26:9e:78:2f:6b:af:
                    84:cd:0a:5b:00
                ASN1 OID: prime256v1
                NIST CURVE: P-256
        X509v3 extensions:
            X509v3 Basic Constraints: critical
                CA:FALSE
            X509v3 Authority Key Identifier: 
                keyid:D3:4C:6C:3A:BD:36:FE:70:87:23:87:3A:EE:3D:90:CF:CB:9B:F7:21

            Authority Information Access: 
                CA Issuers - URI:http://ca.eadtrust.eu/eadtrust-subca-ecc256eadlp2019.crt
                OCSP - URI:http://ocsp.eadtrust.eu

            X509v3 Issuer Alternative Name: 
                email:ca@eadtrust.eu, URI:http://www.eadtrust.eu, URI:http://ca.eadtrust.eu, URI:http://policy.eadtrust.eu
            X509v3 Subject Alternative Name: 
                DirName:/2.16.724.1.3.5.6.2.1=SELLO ELECTRONICO DE NIVEL MEDIO/2.16.724.1.3.5.6.2.2=SERVICIO ANDALUZ DE SALUD/2.16.724.1.3.5.6.2.3=Q9150013B
            X509v3 Certificate Policies: 
                Policy: 2.16.724.1.3.5.6.2
                Policy: 0.4.0.194112.1.1
                  User Notice:
                    Explicit Text: European Telecommunications Standards Institute. eIDAS European Regulation Compliant
                Policy: 1.3.6.1.4.1.501.2.1.1.0.41233
                  CPS: http://policy.eadtrust.eu
                  User Notice:
                    Explicit Text: Certificado cualificado de sello electrónico de Administración, órgano o entidad de derecho público, nivel Medio/Sustancial. Consulte las condiciones de uso en http://policy.eadtrust.eu

            X509v3 Extended Key Usage: 
                TLS Web Client Authentication, E-mail Protection
            qcStatements: 
                0..0...+.......0.......I..0......F..0......F.....0......F..0......F...0l.....F..0b00.*https://eadtrust.eu/en/documents-in-force/..en0..(https://eadtrust.eu/documentos-vigentes/..es
            X509v3 CRL Distribution Points: 

                Full Name:
                  URI:http://crl.eadtrust.eu/eadtrust-subca-ecc256eadlp2019.crl

            X509v3 Subject Key Identifier: 
                2E:88:FA:FE:E0:93:78:7B:77:6A:EE:6B:90:1F:09:24:ED:AD:8C:AF
            X509v3 Key Usage: critical
                Digital Signature, Non Repudiation, Key Encipherment
    Signature Algorithm: ecdsa-with-SHA256
         30:45:02:21:00:9b:a2:82:06:25:6f:01:97:eb:dd:3d:ca:65:
         ec:e1:59:46:9d:02:c4:df:7f:c9:01:a0:78:53:4b:b6:21:3f:
         5b:02:20:2d:17:2e:6d:c6:56:a1:94:a8:43:d8:5d:e6:a5:ad:
         25:97:1c:04:0a:11:81:36:60:85:66:30:20:e6:6a:e2:25
-----BEGIN CERTIFICATE-----
MIIHEDCCBragAwIBAgIJchnXGq4i6tLoMAoGCCqGSM49BAMCMIGwMT8wPQYDVQQD
DDZFQURUcnVzdCBFQ0MgMjU2IFN1YkNBIEZvciBRdWFsaWZpZWQgQ2VydGlmaWNh
dGVzIDIwMTkxLzAtBgNVBAoMJkV1cm9wZWFuIEFnZW5jeSBvZiBEaWdpdGFsIFRy
dXN0LCBTLkwuMQswCQYDVQQGEwJFUzEYMBYGA1UEYQwPVkFURVMtQjg1NjI2MjQw
MRUwEwYDVQQLDAxMZWdhbCBQZXJzb24wHhcNMjEwNTIxMTIxNTAwWhcNMjMwNTIx
MTIxNTAwWjCB0zEyMDAGA1UEAwwpU0VMTE8gU0FTIFBBUkEgQ0VSVElGSUNBRE8g
Q09WSUQgREUgTEEgVUUxEjAQBgNVBAUTCVE5MTUwMDEzQjEaMBgGA1UECwwRU0VM
TE8gRUxFQ1RST05JQ08xIjAgBgNVBAsMGVNFUlZJQ0lPIEFOREFMVVogREUgU0FM
VUQxGDAWBgNVBGEMD1ZBVEVTLVE5MTUwMDEzQjEiMCAGA1UECgwZU0VSVklDSU8g
QU5EQUxVWiBERSBTQUxVRDELMAkGA1UEBhMCRVMwWTATBgcqhkjOPQIBBggqhkjO
PQMBBwNCAAS3c5f5cX8tmUd9/plaIdGpC7hYGuDM1ljPjAUmTCQGaT/PRE6wsngW
XA4s+zZxQQghXQ+7VyaeeC9rr4TNClsAo4IEkjCCBI4wDAYDVR0TAQH/BAIwADAf
BgNVHSMEGDAWgBTTTGw6vTb+cIcjhzruPZDPy5v3ITB5BggrBgEFBQcBAQRtMGsw
RAYIKwYBBQUHMAKGOGh0dHA6Ly9jYS5lYWR0cnVzdC5ldS9lYWR0cnVzdC1zdWJj
YS1lY2MyNTZlYWRscDIwMTkuY3J0MCMGCCsGAQUFBzABhhdodHRwOi8vb2NzcC5l
YWR0cnVzdC5ldTBjBgNVHRIEXDBagQ5jYUBlYWR0cnVzdC5ldYYWaHR0cDovL3d3
dy5lYWR0cnVzdC5ldYYVaHR0cDovL2NhLmVhZHRydXN0LmV1hhlodHRwOi8vcG9s
aWN5LmVhZHRydXN0LmV1MIGCBgNVHREEezB5pHcwdTEvMC0GCWCFVAEDBQYCAQwg
U0VMTE8gRUxFQ1RST05JQ08gREUgTklWRUwgTUVESU8xKDAmBglghVQBAwUGAgIM
GVNFUlZJQ0lPIEFOREFMVVogREUgU0FMVUQxGDAWBglghVQBAwUGAgMMCVE5MTUw
MDEzQjCCAZgGA1UdIASCAY8wggGLMAoGCGCFVAEDBQYCMG8GBwQAi+xAAQEwZDBi
BggrBgEFBQcCAjBWDFRFdXJvcGVhbiBUZWxlY29tbXVuaWNhdGlvbnMgU3RhbmRh
cmRzIEluc3RpdHV0ZS4gZUlEQVMgRXVyb3BlYW4gUmVndWxhdGlvbiBDb21wbGlh
bnQwggEKBg4rBgEEAYN1AgEBAILCETCB9zAlBggrBgEFBQcCARYZaHR0cDovL3Bv
bGljeS5lYWR0cnVzdC5ldTCBzQYIKwYBBQUHAgIwgcAMgb1DZXJ0aWZpY2FkbyBj
dWFsaWZpY2FkbyBkZSBzZWxsbyBlbGVjdHLDs25pY28gZGUgQWRtaW5pc3RyYWNp
w7NuLCDDs3JnYW5vIG8gZW50aWRhZCBkZSBkZXJlY2hvIHDDumJsaWNvLCBuaXZl
bCBNZWRpby9TdXN0YW5jaWFsLiBDb25zdWx0ZSBsYXMgY29uZGljaW9uZXMgZGUg
dXNvIGVuIGh0dHA6Ly9wb2xpY3kuZWFkdHJ1c3QuZXUwHQYDVR0lBBYwFAYIKwYB
BQUHAwIGCCsGAQUFBwMEMIHBBggrBgEFBQcBAwSBtDCBsTAVBggrBgEFBQcLAjAJ
BgcEAIvsSQECMAgGBgQAjkYBATALBgYEAI5GAQMCAQ8wEwYGBACORgEGMAkGBwQA
jkYBBgIwbAYGBACORgEFMGIwMBYqaHR0cHM6Ly9lYWR0cnVzdC5ldS9lbi9kb2N1
bWVudHMtaW4tZm9yY2UvEwJlbjAuFihodHRwczovL2VhZHRydXN0LmV1L2RvY3Vt
ZW50b3MtdmlnZW50ZXMvEwJlczBKBgNVHR8EQzBBMD+gPaA7hjlodHRwOi8vY3Js
LmVhZHRydXN0LmV1L2VhZHRydXN0LXN1YmNhLWVjYzI1NmVhZGxwMjAxOS5jcmww
HQYDVR0OBBYEFC6I+v7gk3h7d2rua5AfCSTtrYyvMA4GA1UdDwEB/wQEAwIF4DAK
BggqhkjOPQQDAgNIADBFAiEAm6KCBiVvAZfr3T3KZezhWUadAsTff8kBoHhTS7Yh
P1sCIC0XLm3GVqGUqEPYXealrSWXHAQKEYE2YIVmMCDmauIl
-----END CERTIFICATE-----
