Certificate:
    Data:
        Version: 3 (0x2)
        Serial Number:
            5d:b9:68:09:c8:df:f0:88:ba:50:4a:10:35:af:c9:5a
    Signature Algorithm: rsassaPss
         Hash Algorithm: sha512
         Mask Algorithm: mgf1 with sha512
         Salt Length: 0x40
         Trailer Field: 0xBC (default)
        Issuer: C = DE, O = D-Trust GmbH, CN = D-TRUST CA 2-2 2019, 2.5.4.97 = NTRDE-HRB74346
        Validity
            Not Before: Jun 24 13:14:28 2021 GMT
            Not After : Jun 28 13:14:28 2023 GMT
        Subject: C = DE, O = Robert Koch-Institut, OU = Elektronischer Impfnachweis, CN = Robert Koch-Institut, L = Berlin, postalCode = 13353, street = Nordufer 20, 2.5.4.97 = DT:DE-3023531445, serialNumber = CSM026571164, ST = Berlin
        Subject Public Key Info:
            Public Key Algorithm: id-ecPublicKey
                Public-Key: (256 bit)
                pub:
                    04:1e:b5:ca:f6:92:52:a4:ca:c4:07:8c:54:ad:74:
                    d3:9d:be:d1:6a:42:11:cc:3b:4d:87:ab:a0:9e:37:
                    d5:e7:5d:cd:16:cb:b9:ac:aa:29:25:86:03:3a:4f:
                    c1:7f:2e:4c:c8:db:a0:ea:70:f7:91:24:94:53:2e:
                    72:78:fa:e0:98
                ASN1 OID: prime256v1
                NIST CURVE: P-256
        X509v3 extensions:
            X509v3 Authority Key Identifier: 
                keyid:71:10:32:AE:74:71:7B:54:8E:F1:D6:AB:62:54:AE:FC:3E:C0:BB:16

            qcStatements: 
                0.0......F..0......F..0......F...
            Authority Information Access: 
                OCSP - URI:http://d-trust-ca-2-2-2019.ocsp.d-trust.net
                CA Issuers - URI:http://www.d-trust.net/cgi-bin/D-TRUST_CA_2-2_2019.crt
                CA Issuers - URI:ldap://directory.d-trust.net/CN=D-TRUST%20CA%202-2%202019,O=D-Trust%20GmbH,C=DE?cACertificate?base?

            X509v3 Certificate Policies: 
                Policy: 0.4.0.194112.1.1
                Policy: 1.3.6.1.4.1.4788.2.150.5
                  CPS: http://www.d-trust.net/internet/files/D-TRUST_CSM_PKI_CPS.pdf

            X509v3 CRL Distribution Points: 

                Full Name:
                  URI:http://crl.d-trust.net/crl/d-trust_ca_2-2_2019.crl
                  URI:http://cdn.d-trust-cloudcrl.net/crl/d-trust_ca_2-2_2019.crl
                  URI:ldap://directory.d-trust.net/CN=D-TRUST%20CA%202-2%202019,O=D-Trust%20GmbH,C=DE?certificaterevocationlist

            X509v3 Subject Key Identifier: 
                C3:66:BE:9E:56:35:00:1A:B7:3F:4D:37:2F:06:3A:6C:83:C0:0E:28
            X509v3 Key Usage: critical
                Digital Signature, Non Repudiation
    Signature Algorithm: rsassaPss
         Hash Algorithm: sha512
         Mask Algorithm: mgf1 with sha512
         Salt Length: 0x40
         Trailer Field: 0xBC (default)

         21:6e:9a:a0:09:0a:b9:c4:51:fe:e0:03:cc:fd:5c:24:75:46:
         bb:d7:98:36:c1:d7:b9:51:b6:84:42:dd:91:ae:d9:5e:e6:1c:
         3c:7e:ef:9d:2f:b6:d3:23:aa:ec:23:ed:4a:51:ff:f3:d0:29:
         0f:e3:36:7a:59:0d:88:fd:2a:72:6f:3a:90:f8:6b:52:ba:4a:
         82:05:02:47:81:18:b8:b1:66:3e:15:a7:09:71:40:38:2b:f2:
         2c:ac:b2:66:3c:c6:9b:6d:ab:d7:fc:02:49:ae:54:14:23:ed:
         f7:a5:7d:1e:aa:31:d7:8a:f8:8e:ee:e0:40:02:39:a2:8f:32:
         a1:f8:e9:87:fb:8f:44:a2:3d:e2:cc:07:10:a9:a5:32:e9:f5:
         b5:ee:dd:50:12:2e:28:3f:82:f0:85:cf:c5:e6:61:a6:26:4e:
         be:f3:7c:8d:81:b4:0b:06:59:6d:8e:b2:a4:54:91:78:11:c2:
         96:82:a9:c9:84:a1:6b:65:32:d8:6b:0d:03:e2:78:f2:5b:e9:
         34:13:d0:cb:10:ca:76:dc:f5:ab:98:22:d8:db:8e:da:0c:19:
         e7:05:34:c0:d3:31:e1:50:80:80:98:31:2d:d5:ce:c8:92:6b:
         48:08:b5:a0:e1:80:4e:b3:10:6d:2c:d0:c5:71:64:db:bc:c3:
         8d:2a:67:1f:a2:42:39:4d:9b:37:0b:ef:21:8a:40:93:b0:ad:
         d5:d8:50:1e:9d:78:79:d8:fb:da:18:de:3b:d2:27:3f:1c:e5:
         e0:34:24:78:28:df:49:c8:01:5f:e2:e7:eb:30:be:d4:79:c8:
         f9:31:4c:17:e9:05:64:98:d1:0a:86:c3:34:b2:ee:b1:3c:f5:
         2f:77:1f:61:f6:80:ab:e6:73:dc:fe:9f:35:ce:4d:4b:2b:c5:
         4b:0e:18:cd:6f:5c:93:eb:f5:4b:ea:af:32:cd:99:b0:40:73:
         eb:3c:24:24:89:28:5c:6f:e4:06:25:22:be:18:32:e3:37:3b:
         7b:dc:f0:1c:e3:32:6e:e6:7c:eb:03:98:e7:d2:a0:c0:5c:fc:
         28:1f:b1:48:af:66:72:20:e1:af:59:d0:72:d6:70:20:26:6c:
         67:8b:2c:5e:a9:ca:42:2d:d3:82:34:cb:e1:bc:64:d7:58:38:
         4b:0b:3a:ab:90:29:dc:b1:76:d2:28:49:77:9d:64:92:75:16:
         01:88:14:63:cc:46:bb:0d:af:d8:f7:44:ac:c7:6a:d7:02:db:
         12:e8:ac:61:05:2d:64:c3:d7:7f:d2:51:3d:0f:8c:af:38:50:
         91:b0:cc:f4:32:ff:1d:ea:3b:ba:3c:59:21:85:12:42:51:4e:
         0a:60:65:f6:f0:ce:4f:f9
-----BEGIN CERTIFICATE-----
MIIHUTCCBQmgAwIBAgIQXbloCcjf8Ii6UEoQNa/JWjA9BgkqhkiG9w0BAQowMKAN
MAsGCWCGSAFlAwQCA6EaMBgGCSqGSIb3DQEBCDALBglghkgBZQMEAgOiAwIBQDBb
MQswCQYDVQQGEwJERTEVMBMGA1UEChMMRC1UcnVzdCBHbWJIMRwwGgYDVQQDExNE
LVRSVVNUIENBIDItMiAyMDE5MRcwFQYDVQRhEw5OVFJERS1IUkI3NDM0NjAeFw0y
MTA2MjQxMzE0MjhaFw0yMzA2MjgxMzE0MjhaMIHrMQswCQYDVQQGEwJERTEdMBsG
A1UEChMUUm9iZXJ0IEtvY2gtSW5zdGl0dXQxJDAiBgNVBAsTG0VsZWt0cm9uaXNj
aGVyIEltcGZuYWNod2VpczEdMBsGA1UEAxMUUm9iZXJ0IEtvY2gtSW5zdGl0dXQx
DzANBgNVBAcTBkJlcmxpbjEOMAwGA1UEEQwFMTMzNTMxFDASBgNVBAkTC05vcmR1
ZmVyIDIwMRkwFwYDVQRhExBEVDpERS0zMDIzNTMxNDQ1MRUwEwYDVQQFEwxDU00w
MjY1NzExNjQxDzANBgNVBAgTBkJlcmxpbjBZMBMGByqGSM49AgEGCCqGSM49AwEH
A0IABB61yvaSUqTKxAeMVK10052+0WpCEcw7TYeroJ431eddzRbLuayqKSWGAzpP
wX8uTMjboOpw95EklFMucnj64JijggLpMIIC5TAfBgNVHSMEGDAWgBRxEDKudHF7
VI7x1qtiVK78PsC7FjAtBggrBgEFBQcBAwQhMB8wCAYGBACORgEBMBMGBgQAjkYB
BjAJBgcEAI5GAQYCMIH+BggrBgEFBQcBAQSB8TCB7jA3BggrBgEFBQcwAYYraHR0
cDovL2QtdHJ1c3QtY2EtMi0yLTIwMTkub2NzcC5kLXRydXN0Lm5ldDBCBggrBgEF
BQcwAoY2aHR0cDovL3d3dy5kLXRydXN0Lm5ldC9jZ2ktYmluL0QtVFJVU1RfQ0Ff
Mi0yXzIwMTkuY3J0MG8GCCsGAQUFBzAChmNsZGFwOi8vZGlyZWN0b3J5LmQtdHJ1
c3QubmV0L0NOPUQtVFJVU1QlMjBDQSUyMDItMiUyMDIwMTksTz1ELVRydXN0JTIw
R21iSCxDPURFP2NBQ2VydGlmaWNhdGU/YmFzZT8wcAYDVR0gBGkwZzAJBgcEAIvs
QAEBMFoGCysGAQQBpTQCgRYFMEswSQYIKwYBBQUHAgEWPWh0dHA6Ly93d3cuZC10
cnVzdC5uZXQvaW50ZXJuZXQvZmlsZXMvRC1UUlVTVF9DU01fUEtJX0NQUy5wZGYw
gfAGA1UdHwSB6DCB5TCB4qCB36CB3IYyaHR0cDovL2NybC5kLXRydXN0Lm5ldC9j
cmwvZC10cnVzdF9jYV8yLTJfMjAxOS5jcmyGO2h0dHA6Ly9jZG4uZC10cnVzdC1j
bG91ZGNybC5uZXQvY3JsL2QtdHJ1c3RfY2FfMi0yXzIwMTkuY3JshmlsZGFwOi8v
ZGlyZWN0b3J5LmQtdHJ1c3QubmV0L0NOPUQtVFJVU1QlMjBDQSUyMDItMiUyMDIw
MTksTz1ELVRydXN0JTIwR21iSCxDPURFP2NlcnRpZmljYXRlcmV2b2NhdGlvbmxp
c3QwHQYDVR0OBBYEFMNmvp5WNQAatz9NNy8GOmyDwA4oMA4GA1UdDwEB/wQEAwIG
wDA9BgkqhkiG9w0BAQowMKANMAsGCWCGSAFlAwQCA6EaMBgGCSqGSIb3DQEBCDAL
BglghkgBZQMEAgOiAwIBQAOCAgEAIW6aoAkKucRR/uADzP1cJHVGu9eYNsHXuVG2
hELdka7ZXuYcPH7vnS+20yOq7CPtSlH/89ApD+M2elkNiP0qcm86kPhrUrpKggUC
R4EYuLFmPhWnCXFAOCvyLKyyZjzGm22r1/wCSa5UFCPt96V9Hqox14r4ju7gQAI5
oo8yofjph/uPRKI94swHEKmlMun1te7dUBIuKD+C8IXPxeZhpiZOvvN8jYG0CwZZ
bY6ypFSReBHCloKpyYSha2Uy2GsNA+J48lvpNBPQyxDKdtz1q5gi2NuO2gwZ5wU0
wNMx4VCAgJgxLdXOyJJrSAi1oOGATrMQbSzQxXFk27zDjSpnH6JCOU2bNwvvIYpA
k7Ct1dhQHp14edj72hjeO9InPxzl4DQkeCjfScgBX+Ln6zC+1HnI+TFMF+kFZJjR
CobDNLLusTz1L3cfYfaAq+Zz3P6fNc5NSyvFSw4YzW9ck+v1S+qvMs2ZsEBz6zwk
JIkoXG/kBiUivhgy4zc7e9zwHOMybuZ86wOY59KgwFz8KB+xSK9mciDhr1nQctZw
ICZsZ4ssXqnKQi3TgjTL4bxk11g4Sws6q5Ap3LF20ihJd51kknUWAYgUY8xGuw2v
2PdErMdq1wLbEuisYQUtZMPXf9JRPQ+MrzhQkbDM9DL/Heo7ujxZIYUSQlFOCmBl
9vDOT/k=
-----END CERTIFICATE-----
