Certificate:
    Data:
        Version: 3 (0x2)
        Serial Number:
            04:31:c6:0c:fc:00:ee:46:29
    Signature Algorithm: ecdsa-with-SHA256
        Issuer: CN = EADTrust ECC 256 SubCA For Qualified Certificates 2019, O = "European Agency of Digital Trust, S.L.", C = ES, 2.5.4.97 = VATES-B85626240, OU = Legal Person
        Validity
            Not Before: May 24 12:00:00 2021 GMT
            Not After : May 24 12:00:00 2023 GMT
        Subject: CN = IBSALUT-CVD-SELLO, serialNumber = Q0719003F, OU = SELLO ELECTRONICO, 2.5.4.97 = VATES-Q0719003F, O = SERVICIO DE SALUD DE LAS ISLAS BALEARES, C = ES
        Subject Public Key Info:
            Public Key Algorithm: id-ecPublicKey
                Public-Key: (256 bit)
                pub:
                    04:6f:19:50:fd:44:f3:d0:0c:59:58:5f:b1:42:cf:
                    b0:fb:1b:de:ab:91:1c:85:ef:73:7f:5e:8b:9c:31:
                    58:63:f2:bc:a5:9e:a5:ea:c6:f6:2a:55:f0:f1:9f:
                    e4:c2:8a:73:cd:bb:f9:2c:25:f5:57:12:ec:18:ef:
                    51:b3:d3:b3:2e
                ASN1 OID: prime256v1
                NIST CURVE: P-256
        X509v3 extensions:
            X509v3 Basic Constraints: critical
                CA:FALSE
            X509v3 Authority Key Identifier: 
                keyid:D3:4C:6C:3A:BD:36:FE:70:87:23:87:3A:EE:3D:90:CF:CB:9B:F7:21

            Authority Information Access: 
                CA Issuers - URI:http://ca.eadtrust.eu/eadtrust-subca-ecc256eadlp2019.crt
                OCSP - URI:http://ocsp.eadtrust.eu

            X509v3 Issuer Alternative Name: 
                email:ca@eadtrust.eu, URI:http://www.eadtrust.eu, URI:http://ca.eadtrust.eu, URI:http://policy.eadtrust.eu
            X509v3 Subject Alternative Name: 
                DirName:/2.16.724.1.3.5.6.2.1=SELLO ELECTRONICO DE NIVEL MEDIO/2.16.724.1.3.5.6.2.2=SERVICIO DE SALUD DE LAS ISLAS BALEARES/2.16.724.1.3.5.6.2.3=Q0719003F
            X509v3 Certificate Policies: 
                Policy: 2.16.724.1.3.5.6.2
                Policy: 0.4.0.194112.1.1
                  User Notice:
                    Explicit Text: European Telecommunications Standards Institute. eIDAS European Regulation Compliant
                Policy: 1.3.6.1.4.1.501.2.1.1.0.41233
                  CPS: http://policy.eadtrust.eu
                  User Notice:
                    Explicit Text: Certificado cualificado de sello electrónico de Administración, órgano o entidad de derecho público, nivel Medio/Sustancial. Consulte las condiciones de uso en http://policy.eadtrust.eu

            X509v3 Extended Key Usage: 
                TLS Web Client Authentication, E-mail Protection
            qcStatements: 
                0..0...+.......0.......I..0......F..0......F.....0......F..0......F...0l.....F..0b00.*https://eadtrust.eu/en/documents-in-force/..en0..(https://eadtrust.eu/documentos-vigentes/..es
            X509v3 CRL Distribution Points: 

                Full Name:
                  URI:http://crl.eadtrust.eu/eadtrust-subca-ecc256eadlp2019.crl

            X509v3 Subject Key Identifier: 
                5E:BE:57:98:AC:D4:CF:BA:0F:13:3B:D8:89:2C:A2:FA:FB:7A:E5:D7
            X509v3 Key Usage: critical
                Digital Signature, Non Repudiation, Key Encipherment
    Signature Algorithm: ecdsa-with-SHA256
         30:46:02:21:00:86:4c:e9:21:38:ac:2d:68:00:46:79:cf:c7:
         c9:4b:f3:72:a9:f8:6d:db:9a:92:96:92:e6:e1:44:0e:23:e7:
         ee:02:21:00:e7:2e:9a:e6:70:4f:a8:68:2f:6c:0b:60:cb:ff:
         00:73:44:ff:ce:5a:19:af:5a:69:8f:9f:53:0d:10:75:67:6b
-----BEGIN CERTIFICATE-----
MIIG9TCCBpqgAwIBAgIJBDHGDPwA7kYpMAoGCCqGSM49BAMCMIGwMT8wPQYDVQQD
DDZFQURUcnVzdCBFQ0MgMjU2IFN1YkNBIEZvciBRdWFsaWZpZWQgQ2VydGlmaWNh
dGVzIDIwMTkxLzAtBgNVBAoMJkV1cm9wZWFuIEFnZW5jeSBvZiBEaWdpdGFsIFRy
dXN0LCBTLkwuMQswCQYDVQQGEwJFUzEYMBYGA1UEYQwPVkFURVMtQjg1NjI2MjQw
MRUwEwYDVQQLDAxMZWdhbCBQZXJzb24wHhcNMjEwNTI0MTIwMDAwWhcNMjMwNTI0
MTIwMDAwWjCBpTEaMBgGA1UEAwwRSUJTQUxVVC1DVkQtU0VMTE8xEjAQBgNVBAUT
CVEwNzE5MDAzRjEaMBgGA1UECwwRU0VMTE8gRUxFQ1RST05JQ08xGDAWBgNVBGEM
D1ZBVEVTLVEwNzE5MDAzRjEwMC4GA1UECgwnU0VSVklDSU8gREUgU0FMVUQgREUg
TEFTIElTTEFTIEJBTEVBUkVTMQswCQYDVQQGEwJFUzBZMBMGByqGSM49AgEGCCqG
SM49AwEHA0IABG8ZUP1E89AMWVhfsULPsPsb3quRHIXvc39ei5wxWGPyvKWeperG
9ipV8PGf5MKKc827+Swl9VcS7BjvUbPTsy6jggSkMIIEoDAMBgNVHRMBAf8EAjAA
MB8GA1UdIwQYMBaAFNNMbDq9Nv5whyOHOu49kM/Lm/chMHkGCCsGAQUFBwEBBG0w
azBEBggrBgEFBQcwAoY4aHR0cDovL2NhLmVhZHRydXN0LmV1L2VhZHRydXN0LXN1
YmNhLWVjYzI1NmVhZGxwMjAxOS5jcnQwIwYIKwYBBQUHMAGGF2h0dHA6Ly9vY3Nw
LmVhZHRydXN0LmV1MGMGA1UdEgRcMFqBDmNhQGVhZHRydXN0LmV1hhZodHRwOi8v
d3d3LmVhZHRydXN0LmV1hhVodHRwOi8vY2EuZWFkdHJ1c3QuZXWGGWh0dHA6Ly9w
b2xpY3kuZWFkdHJ1c3QuZXUwgZQGA1UdEQSBjDCBiaSBhjCBgzEvMC0GCWCFVAED
BQYCAQwgU0VMTE8gRUxFQ1RST05JQ08gREUgTklWRUwgTUVESU8xNjA0BglghVQB
AwUGAgIMJ1NFUlZJQ0lPIERFIFNBTFVEIERFIExBUyBJU0xBUyBCQUxFQVJFUzEY
MBYGCWCFVAEDBQYCAwwJUTA3MTkwMDNGMIIBmAYDVR0gBIIBjzCCAYswCgYIYIVU
AQMFBgIwbwYHBACL7EABATBkMGIGCCsGAQUFBwICMFYMVEV1cm9wZWFuIFRlbGVj
b21tdW5pY2F0aW9ucyBTdGFuZGFyZHMgSW5zdGl0dXRlLiBlSURBUyBFdXJvcGVh
biBSZWd1bGF0aW9uIENvbXBsaWFudDCCAQoGDisGAQQBg3UCAQEAgsIRMIH3MCUG
CCsGAQUFBwIBFhlodHRwOi8vcG9saWN5LmVhZHRydXN0LmV1MIHNBggrBgEFBQcC
AjCBwAyBvUNlcnRpZmljYWRvIGN1YWxpZmljYWRvIGRlIHNlbGxvIGVsZWN0csOz
bmljbyBkZSBBZG1pbmlzdHJhY2nDs24sIMOzcmdhbm8gbyBlbnRpZGFkIGRlIGRl
cmVjaG8gcMO6YmxpY28sIG5pdmVsIE1lZGlvL1N1c3RhbmNpYWwuIENvbnN1bHRl
IGxhcyBjb25kaWNpb25lcyBkZSB1c28gZW4gaHR0cDovL3BvbGljeS5lYWR0cnVz
dC5ldTAdBgNVHSUEFjAUBggrBgEFBQcDAgYIKwYBBQUHAwQwgcEGCCsGAQUFBwED
BIG0MIGxMBUGCCsGAQUFBwsCMAkGBwQAi+xJAQIwCAYGBACORgEBMAsGBgQAjkYB
AwIBDzATBgYEAI5GAQYwCQYHBACORgEGAjBsBgYEAI5GAQUwYjAwFipodHRwczov
L2VhZHRydXN0LmV1L2VuL2RvY3VtZW50cy1pbi1mb3JjZS8TAmVuMC4WKGh0dHBz
Oi8vZWFkdHJ1c3QuZXUvZG9jdW1lbnRvcy12aWdlbnRlcy8TAmVzMEoGA1UdHwRD
MEEwP6A9oDuGOWh0dHA6Ly9jcmwuZWFkdHJ1c3QuZXUvZWFkdHJ1c3Qtc3ViY2Et
ZWNjMjU2ZWFkbHAyMDE5LmNybDAdBgNVHQ4EFgQUXr5XmKzUz7oPEzvYiSyi+vt6
5dcwDgYDVR0PAQH/BAQDAgXgMAoGCCqGSM49BAMCA0kAMEYCIQCGTOkhOKwtaABG
ec/HyUvzcqn4bduakpaS5uFEDiPn7gIhAOcumuZwT6hoL2wLYMv/AHNE/85aGa9a
aY+fUw0QdWdr
-----END CERTIFICATE-----
